
usb_kb.elf:     file format elf32-littlenios2
usb_kb.elf
architecture: nios2, flags 0x00000112:
EXEC_P, HAS_SYMS, D_PAGED
start address 0x100001b8

Program Header:
    LOAD off    0x00001000 vaddr 0x10000000 paddr 0x10000000 align 2**12
         filesz 0x00000020 memsz 0x00000020 flags r-x
    LOAD off    0x00001020 vaddr 0x10000020 paddr 0x10000020 align 2**12
         filesz 0x0000eb2c memsz 0x0000eb2c flags r-x
    LOAD off    0x0000fb4c vaddr 0x1000eb4c paddr 0x100105a4 align 2**12
         filesz 0x00001a58 memsz 0x00001a58 flags rw-
    LOAD off    0x00011ffc vaddr 0x10011ffc paddr 0x10011ffc align 2**12
         filesz 0x00000000 memsz 0x000002f0 flags rw-

Sections:
Idx Name          Size      VMA       LMA       File off  Algn
  0 .entry        00000020  10000000  10000000  00001000  2**5
                  CONTENTS, ALLOC, LOAD, READONLY, CODE
  1 .exceptions   00000198  10000020  10000020  00001020  2**2
                  CONTENTS, ALLOC, LOAD, READONLY, CODE
  2 .text         0000def4  100001b8  100001b8  000011b8  2**2
                  CONTENTS, ALLOC, LOAD, READONLY, CODE
  3 .rodata       00000aa0  1000e0ac  1000e0ac  0000f0ac  2**2
                  CONTENTS, ALLOC, LOAD, READONLY, DATA
  4 .rwdata       00001a58  1000eb4c  100105a4  0000fb4c  2**2
                  CONTENTS, ALLOC, LOAD, DATA, SMALL_DATA
  5 .bss          000002f0  10011ffc  10011ffc  00011ffc  2**2
                  ALLOC, SMALL_DATA
  6 .comment      00000023  00000000  00000000  000115a4  2**0
                  CONTENTS, READONLY
  7 .debug_aranges 00000da0  00000000  00000000  000115c8  2**3
                  CONTENTS, READONLY, DEBUGGING
  8 .debug_info   00022ad1  00000000  00000000  00012368  2**0
                  CONTENTS, READONLY, DEBUGGING
  9 .debug_abbrev 00008f37  00000000  00000000  00034e39  2**0
                  CONTENTS, READONLY, DEBUGGING
 10 .debug_line   0000a430  00000000  00000000  0003dd70  2**0
                  CONTENTS, READONLY, DEBUGGING
 11 .debug_frame  00001a04  00000000  00000000  000481a0  2**2
                  CONTENTS, READONLY, DEBUGGING
 12 .debug_str    00002ead  00000000  00000000  00049ba4  2**0
                  CONTENTS, READONLY, DEBUGGING
 13 .debug_loc    00010f44  00000000  00000000  0004ca51  2**0
                  CONTENTS, READONLY, DEBUGGING
 14 .debug_alt_sim_info 00000040  00000000  00000000  0005d998  2**2
                  CONTENTS, READONLY, DEBUGGING
 15 .debug_ranges 00000a98  00000000  00000000  0005d9d8  2**3
                  CONTENTS, READONLY, DEBUGGING
 16 .thread_model 00000003  00000000  00000000  000615e8  2**0
                  CONTENTS, READONLY
 17 .cpu          0000000c  00000000  00000000  000615eb  2**0
                  CONTENTS, READONLY
 18 .qsys         00000001  00000000  00000000  000615f7  2**0
                  CONTENTS, READONLY
 19 .simulation_enabled 00000001  00000000  00000000  000615f8  2**0
                  CONTENTS, READONLY
 20 .sysid_hash   00000004  00000000  00000000  000615f9  2**0
                  CONTENTS, READONLY
 21 .sysid_base   00000004  00000000  00000000  000615fd  2**0
                  CONTENTS, READONLY
 22 .sysid_time   00000004  00000000  00000000  00061601  2**0
                  CONTENTS, READONLY
 23 .stderr_dev   0000000b  00000000  00000000  00061605  2**0
                  CONTENTS, READONLY
 24 .stdin_dev    0000000b  00000000  00000000  00061610  2**0
                  CONTENTS, READONLY
 25 .stdout_dev   0000000b  00000000  00000000  0006161b  2**0
                  CONTENTS, READONLY
 26 .sopc_system_name 0000000b  00000000  00000000  00061626  2**0
                  CONTENTS, READONLY
 27 .quartus_project_dir 0000004b  00000000  00000000  00061631  2**0
                  CONTENTS, READONLY
 28 .jdi          00005577  00000000  00000000  0006167c  2**0
                  CONTENTS, READONLY
 29 .sopcinfo     0006a293  00000000  00000000  00066bf3  2**0
                  CONTENTS, READONLY
SYMBOL TABLE:
10000000 l    d  .entry	00000000 .entry
10000020 l    d  .exceptions	00000000 .exceptions
100001b8 l    d  .text	00000000 .text
1000e0ac l    d  .rodata	00000000 .rodata
1000eb4c l    d  .rwdata	00000000 .rwdata
10011ffc l    d  .bss	00000000 .bss
00000000 l    d  .comment	00000000 .comment
00000000 l    d  .debug_aranges	00000000 .debug_aranges
00000000 l    d  .debug_info	00000000 .debug_info
00000000 l    d  .debug_abbrev	00000000 .debug_abbrev
00000000 l    d  .debug_line	00000000 .debug_line
00000000 l    d  .debug_frame	00000000 .debug_frame
00000000 l    d  .debug_str	00000000 .debug_str
00000000 l    d  .debug_loc	00000000 .debug_loc
00000000 l    d  .debug_alt_sim_info	00000000 .debug_alt_sim_info
00000000 l    d  .debug_ranges	00000000 .debug_ranges
00000000 l    df *ABS*	00000000 ../usb_kb_bsp//obj/HAL/src/crt0.o
100001f0 l       .text	00000000 alt_after_alt_main
00000000 l    df *ABS*	00000000 alt_exception_entry.o
10000094 l       .exceptions	00000000 alt_exception_unknown
00000000 l    df *ABS*	00000000 alt_irq_handler.c
00000000 l    df *ABS*	00000000 io_handler.c
00000000 l    df *ABS*	00000000 main.c
10011ffc l     O .bss	00000002 ctl_reg.3190
10011ffe l     O .bss	00000002 no_device.3191
00000000 l    df *ABS*	00000000 usb.c
00000000 l    df *ABS*	00000000 printf.c
00000000 l    df *ABS*	00000000 puts.c
00000000 l    df *ABS*	00000000 strlen.c
00000000 l    df *ABS*	00000000 vfprintf.c
1000231c l     F .text	00000034 __sprint_r
1000e86a l     O .rodata	00000010 blanks.3546
1000e87a l     O .rodata	00000010 zeroes.3547
00000000 l    df *ABS*	00000000 wsetup.c
00000000 l    df *ABS*	00000000 dtoa.c
10004364 l     F .text	0000023c quorem
00000000 l    df *ABS*	00000000 fflush.c
00000000 l    df *ABS*	00000000 findfp.c
10005dd4 l     F .text	00000008 __fp_lock
10005ddc l     F .text	00000008 __fp_unlock
00000000 l    df *ABS*	00000000 mallocr.c
00000000 l    df *ABS*	00000000 fvwrite.c
00000000 l    df *ABS*	00000000 fwalk.c
00000000 l    df *ABS*	00000000 impure.c
1000eb4c l     O .rwdata	00000400 impure_data
00000000 l    df *ABS*	00000000 locale.c
1000e8b0 l     O .rodata	00000030 lconv
00000000 l    df *ABS*	00000000 makebuf.c
00000000 l    df *ABS*	00000000 mallocr.c
00000000 l    df *ABS*	00000000 memchr.c
00000000 l    df *ABS*	00000000 memcpy.c
00000000 l    df *ABS*	00000000 memmove.c
00000000 l    df *ABS*	00000000 memset.c
00000000 l    df *ABS*	00000000 mprec.c
1000e9f8 l     O .rodata	0000000c p05.2466
00000000 l    df *ABS*	00000000 mallocr.c
00000000 l    df *ABS*	00000000 s_isinfd.c
00000000 l    df *ABS*	00000000 s_isnand.c
00000000 l    df *ABS*	00000000 sbrkr.c
00000000 l    df *ABS*	00000000 stdio.c
00000000 l    df *ABS*	00000000 strcmp.c
00000000 l    df *ABS*	00000000 writer.c
00000000 l    df *ABS*	00000000 mallocr.c
00000000 l    df *ABS*	00000000 closer.c
00000000 l    df *ABS*	00000000 fclose.c
00000000 l    df *ABS*	00000000 fstatr.c
00000000 l    df *ABS*	00000000 int_errno.c
00000000 l    df *ABS*	00000000 isattyr.c
00000000 l    df *ABS*	00000000 lseekr.c
00000000 l    df *ABS*	00000000 readr.c
00000000 l    df *ABS*	00000000 libgcc2.c
00000000 l    df *ABS*	00000000 libgcc2.c
00000000 l    df *ABS*	00000000 fp-bit.c
1000a3b8 l     F .text	00000354 _fpadd_parts
00000000 l    df *ABS*	00000000 fp-bit.c
00000000 l    df *ABS*	00000000 fp-bit.c
00000000 l    df *ABS*	00000000 fp-bit.c
00000000 l    df *ABS*	00000000 fp-bit.c
00000000 l    df *ABS*	00000000 fp-bit.c
00000000 l    df *ABS*	00000000 fp-bit.c
00000000 l    df *ABS*	00000000 fp-bit.c
00000000 l    df *ABS*	00000000 fp-bit.c
00000000 l    df *ABS*	00000000 fp-bit.c
00000000 l    df *ABS*	00000000 fp-bit.c
00000000 l    df *ABS*	00000000 fp-bit.c
00000000 l    df *ABS*	00000000 lib2-divmod.c
1000b0e8 l     F .text	00000074 udivmodsi4
00000000 l    df *ABS*	00000000 lib2-mul.c
00000000 l    df *ABS*	00000000 libgcc2.c
00000000 l    df *ABS*	00000000 libgcc2.c
00000000 l    df *ABS*	00000000 libgcc2.c
00000000 l    df *ABS*	00000000 fp-bit.c
00000000 l    df *ABS*	00000000 fp-bit.c
00000000 l    df *ABS*	00000000 fp-bit.c
00000000 l    df *ABS*	00000000 libgcc2.c
00000000 l    df *ABS*	00000000 libgcc2.c
00000000 l    df *ABS*	00000000 alt_close.c
1000b87c l     F .text	00000050 alt_get_errno
00000000 l    df *ABS*	00000000 alt_dev.c
1000b998 l     F .text	0000002c alt_dev_null_write
00000000 l    df *ABS*	00000000 alt_errno.c
00000000 l    df *ABS*	00000000 alt_fstat.c
1000b9c4 l     F .text	00000050 alt_get_errno
00000000 l    df *ABS*	00000000 alt_isatty.c
1000bac4 l     F .text	00000050 alt_get_errno
00000000 l    df *ABS*	00000000 alt_load.c
1000bbb8 l     F .text	0000006c alt_load_section
00000000 l    df *ABS*	00000000 alt_lseek.c
1000bca4 l     F .text	00000050 alt_get_errno
00000000 l    df *ABS*	00000000 alt_main.c
00000000 l    df *ABS*	00000000 alt_malloc_lock.c
00000000 l    df *ABS*	00000000 alt_read.c
1000be80 l     F .text	00000050 alt_get_errno
00000000 l    df *ABS*	00000000 alt_release_fd.c
00000000 l    df *ABS*	00000000 alt_sbrk.c
10010594 l     O .rwdata	00000004 heap_end
00000000 l    df *ABS*	00000000 alt_usleep.c
00000000 l    df *ABS*	00000000 alt_write.c
1000c124 l     F .text	00000050 alt_get_errno
00000000 l    df *ABS*	00000000 alt_sys_init.c
1000c264 l     F .text	00000038 alt_dev_reg
1000f508 l     O .rwdata	00001060 jtag_uart_0
00000000 l    df *ABS*	00000000 altera_avalon_jtag_uart_fd.c
00000000 l    df *ABS*	00000000 altera_avalon_jtag_uart_init.c
1000c53c l     F .text	00000204 altera_avalon_jtag_uart_irq
1000c740 l     F .text	000000a4 altera_avalon_jtag_uart_timeout
00000000 l    df *ABS*	00000000 altera_avalon_jtag_uart_ioctl.c
00000000 l    df *ABS*	00000000 altera_avalon_jtag_uart_read.c
00000000 l    df *ABS*	00000000 altera_avalon_jtag_uart_write.c
00000000 l    df *ABS*	00000000 alt_alarm_start.c
00000000 l    df *ABS*	00000000 alt_busy_sleep.c
00000000 l    df *ABS*	00000000 alt_dcache_flush_all.c
00000000 l    df *ABS*	00000000 alt_dev_llist_insert.c
1000d028 l     F .text	00000050 alt_get_errno
00000000 l    df *ABS*	00000000 alt_do_ctors.c
00000000 l    df *ABS*	00000000 alt_do_dtors.c
00000000 l    df *ABS*	00000000 alt_icache_flush_all.c
00000000 l    df *ABS*	00000000 alt_iic.c
00000000 l    df *ABS*	00000000 alt_iic_isr_register.c
00000000 l    df *ABS*	00000000 alt_io_redirect.c
1000d4b4 l     F .text	000000e0 alt_open_fd
00000000 l    df *ABS*	00000000 alt_irq_vars.c
00000000 l    df *ABS*	00000000 alt_open.c
1000d60c l     F .text	00000050 alt_get_errno
1000d65c l     F .text	000000f0 alt_file_locked
00000000 l    df *ABS*	00000000 alt_tick.c
00000000 l    df *ABS*	00000000 altera_nios2_qsys_irq.c
00000000 l    df *ABS*	00000000 alt_find_dev.c
00000000 l    df *ABS*	00000000 alt_find_file.c
00000000 l    df *ABS*	00000000 alt_get_fd.c
00000000 l    df *ABS*	00000000 atexit.c
00000000 l    df *ABS*	00000000 exit.c
00000000 l    df *ABS*	00000000 memcmp.c
00000000 l    df *ABS*	00000000 __atexit.c
00000000 l    df *ABS*	00000000 __call_atexit.c
00000000 l    df *ABS*	00000000 alt_exit.c
00000000 l    df *ABS*	00000000 
10008894 g     F .text	00000074 _mprec_log10
10008984 g     F .text	00000084 __any_on
10009604 g     F .text	00000064 _isatty_r
1000e8e0 g     O .rodata	00000028 __mprec_tinytens
1000bdc8 g     F .text	00000078 alt_main
1000b838 g     F .text	00000044 __ashldi3
100021f8 g     F .text	00000084 _puts_r
1001205c g     O .bss	00000100 alt_irq
10009668 g     F .text	0000006c _lseek_r
100105a4 g       *ABS*	00000000 __flash_rwdata_start
1000ac58 g     F .text	0000005c __eqdf2
100122ec g       *ABS*	00000000 __alt_heap_start
100021bc g     F .text	0000003c printf
100091a8 g     F .text	0000005c __sseek
10005e78 g     F .text	0000010c __sinit
10006b10 g     F .text	0000009c _setlocale_r
10005df0 g     F .text	00000078 __sfmoreglue
1000be60 g     F .text	00000020 __malloc_unlock
10002094 g     F .text	00000080 UsbGetRetryCnt
10007750 g     F .text	0000018c memmove
100001f4 g     F .text	00000050 IO_init
10005e68 g     F .text	00000010 _cleanup
100079b8 g     F .text	000000a8 _Balloc
1000ad10 g     F .text	00000064 __gtdf2
00000000  w      *UND*	00000000 __errno
10000000 g     F .entry	0000000c __reset
10000020 g       *ABS*	00000000 __flash_exceptions_start
1000959c g     F .text	00000068 _fstat_r
10012018 g     O .bss	00000004 errno
10012020 g     O .bss	00000004 alt_argv
10018568 g       *ABS*	00000000 _gp
1000c0f4 g     F .text	00000030 usleep
1000f388 g     O .rwdata	00000180 alt_fd_list
1000da60 g     F .text	00000090 alt_find_dev
10007610 g     F .text	00000140 memcpy
10005de4 g     F .text	0000000c _cleanup_r
1000ae34 g     F .text	000000d4 __floatsidf
1000d594 g     F .text	00000078 alt_io_redirect
1000add8 g     F .text	0000005c __ltdf2
1000e0ac g       *ABS*	00000000 __DTOR_END__
1000227c g     F .text	00000014 puts
100087f0 g     F .text	000000a4 __ratio
1000c940 g     F .text	00000218 altera_avalon_jtag_uart_read
00000000  w      *UND*	00000000 malloc
10002190 g     F .text	0000002c _printf_r
00000000 g       *ABS*	00000000 __alt_mem_onchip_memory2_0
1000b208 g     F .text	00000008 __udivsi3
1000bb14 g     F .text	000000a4 isatty
1000e930 g     O .rodata	000000c8 __mprec_tens
10006bac g     F .text	0000000c __locale_charset
10012014 g     O .bss	00000004 __malloc_top_pad
10001734 g     F .text	00000264 UsbGetConfigDesc2
10010570 g     O .rwdata	00000004 __mb_cur_max
10006bb8 g     F .text	0000000c _localeconv_r
10007de8 g     F .text	0000003c __i2b
100064cc g     F .text	000004e4 __sfvwrite_r
10009068 g     F .text	00000064 _sbrk_r
100096d4 g     F .text	0000006c _read_r
1000ef4c g     O .rwdata	0000000c __lc_ctype
1001058c g     O .rwdata	00000004 alt_max_fd
1000b620 g     F .text	00000104 __unpack_d
1000944c g     F .text	0000013c _fclose_r
10005da4 g     F .text	00000030 fflush
10012010 g     O .bss	00000004 __malloc_max_sbrked_mem
1000a70c g     F .text	00000054 __adddf3
10008564 g     F .text	00000148 __b2d
10009d90 g     F .text	00000628 __umoddi3
1000bcf4 g     F .text	000000d4 lseek
10010568 g     O .rwdata	00000004 _global_impure_ptr
10008a08 g     F .text	000005fc _realloc_r
100122ec g       *ABS*	00000000 __bss_end
1000d3c4 g     F .text	000000f0 alt_iic_isr_register
1000d93c g     F .text	00000104 alt_tick
10009740 g     F .text	00000650 __udivdi3
1000e908 g     O .rodata	00000028 __mprec_bigtens
10007bcc g     F .text	00000104 __s2b
1000afcc g     F .text	0000011c __floatunsidf
10008304 g     F .text	00000058 __mcmp
10001194 g     F .text	000000fc UsbSetAddress
10006090 g     F .text	00000018 __fp_lock_all
1000d378 g     F .text	0000004c alt_ic_irq_enabled
1000d8a4 g     F .text	00000098 alt_alarm_stop
10012028 g     O .bss	00000004 alt_irq_active
100000ec g     F .exceptions	000000cc alt_irq_handler
1000f360 g     O .rwdata	00000028 alt_dev_null
1000d00c g     F .text	0000001c alt_dcache_flush_all
10007cd0 g     F .text	00000068 __hi0bits
100002b0 g     F .text	00000068 IO_read
1000af08 g     F .text	000000c4 __fixdfsi
100105a4 g       *ABS*	00000000 __ram_rwdata_end
10010584 g     O .rwdata	00000008 alt_dev_list
1000c174 g     F .text	000000f0 write
1000eb4c g       *ABS*	00000000 __ram_rodata_end
1000ba14 g     F .text	000000b0 fstat
1000b7f4 g     F .text	00000044 __lshrdi3
10002114 g     F .text	0000007c UsbPrintMem
1000807c g     F .text	0000012c __pow5mult
10012008 g     O .bss	00000004 __nlocale_changed
1000b210 g     F .text	00000008 __umodsi3
100122ec g       *ABS*	00000000 end
1000c47c g     F .text	000000c0 altera_avalon_jtag_uart_init
1000e0ac g       *ABS*	00000000 __CTOR_LIST__
18000000 g       *ABS*	00000000 __alt_stack_pointer
1000b350 g     F .text	000000ac __clzsi2
1000cb58 g     F .text	00000220 altera_avalon_jtag_uart_write
10006080 g     F .text	00000004 __sfp_lock_acquire
10007518 g     F .text	000000f8 memchr
10002350 g     F .text	00001e7c ___vfprintf_internal_r
10001a94 g     F .text	000000fc UsbClassRequest
100061fc g     F .text	000002d0 _free_r
1000ded0 g     F .text	000001a0 __call_exitprocs
10012004 g     O .bss	00000004 __mlocale_changed
10010574 g     O .rwdata	00000004 __malloc_sbrk_base
100001b8 g     F .text	0000003c _start
1001202c g     O .bss	00000004 _alt_tick_rate
100081a8 g     F .text	0000015c __lshift
10012030 g     O .bss	00000004 _alt_nticks
1000bed0 g     F .text	000000f4 read
1000c2d0 g     F .text	00000048 alt_sys_init
1000dda0 g     F .text	00000130 __register_exitproc
10007e24 g     F .text	00000258 __multiply
1000c7e4 g     F .text	00000068 altera_avalon_jtag_uart_close
1000b218 g     F .text	00000028 __mulsi3
1000eb4c g       *ABS*	00000000 __ram_rwdata_start
1000e0ac g       *ABS*	00000000 __ram_rodata_start
10012034 g     O .bss	00000028 __malloc_current_mallinfo
100086ac g     F .text	00000144 __d2b
10001290 g     F .text	00000144 UsbGetDeviceDesc1
1000c318 g     F .text	00000060 altera_avalon_jtag_uart_read_fd
1000dc04 g     F .text	000000d4 alt_get_fd
1000ceb8 g     F .text	00000154 alt_busy_sleep
1000b724 g     F .text	000000d0 __fpcmp_parts_d
100093e8 g     F .text	00000064 _close_r
1000dd24 g     F .text	0000007c memcmp
1000c3d8 g     F .text	00000050 altera_avalon_jtag_uart_close_fd
100122ec g       *ABS*	00000000 __alt_stack_base
1000c428 g     F .text	00000054 altera_avalon_jtag_uart_ioctl_fd
100041f0 g     F .text	00000174 __swsetup_r
1000aaa4 g     F .text	000001b4 __divdf3
10005f84 g     F .text	000000fc __sfp
10008908 g     F .text	0000007c __copybits
1000ef58 g     O .rwdata	00000408 __malloc_av_
1000608c g     F .text	00000004 __sinit_lock_release
1000a7c0 g     F .text	000002e4 __muldf3
100090cc g     F .text	00000054 __sread
10002010 g     F .text	00000084 UsbWaitTDListDone
1000daf0 g     F .text	00000114 alt_find_file
1000d078 g     F .text	000000a0 alt_dev_llist_insert
1000be40 g     F .text	00000020 __malloc_lock
1000c044 g     F .text	000000b0 sbrk
10005bbc g     F .text	000001e8 _fflush_r
1000931c g     F .text	000000cc _calloc_r
10011ffc g       *ABS*	00000000 __bss_start
100078dc g     F .text	000000dc memset
10000318 g     F .text	00000d34 main
10012024 g     O .bss	00000004 alt_envp
1001200c g     O .bss	00000004 __malloc_max_total_mem
1000c378 g     F .text	00000060 altera_avalon_jtag_uart_write_fd
10001998 g     F .text	000000fc UsbSetConfig
10009204 g     F .text	00000008 __sclose
18000000 g       *ABS*	00000000 __alt_heap_limit
10009588 g     F .text	00000014 fclose
1001215c g     O .bss	00000190 _atexit0
100045a0 g     F .text	0000161c _dtoa_r
10006d94 g     F .text	00000784 _malloc_r
10010590 g     O .rwdata	00000004 alt_errno
100069b0 g     F .text	000000a8 _fwalk
1000b15c g     F .text	00000050 __divsi3
1000ea04 g     O .rodata	00000014 __thenan_df
100060c0 g     F .text	0000013c _malloc_trim_r
10001b90 g     F .text	00000144 UsbGetHidDesc
1000e0ac g       *ABS*	00000000 __CTOR_END__
1000920c g     F .text	000000a4 strcmp
1000e0ac g       *ABS*	00000000 __flash_rodata_start
1000e0ac g       *ABS*	00000000 __DTOR_LIST__
1000acb4 g     F .text	0000005c __nedf2
100010a0 g     F .text	00000044 UsbRead
1000c29c g     F .text	00000034 alt_irq_init
1000bfc4 g     F .text	00000080 alt_release_fd
1000ea18 g     O .rodata	00000100 __clz_tab
10012000 g     O .bss	00000004 _PathLocale
1000dcd8 g     F .text	00000014 atexit
100092b0 g     F .text	0000006c _write_r
10006bc4 g     F .text	0000001c setlocale
1001056c g     O .rwdata	00000004 _impure_ptr
1001201c g     O .bss	00000004 alt_argc
1000d174 g     F .text	0000005c _do_dtors
10000020 g       .exceptions	00000000 alt_irq_entry
10008504 g     F .text	00000060 __ulp
10009004 g     F .text	00000038 __isinfd
100060a8 g     F .text	00000018 __fp_unlock_all
1001057c g     O .rwdata	00000008 alt_fs_list
10001cd4 g     F .text	0000033c UsbGetReportDesc
10000020 g       *ABS*	00000000 __ram_exceptions_start
10006be0 g     F .text	0000000c localeconv
1000d1ec g     F .text	00000050 alt_ic_isr_register
100105a4 g       *ABS*	00000000 _edata
100122ec g       *ABS*	00000000 _end
1000104c g     F .text	00000054 UsbWrite
100001b8 g       *ABS*	00000000 __ram_exceptions_end
1000c84c g     F .text	000000f4 altera_avalon_jtag_uart_ioctl
1000d2d8 g     F .text	000000a0 alt_ic_irq_disable
10009120 g     F .text	00000088 __swrite
10010578 g     O .rwdata	00000004 __malloc_trim_threshold
1000da40 g     F .text	00000020 altera_nios2_qsys_irq_init
1000dcec g     F .text	00000038 exit
10006a58 g     F .text	000000b8 _fwalk_reent
1000835c g     F .text	000001a8 __mdiff
1000b1ac g     F .text	0000005c __modsi3
18000000 g       *ABS*	00000000 __alt_data_end
10000020 g     F .exceptions	00000000 alt_exception
10006084 g     F .text	00000004 __sfp_lock_release
10000000 g       *ABS*	00000000 __alt_mem_sdram
10000244 g     F .text	0000006c IO_write
1000e070 g     F .text	0000003c _exit
1000903c g     F .text	0000002c __isnand
1000cd78 g     F .text	00000140 alt_alarm_start
1000b240 g     F .text	00000110 __muldi3
10006bec g     F .text	000001a8 __smakebuf_r
10002290 g     F .text	0000008c strlen
1000d74c g     F .text	00000158 open
1000ad74 g     F .text	00000064 __gedf2
1000d1d0 g     F .text	0000001c alt_icache_flush_all
10010598 g     O .rwdata	00000004 alt_priority_mask
1000d23c g     F .text	0000009c alt_ic_irq_enable
100041cc g     F .text	00000024 __vfprintf_internal
1000a760 g     F .text	00000060 __subdf3
10007d38 g     F .text	000000b0 __lo0bits
100015a8 g     F .text	0000018c UsbGetConfigDesc1
1001059c g     O .rwdata	00000008 alt_alarm_list
1000d118 g     F .text	0000005c _do_ctors
100010e4 g     F .text	000000b0 UsbSoftReset
1000b8cc g     F .text	000000cc close
100013d4 g     F .text	000001d4 UsbGetDeviceDesc2
1000bc24 g     F .text	00000080 alt_load
1000b3fc g     F .text	00000224 __pack_d
00000000  w      *UND*	00000000 free
10006088 g     F .text	00000004 __sinit_lock_acquire
10007a88 g     F .text	00000144 __multadd
10007a60 g     F .text	00000028 _Bfree



Disassembly of section .entry:

10000000 <__reset>:
 * Jump to the _start entry point in the .text section if reset code
 * is allowed or if optimizing for RTL simulation.
 */
#if defined(ALT_ALLOW_CODE_AT_RESET) || defined(ALT_SIM_OPTIMIZE)
    /* Jump to the _start entry point in the .text section. */
    movhi r1, %hi(_start)
10000000:	00440034 	movhi	at,4096
    ori r1, r1, %lo(_start)
10000004:	08406e14 	ori	at,at,440
    jmp r1
10000008:	0800683a 	jmp	at
	...

Disassembly of section .exceptions:

10000020 <alt_exception>:

#else /* ALT_EXCEPTION_STACK disabled */
        /* 
         * Reserve space on normal stack for registers about to be pushed.
         */
        addi  sp, sp, -76
10000020:	deffed04 	addi	sp,sp,-76
         * documentation for details).
         *
         * Leave a gap in the stack frame at 4(sp) for the muldiv handler to
         * store zero into.
         */
        stw   ra,  0(sp)
10000024:	dfc00015 	stw	ra,0(sp)
        stw   r1,   8(sp)
10000028:	d8400215 	stw	at,8(sp)
        stw   r2,  12(sp)
1000002c:	d8800315 	stw	r2,12(sp)
        stw   r3,  16(sp)
10000030:	d8c00415 	stw	r3,16(sp)
        stw   r4,  20(sp)
10000034:	d9000515 	stw	r4,20(sp)
        stw   r5,  24(sp)
10000038:	d9400615 	stw	r5,24(sp)
        stw   r6,  28(sp)
1000003c:	d9800715 	stw	r6,28(sp)
        stw   r7,  32(sp)
10000040:	d9c00815 	stw	r7,32(sp)
        rdctl r5, estatus   /* Read early to avoid usage stall */
10000044:	000b307a 	rdctl	r5,estatus
        stw   r8,  36(sp)
10000048:	da000915 	stw	r8,36(sp)
        stw   r9,  40(sp)
1000004c:	da400a15 	stw	r9,40(sp)
        stw   r10, 44(sp)
10000050:	da800b15 	stw	r10,44(sp)
        stw   r11, 48(sp)
10000054:	dac00c15 	stw	r11,48(sp)
        stw   r12, 52(sp)
10000058:	db000d15 	stw	r12,52(sp)
        stw   r13, 56(sp)
1000005c:	db400e15 	stw	r13,56(sp)
        stw   r14, 60(sp)
10000060:	db800f15 	stw	r14,60(sp)
        stw   r15, 64(sp)
10000064:	dbc01015 	stw	r15,64(sp)
        /*
         * ea-4 contains the address of the instruction being executed
         * when the exception occured. For interrupt exceptions, we will
         * will be re-issue the isntruction. Store it in 72(sp)
         */
        stw   r5,  68(sp)  /* estatus */
10000068:	d9401115 	stw	r5,68(sp)
        addi  r15, ea, -4  /* instruction that caused exception */
1000006c:	ebffff04 	addi	r15,ea,-4
        stw   r15,  72(sp)
10000070:	dbc01215 	stw	r15,72(sp)
#else
        /*
         * Test to see if the exception was a software exception or caused 
         * by an external interrupt, and vector accordingly.
         */
        rdctl r4, ipending
10000074:	0009313a 	rdctl	r4,ipending
        andi  r2, r5, 1
10000078:	2880004c 	andi	r2,r5,1
        beq   r2, zero, .Lnot_irq
1000007c:	10000326 	beq	r2,zero,1000008c <alt_exception+0x6c>
        beq   r4, zero, .Lnot_irq
10000080:	20000226 	beq	r4,zero,1000008c <alt_exception+0x6c>
        /*
         * Now that all necessary registers have been preserved, call 
         * alt_irq_handler() to process the interrupts.
         */

        call alt_irq_handler
10000084:	00000ec0 	call	100000ec <alt_irq_handler>

        .section .exceptions.irqreturn, "xa"

        br    .Lexception_exit
10000088:	00000306 	br	10000098 <alt_exception_unknown+0x4>
         * upon completion, so we write ea (address of instruction *after*
         * the one where the exception occured) into 72(sp). The actual
         * instruction that caused the exception is written in r2, which these
         * handlers will utilize.
         */
        stw   ea,  72(sp)  /* Don't re-issue */
1000008c:	df401215 	stw	ea,72(sp)
        ldw   r2, -4(ea)   /* Instruction that caused exception */
10000090:	e8bfff17 	ldw	r2,-4(ea)

10000094 <alt_exception_unknown>:
#ifdef NIOS2_HAS_DEBUG_STUB
       /*
        *  Either tell the user now (if there is a debugger attached) or go into
        *  the debug monitor which will loop until a debugger is attached.
        */
        break
10000094:	003da03a 	break	0
        /* 
         * Restore the saved registers, so that all general purpose registers 
         * have been restored to their state at the time the interrupt occured.
         */

        ldw   r5,  68(sp)
10000098:	d9401117 	ldw	r5,68(sp)
        ldw   ea,  72(sp)  /* This becomes the PC once eret is executed */
1000009c:	df401217 	ldw	ea,72(sp)
        ldw   ra,   0(sp)
100000a0:	dfc00017 	ldw	ra,0(sp)

        wrctl estatus, r5
100000a4:	2801707a 	wrctl	estatus,r5

        ldw   r1,   8(sp)
100000a8:	d8400217 	ldw	at,8(sp)
        ldw   r2,  12(sp)
100000ac:	d8800317 	ldw	r2,12(sp)
        ldw   r3,  16(sp)
100000b0:	d8c00417 	ldw	r3,16(sp)
        ldw   r4,  20(sp)
100000b4:	d9000517 	ldw	r4,20(sp)
        ldw   r5,  24(sp)
100000b8:	d9400617 	ldw	r5,24(sp)
        ldw   r6,  28(sp)
100000bc:	d9800717 	ldw	r6,28(sp)
        ldw   r7,  32(sp)
100000c0:	d9c00817 	ldw	r7,32(sp)

#if defined(ALT_EXCEPTION_STACK) && defined(ALT_STACK_CHECK)
        ldw   et, %gprel(alt_exception_old_stack_limit)(gp)
#endif

        ldw   r8,  36(sp)
100000c4:	da000917 	ldw	r8,36(sp)
        ldw   r9,  40(sp)
100000c8:	da400a17 	ldw	r9,40(sp)
        ldw   r10, 44(sp)
100000cc:	da800b17 	ldw	r10,44(sp)
        ldw   r11, 48(sp)
100000d0:	dac00c17 	ldw	r11,48(sp)
        ldw   r12, 52(sp)
100000d4:	db000d17 	ldw	r12,52(sp)
        ldw   r13, 56(sp)
100000d8:	db400e17 	ldw	r13,56(sp)
        ldw   r14, 60(sp)
100000dc:	db800f17 	ldw	r14,60(sp)
        ldw   r15, 64(sp)
100000e0:	dbc01017 	ldw	r15,64(sp)
        stw   et, %gprel(alt_stack_limit_value)(gp)
        stw   zero, %gprel(alt_exception_old_stack_limit)(gp)
#endif /* ALT_STACK_CHECK */
        ldw   sp,  76(sp)
#else /* ALT_EXCEPTION_STACK disabled */
        addi  sp, sp, 76
100000e4:	dec01304 	addi	sp,sp,76

        /*
         * Return to the interrupted instruction.
         */

        eret
100000e8:	ef80083a 	eret

100000ec <alt_irq_handler>:
 * instruction is present if the macro ALT_CI_INTERRUPT_VECTOR defined.
 */

void alt_irq_handler (void) __attribute__ ((section (".exceptions")));
void alt_irq_handler (void)
{
100000ec:	defff904 	addi	sp,sp,-28
100000f0:	dfc00615 	stw	ra,24(sp)
100000f4:	df000515 	stw	fp,20(sp)
100000f8:	df000504 	addi	fp,sp,20
  
  /*
   * Notify the operating system that we are at interrupt level.
   */ 
  
  ALT_OS_INT_ENTER();
100000fc:	0001883a 	nop
#ifndef NIOS2_EIC_PRESENT
static ALT_INLINE alt_u32 ALT_ALWAYS_INLINE alt_irq_pending (void)
{
  alt_u32 active;

  NIOS2_READ_IPENDING (active);
10000100:	0005313a 	rdctl	r2,ipending
10000104:	e0bffe15 	stw	r2,-8(fp)

  return active;
10000108:	e0bffe17 	ldw	r2,-8(fp)
   * Consider the case where the high priority interupt is asserted during
   * the interrupt entry sequence for a lower priority interrupt to see why
   * this is the case.
   */

  active = alt_irq_pending ();
1000010c:	e0bffb15 	stw	r2,-20(fp)

  do
  {
    i = 0;
10000110:	e03ffd15 	stw	zero,-12(fp)
    mask = 1;
10000114:	00800044 	movi	r2,1
10000118:	e0bffc15 	stw	r2,-16(fp)
     * called to clear the interrupt condition.
     */

    do
    {
      if (active & mask)
1000011c:	e0fffb17 	ldw	r3,-20(fp)
10000120:	e0bffc17 	ldw	r2,-16(fp)
10000124:	1884703a 	and	r2,r3,r2
10000128:	10001726 	beq	r2,zero,10000188 <alt_irq_handler+0x9c>
      { 
#ifdef ALT_ENHANCED_INTERRUPT_API_PRESENT
        alt_irq[i].handler(alt_irq[i].context); 
1000012c:	00c40074 	movhi	r3,4097
10000130:	18c81704 	addi	r3,r3,8284
10000134:	e0bffd17 	ldw	r2,-12(fp)
10000138:	100490fa 	slli	r2,r2,3
1000013c:	1885883a 	add	r2,r3,r2
10000140:	10c00017 	ldw	r3,0(r2)
10000144:	01040074 	movhi	r4,4097
10000148:	21081704 	addi	r4,r4,8284
1000014c:	e0bffd17 	ldw	r2,-12(fp)
10000150:	100490fa 	slli	r2,r2,3
10000154:	2085883a 	add	r2,r4,r2
10000158:	10800104 	addi	r2,r2,4
1000015c:	10800017 	ldw	r2,0(r2)
10000160:	1009883a 	mov	r4,r2
10000164:	183ee83a 	callr	r3
#else
        alt_irq[i].handler(alt_irq[i].context, i); 
#endif
        break;
10000168:	0001883a 	nop
#ifndef NIOS2_EIC_PRESENT
static ALT_INLINE alt_u32 ALT_ALWAYS_INLINE alt_irq_pending (void)
{
  alt_u32 active;

  NIOS2_READ_IPENDING (active);
1000016c:	0005313a 	rdctl	r2,ipending
10000170:	e0bfff15 	stw	r2,-4(fp)

  return active;
10000174:	e0bfff17 	ldw	r2,-4(fp)
      mask <<= 1;
      i++;

    } while (1);

    active = alt_irq_pending ();
10000178:	e0bffb15 	stw	r2,-20(fp)
    
  } while (active);
1000017c:	e0bffb17 	ldw	r2,-20(fp)
10000180:	103fe31e 	bne	r2,zero,10000110 <__alt_data_end+0xf8000110>

  /*
   * Notify the operating system that interrupt processing is complete.
   */ 

  ALT_OS_INT_EXIT();
10000184:	00000706 	br	100001a4 <alt_irq_handler+0xb8>
#else
        alt_irq[i].handler(alt_irq[i].context, i); 
#endif
        break;
      }
      mask <<= 1;
10000188:	e0bffc17 	ldw	r2,-16(fp)
1000018c:	1085883a 	add	r2,r2,r2
10000190:	e0bffc15 	stw	r2,-16(fp)
      i++;
10000194:	e0bffd17 	ldw	r2,-12(fp)
10000198:	10800044 	addi	r2,r2,1
1000019c:	e0bffd15 	stw	r2,-12(fp)

    } while (1);
100001a0:	003fde06 	br	1000011c <__alt_data_end+0xf800011c>
  /*
   * Notify the operating system that interrupt processing is complete.
   */ 

  ALT_OS_INT_EXIT();
}
100001a4:	e037883a 	mov	sp,fp
100001a8:	dfc00117 	ldw	ra,4(sp)
100001ac:	df000017 	ldw	fp,0(sp)
100001b0:	dec00204 	addi	sp,sp,8
100001b4:	f800283a 	ret

Disassembly of section .text:

100001b8 <_start>:

    /*
     * Now that the caches are initialized, set up the stack pointer and global pointer.
     * The values provided by the linker are assumed to be correctly aligned.
     */
    movhi sp, %hi(__alt_stack_pointer)
100001b8:	06c60034 	movhi	sp,6144
    ori sp, sp, %lo(__alt_stack_pointer)
100001bc:	dec00014 	ori	sp,sp,0
    movhi gp, %hi(_gp)
100001c0:	06840074 	movhi	gp,4097
    ori gp, gp, %lo(_gp)
100001c4:	d6a15a14 	ori	gp,gp,34152
 */
#ifndef ALT_SIM_OPTIMIZE
    /* Log that the BSS is about to be cleared. */
    ALT_LOG_PUTS(alt_log_msg_bss)

    movhi r2, %hi(__bss_start)
100001c8:	00840074 	movhi	r2,4097
    ori r2, r2, %lo(__bss_start)
100001cc:	1087ff14 	ori	r2,r2,8188

    movhi r3, %hi(__bss_end)
100001d0:	00c40074 	movhi	r3,4097
    ori r3, r3, %lo(__bss_end)
100001d4:	18c8bb14 	ori	r3,r3,8940

    beq r2, r3, 1f
100001d8:	10c00326 	beq	r2,r3,100001e8 <_start+0x30>

0:
    stw zero, (r2)
100001dc:	10000015 	stw	zero,0(r2)
    addi r2, r2, 4
100001e0:	10800104 	addi	r2,r2,4
    bltu r2, r3, 0b
100001e4:	10fffd36 	bltu	r2,r3,100001dc <__alt_data_end+0xf80001dc>
     * section aren't defined until alt_load() has been called).
     */
    mov   et, zero
#endif

    call alt_load
100001e8:	000bc240 	call	1000bc24 <alt_load>

    /* Log that alt_main is about to be called. */
    ALT_LOG_PUTS(alt_log_msg_alt_main)

    /* Call the C entry point. It should never return. */
    call alt_main
100001ec:	000bdc80 	call	1000bdc8 <alt_main>

100001f0 <alt_after_alt_main>:

    /* Wait in infinite loop in case alt_main does return. */
alt_after_alt_main:
    br alt_after_alt_main
100001f0:	003fff06 	br	100001f0 <__alt_data_end+0xf80001f0>

100001f4 <IO_init>:
#define otg_hpi_cs			(volatile char*)	OTG_HPI_CS_BASE //FOR SOME REASON CS BASE BEHAVES WEIRDLY MIGHT HAVE TO SET MANUALLY
#define otg_hpi_w			(volatile char*)	OTG_HPI_W_BASE


void IO_init(void)
{
100001f4:	deffff04 	addi	sp,sp,-4
100001f8:	df000015 	stw	fp,0(sp)
100001fc:	d839883a 	mov	fp,sp
	*otg_hpi_cs = 1;
10000200:	00801804 	movi	r2,96
10000204:	00c00044 	movi	r3,1
10000208:	10c00005 	stb	r3,0(r2)
	*otg_hpi_r = 1;
1000020c:	00800c04 	movi	r2,48
10000210:	00c00044 	movi	r3,1
10000214:	10c00005 	stb	r3,0(r2)
	*otg_hpi_w = 1;
10000218:	00800804 	movi	r2,32
1000021c:	00c00044 	movi	r3,1
10000220:	10c00005 	stb	r3,0(r2)
	*otg_hpi_address = 0;
10000224:	00801404 	movi	r2,80
10000228:	10000015 	stw	zero,0(r2)
	*otg_hpi_data = 0;
1000022c:	00801004 	movi	r2,64
10000230:	10000015 	stw	zero,0(r2)
}
10000234:	e037883a 	mov	sp,fp
10000238:	df000017 	ldw	fp,0(sp)
1000023c:	dec00104 	addi	sp,sp,4
10000240:	f800283a 	ret

10000244 <IO_write>:

void IO_write(alt_u8 Address, alt_u16 Data)
{
10000244:	defffd04 	addi	sp,sp,-12
10000248:	df000215 	stw	fp,8(sp)
1000024c:	df000204 	addi	fp,sp,8
10000250:	2007883a 	mov	r3,r4
10000254:	2805883a 	mov	r2,r5
10000258:	e0fffe05 	stb	r3,-8(fp)
1000025c:	e0bfff0d 	sth	r2,-4(fp)
//									TASK								   //
//*************************************************************************//
//							Write this function							   //
//*************************************************************************//

		*otg_hpi_address = Address; //initialize hpi so it can be written
10000260:	00801404 	movi	r2,80
10000264:	e0fffe03 	ldbu	r3,-8(fp)
10000268:	10c00015 	stw	r3,0(r2)
		*otg_hpi_data = Data;
1000026c:	00801004 	movi	r2,64
10000270:	e0ffff0b 	ldhu	r3,-4(fp)
10000274:	10c00015 	stw	r3,0(r2)
	*otg_hpi_cs=0; //chip select needs to be on
10000278:	00801804 	movi	r2,96
1000027c:	10000005 	stb	zero,0(r2)
	*otg_hpi_w = 0; //turn on write
10000280:	00800804 	movi	r2,32
10000284:	10000005 	stb	zero,0(r2)
	*otg_hpi_w = 1; //turn off write
10000288:	00800804 	movi	r2,32
1000028c:	00c00044 	movi	r3,1
10000290:	10c00005 	stb	r3,0(r2)
	*otg_hpi_cs=1; //chip select needs to be off
10000294:	00801804 	movi	r2,96
10000298:	00c00044 	movi	r3,1
1000029c:	10c00005 	stb	r3,0(r2)
}
100002a0:	e037883a 	mov	sp,fp
100002a4:	df000017 	ldw	fp,0(sp)
100002a8:	dec00104 	addi	sp,sp,4
100002ac:	f800283a 	ret

100002b0 <IO_read>:

alt_u16 IO_read(alt_u8 Address)
{
100002b0:	defffd04 	addi	sp,sp,-12
100002b4:	df000215 	stw	fp,8(sp)
100002b8:	df000204 	addi	fp,sp,8
100002bc:	2005883a 	mov	r2,r4
100002c0:	e0bfff05 	stb	r2,-4(fp)
//*************************************************************************//
//									TASK								   //
//*************************************************************************//
//							Write this function							   //
//*************************************************************************//
	*otg_hpi_address = Address;
100002c4:	00801404 	movi	r2,80
100002c8:	e0ffff03 	ldbu	r3,-4(fp)
100002cc:	10c00015 	stw	r3,0(r2)

	*otg_hpi_cs=0; //chip select needs to be on
100002d0:	00801804 	movi	r2,96
100002d4:	10000005 	stb	zero,0(r2)
	*otg_hpi_r = 0; //allow read
100002d8:	00800c04 	movi	r2,48
100002dc:	10000005 	stb	zero,0(r2)
		temp = *otg_hpi_data; //get data
100002e0:	00801004 	movi	r2,64
100002e4:	10800017 	ldw	r2,0(r2)
100002e8:	e0bffe0d 	sth	r2,-8(fp)
	*otg_hpi_r = 1; //allow read
100002ec:	00800c04 	movi	r2,48
100002f0:	00c00044 	movi	r3,1
100002f4:	10c00005 	stb	r3,0(r2)
	*otg_hpi_cs=1; //allow cs
100002f8:	00801804 	movi	r2,96
100002fc:	00c00044 	movi	r3,1
10000300:	10c00005 	stb	r3,0(r2)
//	printf("%x\n",temp);
	return temp;
10000304:	e0bffe0b 	ldhu	r2,-8(fp)
}
10000308:	e037883a 	mov	sp,fp
1000030c:	df000017 	ldw	fp,0(sp)
10000310:	dec00104 	addi	sp,sp,4
10000314:	f800283a 	ret

10000318 <main>:
//
//                                Main function
//
//----------------------------------------------------------------------------------------//
int main(void)
{
10000318:	defff904 	addi	sp,sp,-28
1000031c:	dfc00615 	stw	ra,24(sp)
10000320:	df000515 	stw	fp,20(sp)
10000324:	df000504 	addi	fp,sp,20
	IO_init();
10000328:	00001f40 	call	100001f4 <IO_init>

	alt_u16 intStat;
	alt_u16 usb_ctl_val;
	static alt_u16 ctl_reg = 0;
	static alt_u16 no_device = 0;
	alt_u16 fs_device = 0;
1000032c:	e03ffc0d 	sth	zero,-16(fp)
	int keycode = 0;
10000330:	e03ffd15 	stw	zero,-12(fp)
	alt_u8 toggle = 0;
10000334:	e03ffb85 	stb	zero,-18(fp)
	alt_u8 data_size;
	alt_u8 hot_plug_count;
	alt_u16 code;

	printf("USB keyboard setup...\n\n");
10000338:	01040074 	movhi	r4,4097
1000033c:	21382b04 	addi	r4,r4,-8020
10000340:	000227c0 	call	1000227c <puts>
10000344:	00000306 	br	10000354 <main+0x3c>
			printf("[INFO]: please insert a USB keyboard in SIE1!\n");
			while (!(usb_ctl_val & no_device))
			{
				usb_ctl_val = UsbRead(ctl_reg);
				if(usb_ctl_val & no_device)
					goto USB_HOT_PLUG;
10000348:	0001883a 	nop
1000034c:	00000106 	br	10000354 <main+0x3c>
			usleep(5*1000);
			usb_ctl_val = UsbRead(ctl_reg);
			usleep(5*1000);

			if(usb_ctl_val & no_device)
				goto USB_HOT_PLUG;
10000350:	0001883a 	nop

	printf("USB keyboard setup...\n\n");

	//----------------------------------------SIE1 initial---------------------------------------------------//
	USB_HOT_PLUG:
	UsbSoftReset();
10000354:	00010e40 	call	100010e4 <UsbSoftReset>
//		printf("why you always lying");
	// STEP 1a:
	UsbWrite (HPI_SIE1_MSG_ADR, 0);
10000358:	01005104 	movi	r4,324
1000035c:	000b883a 	mov	r5,zero
10000360:	000104c0 	call	1000104c <UsbWrite>
	UsbWrite (HOST1_STAT_REG, 0xFFFF);
10000364:	01302414 	movui	r4,49296
10000368:	017fffd4 	movui	r5,65535
1000036c:	000104c0 	call	1000104c <UsbWrite>

	/* Set HUSB_pEOT time */
	UsbWrite(HUSB_pEOT, 600); // adjust the according to your USB device speed
10000370:	01006d04 	movi	r4,436
10000374:	01409604 	movi	r5,600
10000378:	000104c0 	call	1000104c <UsbWrite>

	usb_ctl_val = SOFEOP1_TO_CPU_EN | RESUME1_TO_HPI_EN;// | SOFEOP1_TO_HPI_EN;
1000037c:	00811004 	movi	r2,1088
10000380:	e0bffb0d 	sth	r2,-20(fp)
	UsbWrite(HPI_IRQ_ROUTING_REG, usb_ctl_val);
10000384:	e0bffb0b 	ldhu	r2,-20(fp)
10000388:	01005084 	movi	r4,322
1000038c:	100b883a 	mov	r5,r2
10000390:	000104c0 	call	1000104c <UsbWrite>

	intStat = A_CHG_IRQ_EN | SOF_EOP_IRQ_EN ;
10000394:	00808404 	movi	r2,528
10000398:	e0bffe0d 	sth	r2,-8(fp)
	UsbWrite(HOST1_IRQ_EN_REG, intStat);
1000039c:	e0bffe0b 	ldhu	r2,-8(fp)
100003a0:	01302314 	movui	r4,49292
100003a4:	100b883a 	mov	r5,r2
100003a8:	000104c0 	call	1000104c <UsbWrite>
	// STEP 1a end
//	printf("why you always lying2");
	// STEP 1b begin
	UsbWrite(COMM_R0,0x0000);//reset time
100003ac:	01007104 	movi	r4,452
100003b0:	000b883a 	mov	r5,zero
100003b4:	000104c0 	call	1000104c <UsbWrite>
	UsbWrite(COMM_R1,0x0000);  //port number
100003b8:	01007184 	movi	r4,454
100003bc:	000b883a 	mov	r5,zero
100003c0:	000104c0 	call	1000104c <UsbWrite>
	UsbWrite(COMM_R2,0x0000);  //r1
100003c4:	01007204 	movi	r4,456
100003c8:	000b883a 	mov	r5,zero
100003cc:	000104c0 	call	1000104c <UsbWrite>
	UsbWrite(COMM_R3,0x0000);  //r1
100003d0:	01007284 	movi	r4,458
100003d4:	000b883a 	mov	r5,zero
100003d8:	000104c0 	call	1000104c <UsbWrite>
	UsbWrite(COMM_R4,0x0000);  //r1
100003dc:	01007304 	movi	r4,460
100003e0:	000b883a 	mov	r5,zero
100003e4:	000104c0 	call	1000104c <UsbWrite>
	UsbWrite(COMM_R5,0x0000);  //r1
100003e8:	01007384 	movi	r4,462
100003ec:	000b883a 	mov	r5,zero
100003f0:	000104c0 	call	1000104c <UsbWrite>
	UsbWrite(COMM_R6,0x0000);  //r1
100003f4:	01007404 	movi	r4,464
100003f8:	000b883a 	mov	r5,zero
100003fc:	000104c0 	call	1000104c <UsbWrite>
	UsbWrite(COMM_R7,0x0000);  //r1
10000400:	01007484 	movi	r4,466
10000404:	000b883a 	mov	r5,zero
10000408:	000104c0 	call	1000104c <UsbWrite>
	UsbWrite(COMM_R8,0x0000);  //r1
1000040c:	01007504 	movi	r4,468
10000410:	000b883a 	mov	r5,zero
10000414:	000104c0 	call	1000104c <UsbWrite>
	UsbWrite(COMM_R9,0x0000);  //r1
10000418:	01007584 	movi	r4,470
1000041c:	000b883a 	mov	r5,zero
10000420:	000104c0 	call	1000104c <UsbWrite>
	UsbWrite(COMM_R10,0x0000);  //r1
10000424:	01007604 	movi	r4,472
10000428:	000b883a 	mov	r5,zero
1000042c:	000104c0 	call	1000104c <UsbWrite>
	UsbWrite(COMM_R11,0x0000);  //r1
10000430:	01007684 	movi	r4,474
10000434:	000b883a 	mov	r5,zero
10000438:	000104c0 	call	1000104c <UsbWrite>
	UsbWrite(COMM_R12,0x0000);  //r1
1000043c:	01007704 	movi	r4,476
10000440:	000b883a 	mov	r5,zero
10000444:	000104c0 	call	1000104c <UsbWrite>
	UsbWrite(COMM_R13,0x0000);  //r1
10000448:	01007784 	movi	r4,478
1000044c:	000b883a 	mov	r5,zero
10000450:	000104c0 	call	1000104c <UsbWrite>
	UsbWrite(COMM_INT_NUM,HUSB_SIE1_INIT_INT); //HUSB_SIE1_INIT_INT
10000454:	01007084 	movi	r4,450
10000458:	01401c84 	movi	r5,114
1000045c:	000104c0 	call	1000104c <UsbWrite>
	IO_write(HPI_MAILBOX,COMM_EXEC_INT);
10000460:	01000044 	movi	r4,1
10000464:	01738054 	movui	r5,52737
10000468:	00002440 	call	10000244 <IO_write>

	while (!(IO_read(HPI_STATUS) & 0xFFFF) )  //read sie1 msg register
1000046c:	0001883a 	nop
10000470:	010000c4 	movi	r4,3
10000474:	00002b00 	call	100002b0 <IO_read>
10000478:	10bfffcc 	andi	r2,r2,65535
1000047c:	103ffc26 	beq	r2,zero,10000470 <__alt_data_end+0xf8000470>
	{
	}
//	printf("why you always lying3");
	while (IO_read(HPI_MAILBOX) != COMM_ACK)
10000480:	00000806 	br	100004a4 <main+0x18c>
	{
		printf("[ERROR]:routine mailbox data is %x\n",IO_read(HPI_MAILBOX));
10000484:	01000044 	movi	r4,1
10000488:	00002b00 	call	100002b0 <IO_read>
1000048c:	10bfffcc 	andi	r2,r2,65535
10000490:	01040074 	movhi	r4,4097
10000494:	21383104 	addi	r4,r4,-7996
10000498:	100b883a 	mov	r5,r2
1000049c:	00021bc0 	call	100021bc <printf>
		goto USB_HOT_PLUG;
100004a0:	003fac06 	br	10000354 <__alt_data_end+0xf8000354>

	while (!(IO_read(HPI_STATUS) & 0xFFFF) )  //read sie1 msg register
	{
	}
//	printf("why you always lying3");
	while (IO_read(HPI_MAILBOX) != COMM_ACK)
100004a4:	01000044 	movi	r4,1
100004a8:	00002b00 	call	100002b0 <IO_read>
100004ac:	10bfffcc 	andi	r2,r2,65535
100004b0:	1083fb58 	cmpnei	r2,r2,4077
100004b4:	103ff31e 	bne	r2,zero,10000484 <__alt_data_end+0xf8000484>
		goto USB_HOT_PLUG;
	}
//	printf("why you always lying4");
	// STEP 1b end

	printf("STEP 1 Complete");
100004b8:	01040074 	movhi	r4,4097
100004bc:	21383a04 	addi	r4,r4,-7960
100004c0:	00021bc0 	call	100021bc <printf>
	// STEP 2 begin
	UsbWrite(COMM_INT_NUM,HUSB_RESET_INT); //husb reset
100004c4:	01007084 	movi	r4,450
100004c8:	01401d04 	movi	r5,116
100004cc:	000104c0 	call	1000104c <UsbWrite>
	UsbWrite(COMM_R0,0x003c);//reset time
100004d0:	01007104 	movi	r4,452
100004d4:	01400f04 	movi	r5,60
100004d8:	000104c0 	call	1000104c <UsbWrite>
	UsbWrite(COMM_R1,0x0000);  //port number
100004dc:	01007184 	movi	r4,454
100004e0:	000b883a 	mov	r5,zero
100004e4:	000104c0 	call	1000104c <UsbWrite>
	UsbWrite(COMM_R2,0x0000);  //r1
100004e8:	01007204 	movi	r4,456
100004ec:	000b883a 	mov	r5,zero
100004f0:	000104c0 	call	1000104c <UsbWrite>
	UsbWrite(COMM_R3,0x0000);  //r1
100004f4:	01007284 	movi	r4,458
100004f8:	000b883a 	mov	r5,zero
100004fc:	000104c0 	call	1000104c <UsbWrite>
	UsbWrite(COMM_R4,0x0000);  //r1
10000500:	01007304 	movi	r4,460
10000504:	000b883a 	mov	r5,zero
10000508:	000104c0 	call	1000104c <UsbWrite>
	UsbWrite(COMM_R5,0x0000);  //r1
1000050c:	01007384 	movi	r4,462
10000510:	000b883a 	mov	r5,zero
10000514:	000104c0 	call	1000104c <UsbWrite>
	UsbWrite(COMM_R6,0x0000);  //r1
10000518:	01007404 	movi	r4,464
1000051c:	000b883a 	mov	r5,zero
10000520:	000104c0 	call	1000104c <UsbWrite>
	UsbWrite(COMM_R7,0x0000);  //r1
10000524:	01007484 	movi	r4,466
10000528:	000b883a 	mov	r5,zero
1000052c:	000104c0 	call	1000104c <UsbWrite>
	UsbWrite(COMM_R8,0x0000);  //r1
10000530:	01007504 	movi	r4,468
10000534:	000b883a 	mov	r5,zero
10000538:	000104c0 	call	1000104c <UsbWrite>
	UsbWrite(COMM_R9,0x0000);  //r1
1000053c:	01007584 	movi	r4,470
10000540:	000b883a 	mov	r5,zero
10000544:	000104c0 	call	1000104c <UsbWrite>
	UsbWrite(COMM_R10,0x0000);  //r1
10000548:	01007604 	movi	r4,472
1000054c:	000b883a 	mov	r5,zero
10000550:	000104c0 	call	1000104c <UsbWrite>
	UsbWrite(COMM_R11,0x0000);  //r1
10000554:	01007684 	movi	r4,474
10000558:	000b883a 	mov	r5,zero
1000055c:	000104c0 	call	1000104c <UsbWrite>
	UsbWrite(COMM_R12,0x0000);  //r1
10000560:	01007704 	movi	r4,476
10000564:	000b883a 	mov	r5,zero
10000568:	000104c0 	call	1000104c <UsbWrite>
	UsbWrite(COMM_R13,0x0000);  //r1
1000056c:	01007784 	movi	r4,478
10000570:	000b883a 	mov	r5,zero
10000574:	000104c0 	call	1000104c <UsbWrite>

	IO_write(HPI_MAILBOX,COMM_EXEC_INT);
10000578:	01000044 	movi	r4,1
1000057c:	01738054 	movui	r5,52737
10000580:	00002440 	call	10000244 <IO_write>

	while (IO_read(HPI_MAILBOX) != COMM_ACK)
10000584:	0001883a 	nop
10000588:	01000044 	movi	r4,1
1000058c:	00002b00 	call	100002b0 <IO_read>
10000590:	10bfffcc 	andi	r2,r2,65535
10000594:	1083fb58 	cmpnei	r2,r2,4077
10000598:	10000826 	beq	r2,zero,100005bc <main+0x2a4>
	{
		printf("[ERROR]:routine mailbox data is %x\n",IO_read(HPI_MAILBOX));
1000059c:	01000044 	movi	r4,1
100005a0:	00002b00 	call	100002b0 <IO_read>
100005a4:	10bfffcc 	andi	r2,r2,65535
100005a8:	01040074 	movhi	r4,4097
100005ac:	21383104 	addi	r4,r4,-7996
100005b0:	100b883a 	mov	r5,r2
100005b4:	00021bc0 	call	100021bc <printf>
		goto USB_HOT_PLUG;
100005b8:	003f6606 	br	10000354 <__alt_data_end+0xf8000354>
	}
	// STEP 2 end

	ctl_reg = USB1_CTL_REG;
100005bc:	00b02284 	movi	r2,-16246
100005c0:	d0a6a50d 	sth	r2,-25964(gp)
	no_device = (A_DP_STAT | A_DM_STAT);
100005c4:	008c0004 	movi	r2,12288
100005c8:	d0a6a58d 	sth	r2,-25962(gp)
	fs_device = A_DP_STAT;
100005cc:	00880004 	movi	r2,8192
100005d0:	e0bffc0d 	sth	r2,-16(fp)
	usb_ctl_val = UsbRead(ctl_reg);
100005d4:	d0a6a50b 	ldhu	r2,-25964(gp)
100005d8:	10bfffcc 	andi	r2,r2,65535
100005dc:	1009883a 	mov	r4,r2
100005e0:	00010a00 	call	100010a0 <UsbRead>
100005e4:	e0bffb0d 	sth	r2,-20(fp)

	if (!(usb_ctl_val & no_device))
100005e8:	d0a6a58b 	ldhu	r2,-25962(gp)
100005ec:	e0fffb0b 	ldhu	r3,-20(fp)
100005f0:	1884703a 	and	r2,r3,r2
100005f4:	10bfffcc 	andi	r2,r2,65535
100005f8:	1000341e 	bne	r2,zero,100006cc <main+0x3b4>
	{
		for(hot_plug_count = 0 ; hot_plug_count < 5 ; hot_plug_count++)
100005fc:	e03ffbc5 	stb	zero,-17(fp)
10000600:	00000f06 	br	10000640 <main+0x328>
		{
			usleep(5*1000);
10000604:	0104e204 	movi	r4,5000
10000608:	000c0f40 	call	1000c0f4 <usleep>
			usb_ctl_val = UsbRead(ctl_reg);
1000060c:	d0a6a50b 	ldhu	r2,-25964(gp)
10000610:	10bfffcc 	andi	r2,r2,65535
10000614:	1009883a 	mov	r4,r2
10000618:	00010a00 	call	100010a0 <UsbRead>
1000061c:	e0bffb0d 	sth	r2,-20(fp)
			if(usb_ctl_val & no_device) break;
10000620:	d0a6a58b 	ldhu	r2,-25962(gp)
10000624:	e0fffb0b 	ldhu	r3,-20(fp)
10000628:	1884703a 	and	r2,r3,r2
1000062c:	10bfffcc 	andi	r2,r2,65535
10000630:	1000071e 	bne	r2,zero,10000650 <main+0x338>
	fs_device = A_DP_STAT;
	usb_ctl_val = UsbRead(ctl_reg);

	if (!(usb_ctl_val & no_device))
	{
		for(hot_plug_count = 0 ; hot_plug_count < 5 ; hot_plug_count++)
10000634:	e0bffbc3 	ldbu	r2,-17(fp)
10000638:	10800044 	addi	r2,r2,1
1000063c:	e0bffbc5 	stb	r2,-17(fp)
10000640:	e0bffbc3 	ldbu	r2,-17(fp)
10000644:	10800170 	cmpltui	r2,r2,5
10000648:	103fee1e 	bne	r2,zero,10000604 <__alt_data_end+0xf8000604>
1000064c:	00000106 	br	10000654 <main+0x33c>
		{
			usleep(5*1000);
			usb_ctl_val = UsbRead(ctl_reg);
			if(usb_ctl_val & no_device) break;
10000650:	0001883a 	nop
		}
		if(!(usb_ctl_val & no_device))
10000654:	d0a6a58b 	ldhu	r2,-25962(gp)
10000658:	e0fffb0b 	ldhu	r3,-20(fp)
1000065c:	1884703a 	and	r2,r3,r2
10000660:	10bfffcc 	andi	r2,r2,65535
10000664:	1000251e 	bne	r2,zero,100006fc <main+0x3e4>
		{
			printf("\n[INFO]: no device is present in SIE1!\n");
10000668:	01040074 	movhi	r4,4097
1000066c:	21383e04 	addi	r4,r4,-7944
10000670:	000227c0 	call	1000227c <puts>
			printf("[INFO]: please insert a USB keyboard in SIE1!\n");
10000674:	01040074 	movhi	r4,4097
10000678:	21384804 	addi	r4,r4,-7904
1000067c:	000227c0 	call	1000227c <puts>
			while (!(usb_ctl_val & no_device))
10000680:	00000c06 	br	100006b4 <main+0x39c>
			{
				usb_ctl_val = UsbRead(ctl_reg);
10000684:	d0a6a50b 	ldhu	r2,-25964(gp)
10000688:	10bfffcc 	andi	r2,r2,65535
1000068c:	1009883a 	mov	r4,r2
10000690:	00010a00 	call	100010a0 <UsbRead>
10000694:	e0bffb0d 	sth	r2,-20(fp)
				if(usb_ctl_val & no_device)
10000698:	d0a6a58b 	ldhu	r2,-25962(gp)
1000069c:	e0fffb0b 	ldhu	r3,-20(fp)
100006a0:	1884703a 	and	r2,r3,r2
100006a4:	10bfffcc 	andi	r2,r2,65535
100006a8:	103f271e 	bne	r2,zero,10000348 <__alt_data_end+0xf8000348>
					goto USB_HOT_PLUG;

				usleep(2000);
100006ac:	0101f404 	movi	r4,2000
100006b0:	000c0f40 	call	1000c0f4 <usleep>
		}
		if(!(usb_ctl_val & no_device))
		{
			printf("\n[INFO]: no device is present in SIE1!\n");
			printf("[INFO]: please insert a USB keyboard in SIE1!\n");
			while (!(usb_ctl_val & no_device))
100006b4:	d0a6a58b 	ldhu	r2,-25962(gp)
100006b8:	e0fffb0b 	ldhu	r3,-20(fp)
100006bc:	1884703a 	and	r2,r3,r2
100006c0:	10bfffcc 	andi	r2,r2,65535
100006c4:	103fef26 	beq	r2,zero,10000684 <__alt_data_end+0xf8000684>
100006c8:	00000c06 	br	100006fc <main+0x3e4>
		}
	}
	else
	{
		/* check for low speed or full speed by reading D+ and D- lines */
		if (usb_ctl_val & fs_device)
100006cc:	e0fffb0b 	ldhu	r3,-20(fp)
100006d0:	e0bffc0b 	ldhu	r2,-16(fp)
100006d4:	1884703a 	and	r2,r3,r2
100006d8:	10bfffcc 	andi	r2,r2,65535
100006dc:	10000426 	beq	r2,zero,100006f0 <main+0x3d8>
		{
			printf("[INFO]: full speed device\n");
100006e0:	01040074 	movhi	r4,4097
100006e4:	21385404 	addi	r4,r4,-7856
100006e8:	000227c0 	call	1000227c <puts>
100006ec:	00000306 	br	100006fc <main+0x3e4>
		}
		else
		{
			printf("[INFO]: low speed device\n");
100006f0:	01040074 	movhi	r4,4097
100006f4:	21385b04 	addi	r4,r4,-7828
100006f8:	000227c0 	call	1000227c <puts>



	// STEP 3 begin
	//------------------------------------------------------set address -----------------------------------------------------------------
	UsbSetAddress();
100006fc:	00011940 	call	10001194 <UsbSetAddress>

	while (!(IO_read(HPI_STATUS) & HPI_STATUS_SIE1msg_FLAG) )  //read sie1 msg register
10000700:	00000306 	br	10000710 <main+0x3f8>
	{
		UsbSetAddress();
10000704:	00011940 	call	10001194 <UsbSetAddress>
		usleep(10*1000);
10000708:	0109c404 	movi	r4,10000
1000070c:	000c0f40 	call	1000c0f4 <usleep>

	// STEP 3 begin
	//------------------------------------------------------set address -----------------------------------------------------------------
	UsbSetAddress();

	while (!(IO_read(HPI_STATUS) & HPI_STATUS_SIE1msg_FLAG) )  //read sie1 msg register
10000710:	010000c4 	movi	r4,3
10000714:	00002b00 	call	100002b0 <IO_read>
10000718:	10bfffcc 	andi	r2,r2,65535
1000071c:	1080040c 	andi	r2,r2,16
10000720:	103ff826 	beq	r2,zero,10000704 <__alt_data_end+0xf8000704>
	{
		UsbSetAddress();
		usleep(10*1000);
	}

	UsbWaitTDListDone();
10000724:	00020100 	call	10002010 <UsbWaitTDListDone>

	IO_write(HPI_ADDR,0x0506); // i
10000728:	01000084 	movi	r4,2
1000072c:	01414184 	movi	r5,1286
10000730:	00002440 	call	10000244 <IO_write>
	printf("[ENUM PROCESS]:step 3 TD Status Byte is %x\n",IO_read(HPI_DATA));
10000734:	0009883a 	mov	r4,zero
10000738:	00002b00 	call	100002b0 <IO_read>
1000073c:	10bfffcc 	andi	r2,r2,65535
10000740:	01040074 	movhi	r4,4097
10000744:	21386204 	addi	r4,r4,-7800
10000748:	100b883a 	mov	r5,r2
1000074c:	00021bc0 	call	100021bc <printf>

	IO_write(HPI_ADDR,0x0508); // n
10000750:	01000084 	movi	r4,2
10000754:	01414204 	movi	r5,1288
10000758:	00002440 	call	10000244 <IO_write>
	usb_ctl_val = IO_read(HPI_DATA);
1000075c:	0009883a 	mov	r4,zero
10000760:	00002b00 	call	100002b0 <IO_read>
10000764:	e0bffb0d 	sth	r2,-20(fp)
	printf("[ENUM PROCESS]:step 3 TD Control Byte is %x\n",usb_ctl_val);
10000768:	e0bffb0b 	ldhu	r2,-20(fp)
1000076c:	01040074 	movhi	r4,4097
10000770:	21386d04 	addi	r4,r4,-7756
10000774:	100b883a 	mov	r5,r2
10000778:	00021bc0 	call	100021bc <printf>
	while (usb_ctl_val != 0x03) // retries occurred
1000077c:	e0bffb0b 	ldhu	r2,-20(fp)
10000780:	108000e0 	cmpeqi	r2,r2,3
10000784:	1000031e 	bne	r2,zero,10000794 <main+0x47c>
	{
		usb_ctl_val = UsbGetRetryCnt();
10000788:	00020940 	call	10002094 <UsbGetRetryCnt>
1000078c:	e0bffb0d 	sth	r2,-20(fp)

		goto USB_HOT_PLUG;
10000790:	003ef006 	br	10000354 <__alt_data_end+0xf8000354>
	}

	printf("------------[ENUM PROCESS]:set address done!---------------\n");
10000794:	01040074 	movhi	r4,4097
10000798:	21387904 	addi	r4,r4,-7708
1000079c:	000227c0 	call	1000227c <puts>

	// STEP 4 begin
	//-------------------------------get device descriptor-1 -----------------------------------//
	// TASK: Call the appropriate function for this step.
	UsbGetDeviceDesc1(); 	// Get Device Descriptor -1
100007a0:	00012900 	call	10001290 <UsbGetDeviceDesc1>

	//usleep(10*1000);
	while (!(IO_read(HPI_STATUS) & HPI_STATUS_SIE1msg_FLAG) )  //read sie1 msg register
100007a4:	00000306 	br	100007b4 <main+0x49c>
	{
		// TASK: Call the appropriate function again if it wasn't processed successfully.
		UsbGetDeviceDesc1();
100007a8:	00012900 	call	10001290 <UsbGetDeviceDesc1>
		usleep(10*1000);
100007ac:	0109c404 	movi	r4,10000
100007b0:	000c0f40 	call	1000c0f4 <usleep>
	//-------------------------------get device descriptor-1 -----------------------------------//
	// TASK: Call the appropriate function for this step.
	UsbGetDeviceDesc1(); 	// Get Device Descriptor -1

	//usleep(10*1000);
	while (!(IO_read(HPI_STATUS) & HPI_STATUS_SIE1msg_FLAG) )  //read sie1 msg register
100007b4:	010000c4 	movi	r4,3
100007b8:	00002b00 	call	100002b0 <IO_read>
100007bc:	10bfffcc 	andi	r2,r2,65535
100007c0:	1080040c 	andi	r2,r2,16
100007c4:	103ff826 	beq	r2,zero,100007a8 <__alt_data_end+0xf80007a8>
		// TASK: Call the appropriate function again if it wasn't processed successfully.
		UsbGetDeviceDesc1();
		usleep(10*1000);
	}

	UsbWaitTDListDone();
100007c8:	00020100 	call	10002010 <UsbWaitTDListDone>

	IO_write(HPI_ADDR,0x0506);
100007cc:	01000084 	movi	r4,2
100007d0:	01414184 	movi	r5,1286
100007d4:	00002440 	call	10000244 <IO_write>
	printf("[ENUM PROCESS]:step 4 TD Status Byte is %x\n",IO_read(HPI_DATA));
100007d8:	0009883a 	mov	r4,zero
100007dc:	00002b00 	call	100002b0 <IO_read>
100007e0:	10bfffcc 	andi	r2,r2,65535
100007e4:	01040074 	movhi	r4,4097
100007e8:	21388804 	addi	r4,r4,-7648
100007ec:	100b883a 	mov	r5,r2
100007f0:	00021bc0 	call	100021bc <printf>

	IO_write(HPI_ADDR,0x0508);
100007f4:	01000084 	movi	r4,2
100007f8:	01414204 	movi	r5,1288
100007fc:	00002440 	call	10000244 <IO_write>
	usb_ctl_val = IO_read(HPI_DATA);
10000800:	0009883a 	mov	r4,zero
10000804:	00002b00 	call	100002b0 <IO_read>
10000808:	e0bffb0d 	sth	r2,-20(fp)
	printf("[ENUM PROCESS]:step 4 TD Control Byte is %x\n",usb_ctl_val);
1000080c:	e0bffb0b 	ldhu	r2,-20(fp)
10000810:	01040074 	movhi	r4,4097
10000814:	21389304 	addi	r4,r4,-7604
10000818:	100b883a 	mov	r5,r2
1000081c:	00021bc0 	call	100021bc <printf>
	while (usb_ctl_val != 0x03)
10000820:	00000206 	br	1000082c <main+0x514>
	{
		usb_ctl_val = UsbGetRetryCnt();
10000824:	00020940 	call	10002094 <UsbGetRetryCnt>
10000828:	e0bffb0d 	sth	r2,-20(fp)
	printf("[ENUM PROCESS]:step 4 TD Status Byte is %x\n",IO_read(HPI_DATA));

	IO_write(HPI_ADDR,0x0508);
	usb_ctl_val = IO_read(HPI_DATA);
	printf("[ENUM PROCESS]:step 4 TD Control Byte is %x\n",usb_ctl_val);
	while (usb_ctl_val != 0x03)
1000082c:	e0bffb0b 	ldhu	r2,-20(fp)
10000830:	108000d8 	cmpnei	r2,r2,3
10000834:	103ffb1e 	bne	r2,zero,10000824 <__alt_data_end+0xf8000824>
	{
		usb_ctl_val = UsbGetRetryCnt();
	}

	printf("---------------[ENUM PROCESS]:get device descriptor-1 done!-----------------\n");
10000838:	01040074 	movhi	r4,4097
1000083c:	21389f04 	addi	r4,r4,-7556
10000840:	000227c0 	call	1000227c <puts>


	//--------------------------------get device descriptor-2---------------------------------------------//
	//get device descriptor
	// TASK: Call the appropriate function for this step.
	UsbGetDeviceDesc2(); 	// Get Device Descriptor -2
10000844:	00013d40 	call	100013d4 <UsbGetDeviceDesc2>

	//if no message
	while (!(IO_read(HPI_STATUS) & HPI_STATUS_SIE1msg_FLAG) )  //read sie1 msg register
10000848:	00000306 	br	10000858 <main+0x540>
	{
		//resend the get device descriptor
		//get device descriptor
		// TASK: Call the appropriate function again if it wasn't processed successfully.
		UsbGetDeviceDesc2();
1000084c:	00013d40 	call	100013d4 <UsbGetDeviceDesc2>
		usleep(10*1000);
10000850:	0109c404 	movi	r4,10000
10000854:	000c0f40 	call	1000c0f4 <usleep>
	//get device descriptor
	// TASK: Call the appropriate function for this step.
	UsbGetDeviceDesc2(); 	// Get Device Descriptor -2

	//if no message
	while (!(IO_read(HPI_STATUS) & HPI_STATUS_SIE1msg_FLAG) )  //read sie1 msg register
10000858:	010000c4 	movi	r4,3
1000085c:	00002b00 	call	100002b0 <IO_read>
10000860:	10bfffcc 	andi	r2,r2,65535
10000864:	1080040c 	andi	r2,r2,16
10000868:	103ff826 	beq	r2,zero,1000084c <__alt_data_end+0xf800084c>
		// TASK: Call the appropriate function again if it wasn't processed successfully.
		UsbGetDeviceDesc2();
		usleep(10*1000);
	}

	UsbWaitTDListDone();
1000086c:	00020100 	call	10002010 <UsbWaitTDListDone>

	IO_write(HPI_ADDR,0x0506);
10000870:	01000084 	movi	r4,2
10000874:	01414184 	movi	r5,1286
10000878:	00002440 	call	10000244 <IO_write>
	printf("[ENUM PROCESS]:step 4 TD Status Byte is %x\n",IO_read(HPI_DATA));
1000087c:	0009883a 	mov	r4,zero
10000880:	00002b00 	call	100002b0 <IO_read>
10000884:	10bfffcc 	andi	r2,r2,65535
10000888:	01040074 	movhi	r4,4097
1000088c:	21388804 	addi	r4,r4,-7648
10000890:	100b883a 	mov	r5,r2
10000894:	00021bc0 	call	100021bc <printf>

	IO_write(HPI_ADDR,0x0508);
10000898:	01000084 	movi	r4,2
1000089c:	01414204 	movi	r5,1288
100008a0:	00002440 	call	10000244 <IO_write>
	usb_ctl_val = IO_read(HPI_DATA);
100008a4:	0009883a 	mov	r4,zero
100008a8:	00002b00 	call	100002b0 <IO_read>
100008ac:	e0bffb0d 	sth	r2,-20(fp)
	printf("[ENUM PROCESS]:step 4 TD Control Byte is %x\n",usb_ctl_val);
100008b0:	e0bffb0b 	ldhu	r2,-20(fp)
100008b4:	01040074 	movhi	r4,4097
100008b8:	21389304 	addi	r4,r4,-7604
100008bc:	100b883a 	mov	r5,r2
100008c0:	00021bc0 	call	100021bc <printf>
	while (usb_ctl_val != 0x03)
100008c4:	00000206 	br	100008d0 <main+0x5b8>
	{
		usb_ctl_val = UsbGetRetryCnt();
100008c8:	00020940 	call	10002094 <UsbGetRetryCnt>
100008cc:	e0bffb0d 	sth	r2,-20(fp)
	printf("[ENUM PROCESS]:step 4 TD Status Byte is %x\n",IO_read(HPI_DATA));

	IO_write(HPI_ADDR,0x0508);
	usb_ctl_val = IO_read(HPI_DATA);
	printf("[ENUM PROCESS]:step 4 TD Control Byte is %x\n",usb_ctl_val);
	while (usb_ctl_val != 0x03)
100008d0:	e0bffb0b 	ldhu	r2,-20(fp)
100008d4:	108000d8 	cmpnei	r2,r2,3
100008d8:	103ffb1e 	bne	r2,zero,100008c8 <__alt_data_end+0xf80008c8>
	{
		usb_ctl_val = UsbGetRetryCnt();
	}

	printf("------------[ENUM PROCESS]:get device descriptor-2 done!--------------\n");
100008dc:	01040074 	movhi	r4,4097
100008e0:	2138b304 	addi	r4,r4,-7476
100008e4:	000227c0 	call	1000227c <puts>


	// STEP 5 begin
	//-----------------------------------get configuration descriptor -1 ----------------------------------//
	// TASK: Call the appropriate function for this step.
	UsbGetConfigDesc1(); 	// Get Configuration Descriptor -1
100008e8:	00015a80 	call	100015a8 <UsbGetConfigDesc1>

	//if no message
	while (!(IO_read(HPI_STATUS) & HPI_STATUS_SIE1msg_FLAG) )  //read sie1 msg register
100008ec:	00000306 	br	100008fc <main+0x5e4>
	{
		//resend the get device descriptor
		//get device descriptor

		// TASK: Call the appropriate function again if it wasn't processed successfully.
		UsbGetConfigDesc1();
100008f0:	00015a80 	call	100015a8 <UsbGetConfigDesc1>
		usleep(10*1000);
100008f4:	0109c404 	movi	r4,10000
100008f8:	000c0f40 	call	1000c0f4 <usleep>
	//-----------------------------------get configuration descriptor -1 ----------------------------------//
	// TASK: Call the appropriate function for this step.
	UsbGetConfigDesc1(); 	// Get Configuration Descriptor -1

	//if no message
	while (!(IO_read(HPI_STATUS) & HPI_STATUS_SIE1msg_FLAG) )  //read sie1 msg register
100008fc:	010000c4 	movi	r4,3
10000900:	00002b00 	call	100002b0 <IO_read>
10000904:	10bfffcc 	andi	r2,r2,65535
10000908:	1080040c 	andi	r2,r2,16
1000090c:	103ff826 	beq	r2,zero,100008f0 <__alt_data_end+0xf80008f0>
		// TASK: Call the appropriate function again if it wasn't processed successfully.
		UsbGetConfigDesc1();
		usleep(10*1000);
	}

	UsbWaitTDListDone();
10000910:	00020100 	call	10002010 <UsbWaitTDListDone>

	IO_write(HPI_ADDR,0x0506);
10000914:	01000084 	movi	r4,2
10000918:	01414184 	movi	r5,1286
1000091c:	00002440 	call	10000244 <IO_write>
	printf("[ENUM PROCESS]:step 5 TD Status Byte is %x\n",IO_read(HPI_DATA));
10000920:	0009883a 	mov	r4,zero
10000924:	00002b00 	call	100002b0 <IO_read>
10000928:	10bfffcc 	andi	r2,r2,65535
1000092c:	01040074 	movhi	r4,4097
10000930:	2138c504 	addi	r4,r4,-7404
10000934:	100b883a 	mov	r5,r2
10000938:	00021bc0 	call	100021bc <printf>

	IO_write(HPI_ADDR,0x0508);
1000093c:	01000084 	movi	r4,2
10000940:	01414204 	movi	r5,1288
10000944:	00002440 	call	10000244 <IO_write>
	usb_ctl_val = IO_read(HPI_DATA);
10000948:	0009883a 	mov	r4,zero
1000094c:	00002b00 	call	100002b0 <IO_read>
10000950:	e0bffb0d 	sth	r2,-20(fp)
	printf("[ENUM PROCESS]:step 5 TD Control Byte is %x\n",usb_ctl_val);
10000954:	e0bffb0b 	ldhu	r2,-20(fp)
10000958:	01040074 	movhi	r4,4097
1000095c:	2138d004 	addi	r4,r4,-7360
10000960:	100b883a 	mov	r5,r2
10000964:	00021bc0 	call	100021bc <printf>
	while (usb_ctl_val != 0x03)
10000968:	00000206 	br	10000974 <main+0x65c>
	{
		usb_ctl_val = UsbGetRetryCnt();
1000096c:	00020940 	call	10002094 <UsbGetRetryCnt>
10000970:	e0bffb0d 	sth	r2,-20(fp)
	printf("[ENUM PROCESS]:step 5 TD Status Byte is %x\n",IO_read(HPI_DATA));

	IO_write(HPI_ADDR,0x0508);
	usb_ctl_val = IO_read(HPI_DATA);
	printf("[ENUM PROCESS]:step 5 TD Control Byte is %x\n",usb_ctl_val);
	while (usb_ctl_val != 0x03)
10000974:	e0bffb0b 	ldhu	r2,-20(fp)
10000978:	108000d8 	cmpnei	r2,r2,3
1000097c:	103ffb1e 	bne	r2,zero,1000096c <__alt_data_end+0xf800096c>
	{
		usb_ctl_val = UsbGetRetryCnt();
	}
	printf("------------[ENUM PROCESS]:get configuration descriptor-1 pass------------\n");
10000980:	01040074 	movhi	r4,4097
10000984:	2138dc04 	addi	r4,r4,-7312
10000988:	000227c0 	call	1000227c <puts>

	// STEP 6 begin
	//-----------------------------------get configuration descriptor-2------------------------------------//
	//get device descriptor
	// TASK: Call the appropriate function for this step.
	UsbGetConfigDesc2(); 	// Get Configuration Descriptor -2
1000098c:	00017340 	call	10001734 <UsbGetConfigDesc2>

	usleep(100*1000);
10000990:	010000b4 	movhi	r4,2
10000994:	2121a804 	addi	r4,r4,-31072
10000998:	000c0f40 	call	1000c0f4 <usleep>
	//if no message
	while (!(IO_read(HPI_STATUS) & HPI_STATUS_SIE1msg_FLAG) )  //read sie1 msg register
1000099c:	00000306 	br	100009ac <main+0x694>
	{
		// TASK: Call the appropriate function again if it wasn't processed successfully.
		UsbGetConfigDesc2();
100009a0:	00017340 	call	10001734 <UsbGetConfigDesc2>
		usleep(10*1000);
100009a4:	0109c404 	movi	r4,10000
100009a8:	000c0f40 	call	1000c0f4 <usleep>
	// TASK: Call the appropriate function for this step.
	UsbGetConfigDesc2(); 	// Get Configuration Descriptor -2

	usleep(100*1000);
	//if no message
	while (!(IO_read(HPI_STATUS) & HPI_STATUS_SIE1msg_FLAG) )  //read sie1 msg register
100009ac:	010000c4 	movi	r4,3
100009b0:	00002b00 	call	100002b0 <IO_read>
100009b4:	10bfffcc 	andi	r2,r2,65535
100009b8:	1080040c 	andi	r2,r2,16
100009bc:	103ff826 	beq	r2,zero,100009a0 <__alt_data_end+0xf80009a0>
		// TASK: Call the appropriate function again if it wasn't processed successfully.
		UsbGetConfigDesc2();
		usleep(10*1000);
	}

	UsbWaitTDListDone();
100009c0:	00020100 	call	10002010 <UsbWaitTDListDone>

	IO_write(HPI_ADDR,0x0506);
100009c4:	01000084 	movi	r4,2
100009c8:	01414184 	movi	r5,1286
100009cc:	00002440 	call	10000244 <IO_write>
	printf("[ENUM PROCESS]:step 6 TD Status Byte is %x\n",IO_read(HPI_DATA));
100009d0:	0009883a 	mov	r4,zero
100009d4:	00002b00 	call	100002b0 <IO_read>
100009d8:	10bfffcc 	andi	r2,r2,65535
100009dc:	01040074 	movhi	r4,4097
100009e0:	2138ef04 	addi	r4,r4,-7236
100009e4:	100b883a 	mov	r5,r2
100009e8:	00021bc0 	call	100021bc <printf>

	IO_write(HPI_ADDR,0x0508);
100009ec:	01000084 	movi	r4,2
100009f0:	01414204 	movi	r5,1288
100009f4:	00002440 	call	10000244 <IO_write>
	usb_ctl_val = IO_read(HPI_DATA);
100009f8:	0009883a 	mov	r4,zero
100009fc:	00002b00 	call	100002b0 <IO_read>
10000a00:	e0bffb0d 	sth	r2,-20(fp)
	printf("[ENUM PROCESS]:step 6 TD Control Byte is %x\n",usb_ctl_val);
10000a04:	e0bffb0b 	ldhu	r2,-20(fp)
10000a08:	01040074 	movhi	r4,4097
10000a0c:	2138fa04 	addi	r4,r4,-7192
10000a10:	100b883a 	mov	r5,r2
10000a14:	00021bc0 	call	100021bc <printf>
	while (usb_ctl_val != 0x03)
10000a18:	00000206 	br	10000a24 <main+0x70c>
	{
		usb_ctl_val = UsbGetRetryCnt();
10000a1c:	00020940 	call	10002094 <UsbGetRetryCnt>
10000a20:	e0bffb0d 	sth	r2,-20(fp)
	printf("[ENUM PROCESS]:step 6 TD Status Byte is %x\n",IO_read(HPI_DATA));

	IO_write(HPI_ADDR,0x0508);
	usb_ctl_val = IO_read(HPI_DATA);
	printf("[ENUM PROCESS]:step 6 TD Control Byte is %x\n",usb_ctl_val);
	while (usb_ctl_val != 0x03)
10000a24:	e0bffb0b 	ldhu	r2,-20(fp)
10000a28:	108000d8 	cmpnei	r2,r2,3
10000a2c:	103ffb1e 	bne	r2,zero,10000a1c <__alt_data_end+0xf8000a1c>
	{
		usb_ctl_val = UsbGetRetryCnt();
	}


	printf("-----------[ENUM PROCESS]:get configuration descriptor-2 done!------------\n");
10000a30:	01040074 	movhi	r4,4097
10000a34:	21390604 	addi	r4,r4,-7144
10000a38:	000227c0 	call	1000227c <puts>


	// ---------------------------------get device info---------------------------------------------//

	// TASK: Write the address to read from the memory for byte 7 of the interface descriptor to HPI_ADDR.
	IO_write(HPI_ADDR,0x056c);
10000a3c:	01000084 	movi	r4,2
10000a40:	01415b04 	movi	r5,1388
10000a44:	00002440 	call	10000244 <IO_write>
	code = IO_read(HPI_DATA);
10000a48:	0009883a 	mov	r4,zero
10000a4c:	00002b00 	call	100002b0 <IO_read>
10000a50:	e0bffe8d 	sth	r2,-6(fp)
	code = code & 0x003;
10000a54:	e0bffe8b 	ldhu	r2,-6(fp)
10000a58:	108000cc 	andi	r2,r2,3
10000a5c:	e0bffe8d 	sth	r2,-6(fp)
	printf("\ncode = %x\n", code);
10000a60:	e0bffe8b 	ldhu	r2,-6(fp)
10000a64:	01040074 	movhi	r4,4097
10000a68:	21391904 	addi	r4,r4,-7068
10000a6c:	100b883a 	mov	r5,r2
10000a70:	00021bc0 	call	100021bc <printf>

	if (code == 0x01)
10000a74:	e0bffe8b 	ldhu	r2,-6(fp)
10000a78:	10800058 	cmpnei	r2,r2,1
10000a7c:	1000041e 	bne	r2,zero,10000a90 <main+0x778>
	{
		printf("\n[INFO]:check TD rec data7 \n[INFO]:Keyboard Detected!!!\n\n");
10000a80:	01040074 	movhi	r4,4097
10000a84:	21391c04 	addi	r4,r4,-7056
10000a88:	000227c0 	call	1000227c <puts>
10000a8c:	00000306 	br	10000a9c <main+0x784>
	}
	else
	{
		printf("\n[INFO]:Keyboard Not Detected!!! \n\n");
10000a90:	01040074 	movhi	r4,4097
10000a94:	21392b04 	addi	r4,r4,-6996
10000a98:	000227c0 	call	1000227c <puts>
	}

	// TASK: Write the address to read from the memory for the endpoint descriptor to HPI_ADDR.

	IO_write(HPI_ADDR,0x0576);
10000a9c:	01000084 	movi	r4,2
10000aa0:	01415d84 	movi	r5,1398
10000aa4:	00002440 	call	10000244 <IO_write>
	IO_write(HPI_DATA,0x073F);
10000aa8:	0009883a 	mov	r4,zero
10000aac:	0141cfc4 	movi	r5,1855
10000ab0:	00002440 	call	10000244 <IO_write>
	IO_write(HPI_DATA,0x8105);
10000ab4:	0009883a 	mov	r4,zero
10000ab8:	01604154 	movui	r5,33029
10000abc:	00002440 	call	10000244 <IO_write>
	IO_write(HPI_DATA,0x0003);
10000ac0:	0009883a 	mov	r4,zero
10000ac4:	014000c4 	movi	r5,3
10000ac8:	00002440 	call	10000244 <IO_write>
	IO_write(HPI_DATA,0x0008);
10000acc:	0009883a 	mov	r4,zero
10000ad0:	01400204 	movi	r5,8
10000ad4:	00002440 	call	10000244 <IO_write>
	IO_write(HPI_DATA,0xAC0A);
10000ad8:	0009883a 	mov	r4,zero
10000adc:	016b0294 	movui	r5,44042
10000ae0:	00002440 	call	10000244 <IO_write>
	UsbWrite(HUSB_SIE1_pCurrentTDPtr,0x0576); //HUSB_SIE1_pCurrentTDPtr
10000ae4:	01006c04 	movi	r4,432
10000ae8:	01415d84 	movi	r5,1398
10000aec:	000104c0 	call	1000104c <UsbWrite>

	//data_size = (IO_read(HPI_DATA)>>8)&0x0ff;
	//data_size = 0x08;//(IO_read(HPI_DATA))&0x0ff;
	//UsbPrintMem();
	IO_write(HPI_ADDR,0x057c);
10000af0:	01000084 	movi	r4,2
10000af4:	01415f04 	movi	r5,1404
10000af8:	00002440 	call	10000244 <IO_write>
	data_size = (IO_read(HPI_DATA))&0x0ff;
10000afc:	0009883a 	mov	r4,zero
10000b00:	00002b00 	call	100002b0 <IO_read>
10000b04:	e0bfff05 	stb	r2,-4(fp)
	printf("[ENUM PROCESS]:data packet size is %d\n",data_size);
10000b08:	e0bfff03 	ldbu	r2,-4(fp)
10000b0c:	01040074 	movhi	r4,4097
10000b10:	21393404 	addi	r4,r4,-6960
10000b14:	100b883a 	mov	r5,r2
10000b18:	00021bc0 	call	100021bc <printf>
	// STEP 7 begin
	//------------------------------------set configuration -----------------------------------------//
	// TASK: Call the appropriate function for this step.
	UsbSetConfig();		// Set Configuration
10000b1c:	00019980 	call	10001998 <UsbSetConfig>

	while (!(IO_read(HPI_STATUS) & HPI_STATUS_SIE1msg_FLAG) )  //read sie1 msg register
10000b20:	00000306 	br	10000b30 <main+0x818>
	{
		// TASK: Call the appropriate function again if it wasn't processed successfully.
		UsbSetConfig();		// Set Configuration
10000b24:	00019980 	call	10001998 <UsbSetConfig>
		usleep(10*1000);
10000b28:	0109c404 	movi	r4,10000
10000b2c:	000c0f40 	call	1000c0f4 <usleep>
	// STEP 7 begin
	//------------------------------------set configuration -----------------------------------------//
	// TASK: Call the appropriate function for this step.
	UsbSetConfig();		// Set Configuration

	while (!(IO_read(HPI_STATUS) & HPI_STATUS_SIE1msg_FLAG) )  //read sie1 msg register
10000b30:	010000c4 	movi	r4,3
10000b34:	00002b00 	call	100002b0 <IO_read>
10000b38:	10bfffcc 	andi	r2,r2,65535
10000b3c:	1080040c 	andi	r2,r2,16
10000b40:	103ff826 	beq	r2,zero,10000b24 <__alt_data_end+0xf8000b24>
		// TASK: Call the appropriate function again if it wasn't processed successfully.
		UsbSetConfig();		// Set Configuration
		usleep(10*1000);
	}

	UsbWaitTDListDone();
10000b44:	00020100 	call	10002010 <UsbWaitTDListDone>

	IO_write(HPI_ADDR,0x0506);
10000b48:	01000084 	movi	r4,2
10000b4c:	01414184 	movi	r5,1286
10000b50:	00002440 	call	10000244 <IO_write>
	printf("[ENUM PROCESS]:step 7 TD Status Byte is %x\n",IO_read(HPI_DATA));
10000b54:	0009883a 	mov	r4,zero
10000b58:	00002b00 	call	100002b0 <IO_read>
10000b5c:	10bfffcc 	andi	r2,r2,65535
10000b60:	01040074 	movhi	r4,4097
10000b64:	21393e04 	addi	r4,r4,-6920
10000b68:	100b883a 	mov	r5,r2
10000b6c:	00021bc0 	call	100021bc <printf>

	IO_write(HPI_ADDR,0x0508);
10000b70:	01000084 	movi	r4,2
10000b74:	01414204 	movi	r5,1288
10000b78:	00002440 	call	10000244 <IO_write>
	usb_ctl_val = IO_read(HPI_DATA);
10000b7c:	0009883a 	mov	r4,zero
10000b80:	00002b00 	call	100002b0 <IO_read>
10000b84:	e0bffb0d 	sth	r2,-20(fp)
	printf("[ENUM PROCESS]:step 7 TD Control Byte is %x\n",usb_ctl_val);
10000b88:	e0bffb0b 	ldhu	r2,-20(fp)
10000b8c:	01040074 	movhi	r4,4097
10000b90:	21394904 	addi	r4,r4,-6876
10000b94:	100b883a 	mov	r5,r2
10000b98:	00021bc0 	call	100021bc <printf>
	while (usb_ctl_val != 0x03)
10000b9c:	00000206 	br	10000ba8 <main+0x890>
	{
		usb_ctl_val = UsbGetRetryCnt();
10000ba0:	00020940 	call	10002094 <UsbGetRetryCnt>
10000ba4:	e0bffb0d 	sth	r2,-20(fp)
	printf("[ENUM PROCESS]:step 7 TD Status Byte is %x\n",IO_read(HPI_DATA));

	IO_write(HPI_ADDR,0x0508);
	usb_ctl_val = IO_read(HPI_DATA);
	printf("[ENUM PROCESS]:step 7 TD Control Byte is %x\n",usb_ctl_val);
	while (usb_ctl_val != 0x03)
10000ba8:	e0bffb0b 	ldhu	r2,-20(fp)
10000bac:	108000d8 	cmpnei	r2,r2,3
10000bb0:	103ffb1e 	bne	r2,zero,10000ba0 <__alt_data_end+0xf8000ba0>
	{
		usb_ctl_val = UsbGetRetryCnt();
	}

	printf("------------[ENUM PROCESS]:set configuration done!-------------------\n");
10000bb4:	01040074 	movhi	r4,4097
10000bb8:	21395504 	addi	r4,r4,-6828
10000bbc:	000227c0 	call	1000227c <puts>

	//----------------------------------------------class request out ------------------------------------------//
	// TASK: Call the appropriate function for this step.
	UsbClassRequest();
10000bc0:	0001a940 	call	10001a94 <UsbClassRequest>

	while (!(IO_read(HPI_STATUS) & HPI_STATUS_SIE1msg_FLAG) )  //read sie1 msg register
10000bc4:	00000306 	br	10000bd4 <main+0x8bc>
	{
		// TASK: Call the appropriate function again if it wasn't processed successfully.
		UsbClassRequest();
10000bc8:	0001a940 	call	10001a94 <UsbClassRequest>
		usleep(10*1000);
10000bcc:	0109c404 	movi	r4,10000
10000bd0:	000c0f40 	call	1000c0f4 <usleep>

	//----------------------------------------------class request out ------------------------------------------//
	// TASK: Call the appropriate function for this step.
	UsbClassRequest();

	while (!(IO_read(HPI_STATUS) & HPI_STATUS_SIE1msg_FLAG) )  //read sie1 msg register
10000bd4:	010000c4 	movi	r4,3
10000bd8:	00002b00 	call	100002b0 <IO_read>
10000bdc:	10bfffcc 	andi	r2,r2,65535
10000be0:	1080040c 	andi	r2,r2,16
10000be4:	103ff826 	beq	r2,zero,10000bc8 <__alt_data_end+0xf8000bc8>
		// TASK: Call the appropriate function again if it wasn't processed successfully.
		UsbClassRequest();
		usleep(10*1000);
	}

	UsbWaitTDListDone();
10000be8:	00020100 	call	10002010 <UsbWaitTDListDone>

	IO_write(HPI_ADDR,0x0506);
10000bec:	01000084 	movi	r4,2
10000bf0:	01414184 	movi	r5,1286
10000bf4:	00002440 	call	10000244 <IO_write>
	printf("[ENUM PROCESS]:step 8 TD Status Byte is %x\n",IO_read(HPI_DATA));
10000bf8:	0009883a 	mov	r4,zero
10000bfc:	00002b00 	call	100002b0 <IO_read>
10000c00:	10bfffcc 	andi	r2,r2,65535
10000c04:	01040074 	movhi	r4,4097
10000c08:	21396704 	addi	r4,r4,-6756
10000c0c:	100b883a 	mov	r5,r2
10000c10:	00021bc0 	call	100021bc <printf>

	IO_write(HPI_ADDR,0x0508);
10000c14:	01000084 	movi	r4,2
10000c18:	01414204 	movi	r5,1288
10000c1c:	00002440 	call	10000244 <IO_write>
	usb_ctl_val = IO_read(HPI_DATA);
10000c20:	0009883a 	mov	r4,zero
10000c24:	00002b00 	call	100002b0 <IO_read>
10000c28:	e0bffb0d 	sth	r2,-20(fp)
	printf("[ENUM PROCESS]:step 8 TD Control Byte is %x\n",usb_ctl_val);
10000c2c:	e0bffb0b 	ldhu	r2,-20(fp)
10000c30:	01040074 	movhi	r4,4097
10000c34:	21397204 	addi	r4,r4,-6712
10000c38:	100b883a 	mov	r5,r2
10000c3c:	00021bc0 	call	100021bc <printf>
	while (usb_ctl_val != 0x03)
10000c40:	00000206 	br	10000c4c <main+0x934>
	{
		usb_ctl_val = UsbGetRetryCnt();
10000c44:	00020940 	call	10002094 <UsbGetRetryCnt>
10000c48:	e0bffb0d 	sth	r2,-20(fp)
	printf("[ENUM PROCESS]:step 8 TD Status Byte is %x\n",IO_read(HPI_DATA));

	IO_write(HPI_ADDR,0x0508);
	usb_ctl_val = IO_read(HPI_DATA);
	printf("[ENUM PROCESS]:step 8 TD Control Byte is %x\n",usb_ctl_val);
	while (usb_ctl_val != 0x03)
10000c4c:	e0bffb0b 	ldhu	r2,-20(fp)
10000c50:	108000d8 	cmpnei	r2,r2,3
10000c54:	103ffb1e 	bne	r2,zero,10000c44 <__alt_data_end+0xf8000c44>
	{
		usb_ctl_val = UsbGetRetryCnt();
	}


	printf("------------[ENUM PROCESS]:class request out done!-------------------\n");
10000c58:	01040074 	movhi	r4,4097
10000c5c:	21397e04 	addi	r4,r4,-6664
10000c60:	000227c0 	call	1000227c <puts>

	// STEP 8 begin
	//----------------------------------get descriptor(class 0x21 = HID) request out --------------------------------//
	// TASK: Call the appropriate function for this step.
	UsbGetHidDesc();
10000c64:	0001b900 	call	10001b90 <UsbGetHidDesc>

	while (!(IO_read(HPI_STATUS) & HPI_STATUS_SIE1msg_FLAG) )  //read sie1 msg register
10000c68:	00000306 	br	10000c78 <main+0x960>
	{
		// TASK: Call the appropriate function again if it wasn't processed successfully.
		UsbGetHidDesc();
10000c6c:	0001b900 	call	10001b90 <UsbGetHidDesc>
		usleep(10*1000);
10000c70:	0109c404 	movi	r4,10000
10000c74:	000c0f40 	call	1000c0f4 <usleep>
	// STEP 8 begin
	//----------------------------------get descriptor(class 0x21 = HID) request out --------------------------------//
	// TASK: Call the appropriate function for this step.
	UsbGetHidDesc();

	while (!(IO_read(HPI_STATUS) & HPI_STATUS_SIE1msg_FLAG) )  //read sie1 msg register
10000c78:	010000c4 	movi	r4,3
10000c7c:	00002b00 	call	100002b0 <IO_read>
10000c80:	10bfffcc 	andi	r2,r2,65535
10000c84:	1080040c 	andi	r2,r2,16
10000c88:	103ff826 	beq	r2,zero,10000c6c <__alt_data_end+0xf8000c6c>
		// TASK: Call the appropriate function again if it wasn't processed successfully.
		UsbGetHidDesc();
		usleep(10*1000);
	}

	UsbWaitTDListDone();
10000c8c:	00020100 	call	10002010 <UsbWaitTDListDone>

	IO_write(HPI_ADDR,0x0506);
10000c90:	01000084 	movi	r4,2
10000c94:	01414184 	movi	r5,1286
10000c98:	00002440 	call	10000244 <IO_write>
	printf("[ENUM PROCESS]:step 8 TD Status Byte is %x\n",IO_read(HPI_DATA));
10000c9c:	0009883a 	mov	r4,zero
10000ca0:	00002b00 	call	100002b0 <IO_read>
10000ca4:	10bfffcc 	andi	r2,r2,65535
10000ca8:	01040074 	movhi	r4,4097
10000cac:	21396704 	addi	r4,r4,-6756
10000cb0:	100b883a 	mov	r5,r2
10000cb4:	00021bc0 	call	100021bc <printf>

	IO_write(HPI_ADDR,0x0508);
10000cb8:	01000084 	movi	r4,2
10000cbc:	01414204 	movi	r5,1288
10000cc0:	00002440 	call	10000244 <IO_write>
	usb_ctl_val = IO_read(HPI_DATA);
10000cc4:	0009883a 	mov	r4,zero
10000cc8:	00002b00 	call	100002b0 <IO_read>
10000ccc:	e0bffb0d 	sth	r2,-20(fp)
	printf("[ENUM PROCESS]:step 8 TD Control Byte is %x\n",usb_ctl_val);
10000cd0:	e0bffb0b 	ldhu	r2,-20(fp)
10000cd4:	01040074 	movhi	r4,4097
10000cd8:	21397204 	addi	r4,r4,-6712
10000cdc:	100b883a 	mov	r5,r2
10000ce0:	00021bc0 	call	100021bc <printf>
/*	while (usb_ctl_val != 0x03)
	{
		usb_ctl_val = UsbGetRetryCnt();
	}*/

	printf("------------[ENUM PROCESS]:get descriptor (class 0x21) done!-------------------\n");
10000ce4:	01040074 	movhi	r4,4097
10000ce8:	21399004 	addi	r4,r4,-6592
10000cec:	000227c0 	call	1000227c <puts>

	// STEP 9 begin
	//-------------------------------get descriptor (class 0x22 = report)-------------------------------------------//
	// TASK: Call the appropriate function for this step.
	UsbGetReportDesc();
10000cf0:	0001cd40 	call	10001cd4 <UsbGetReportDesc>
	//if no message
	while (!(IO_read(HPI_STATUS) & HPI_STATUS_SIE1msg_FLAG) )  //read sie1 msg register
10000cf4:	00000306 	br	10000d04 <main+0x9ec>
	{
		// TASK: Call the appropriate function again if it wasn't processed successfully.
		UsbGetReportDesc();
10000cf8:	0001cd40 	call	10001cd4 <UsbGetReportDesc>
		usleep(10*1000);
10000cfc:	0109c404 	movi	r4,10000
10000d00:	000c0f40 	call	1000c0f4 <usleep>
	// STEP 9 begin
	//-------------------------------get descriptor (class 0x22 = report)-------------------------------------------//
	// TASK: Call the appropriate function for this step.
	UsbGetReportDesc();
	//if no message
	while (!(IO_read(HPI_STATUS) & HPI_STATUS_SIE1msg_FLAG) )  //read sie1 msg register
10000d04:	010000c4 	movi	r4,3
10000d08:	00002b00 	call	100002b0 <IO_read>
10000d0c:	10bfffcc 	andi	r2,r2,65535
10000d10:	1080040c 	andi	r2,r2,16
10000d14:	103ff826 	beq	r2,zero,10000cf8 <__alt_data_end+0xf8000cf8>
		// TASK: Call the appropriate function again if it wasn't processed successfully.
		UsbGetReportDesc();
		usleep(10*1000);
	}

	UsbWaitTDListDone();
10000d18:	00020100 	call	10002010 <UsbWaitTDListDone>

	IO_write(HPI_ADDR,0x0506);
10000d1c:	01000084 	movi	r4,2
10000d20:	01414184 	movi	r5,1286
10000d24:	00002440 	call	10000244 <IO_write>
	printf("[ENUM PROCESS]: step 9 TD Status Byte is %x\n",IO_read(HPI_DATA));
10000d28:	0009883a 	mov	r4,zero
10000d2c:	00002b00 	call	100002b0 <IO_read>
10000d30:	10bfffcc 	andi	r2,r2,65535
10000d34:	01040074 	movhi	r4,4097
10000d38:	2139a404 	addi	r4,r4,-6512
10000d3c:	100b883a 	mov	r5,r2
10000d40:	00021bc0 	call	100021bc <printf>

	IO_write(HPI_ADDR,0x0508);
10000d44:	01000084 	movi	r4,2
10000d48:	01414204 	movi	r5,1288
10000d4c:	00002440 	call	10000244 <IO_write>
	usb_ctl_val = IO_read(HPI_DATA);
10000d50:	0009883a 	mov	r4,zero
10000d54:	00002b00 	call	100002b0 <IO_read>
10000d58:	e0bffb0d 	sth	r2,-20(fp)
	printf("[ENUM PROCESS]: step 9 TD Control Byte is %x\n",usb_ctl_val);
10000d5c:	e0bffb0b 	ldhu	r2,-20(fp)
10000d60:	01040074 	movhi	r4,4097
10000d64:	2139b004 	addi	r4,r4,-6464
10000d68:	100b883a 	mov	r5,r2
10000d6c:	00021bc0 	call	100021bc <printf>
/*	while (usb_ctl_val != 0x03)
	{
		usb_ctl_val = UsbGetRetryCnt();
	}*/

	printf("---------------[ENUM PROCESS]:get descriptor (class 0x22) done!----------------\n");
10000d70:	01040074 	movhi	r4,4097
10000d74:	2139bc04 	addi	r4,r4,-6416
10000d78:	000227c0 	call	1000227c <puts>



	//-----------------------------------get keycode value------------------------------------------------//
	usleep(10000);
10000d7c:	0109c404 	movi	r4,10000
10000d80:	000c0f40 	call	1000c0f4 <usleep>
	while(1)
	{
		toggle++;
10000d84:	e0bffb83 	ldbu	r2,-18(fp)
10000d88:	10800044 	addi	r2,r2,1
10000d8c:	e0bffb85 	stb	r2,-18(fp)
		IO_write(HPI_ADDR,0x0500); //the start address
10000d90:	01000084 	movi	r4,2
10000d94:	01414004 	movi	r5,1280
10000d98:	00002440 	call	10000244 <IO_write>
		//data phase IN-1
		IO_write(HPI_DATA,0x051c); //500
10000d9c:	0009883a 	mov	r4,zero
10000da0:	01414704 	movi	r5,1308
10000da4:	00002440 	call	10000244 <IO_write>

		IO_write(HPI_DATA,0x000f & data_size);//2 data length
10000da8:	e0bfff03 	ldbu	r2,-4(fp)
10000dac:	108003cc 	andi	r2,r2,15
10000db0:	0009883a 	mov	r4,zero
10000db4:	100b883a 	mov	r5,r2
10000db8:	00002440 	call	10000244 <IO_write>

		IO_write(HPI_DATA,0x0291);//4 //endpoint 1
10000dbc:	0009883a 	mov	r4,zero
10000dc0:	0140a444 	movi	r5,657
10000dc4:	00002440 	call	10000244 <IO_write>
		if(toggle%2)
10000dc8:	e0bffb83 	ldbu	r2,-18(fp)
10000dcc:	1080004c 	andi	r2,r2,1
10000dd0:	10803fcc 	andi	r2,r2,255
10000dd4:	10000426 	beq	r2,zero,10000de8 <main+0xad0>
		{
			IO_write(HPI_DATA,0x0001);//6 //data 1
10000dd8:	0009883a 	mov	r4,zero
10000ddc:	01400044 	movi	r5,1
10000de0:	00002440 	call	10000244 <IO_write>
10000de4:	00000306 	br	10000df4 <main+0xadc>
		}
		else
		{
			IO_write(HPI_DATA,0x0041);//6 //data 1
10000de8:	0009883a 	mov	r4,zero
10000dec:	01401044 	movi	r5,65
10000df0:	00002440 	call	10000244 <IO_write>
		}
		IO_write(HPI_DATA,0x0013);//8
10000df4:	0009883a 	mov	r4,zero
10000df8:	014004c4 	movi	r5,19
10000dfc:	00002440 	call	10000244 <IO_write>
		IO_write(HPI_DATA,0x0000);//a
10000e00:	0009883a 	mov	r4,zero
10000e04:	000b883a 	mov	r5,zero
10000e08:	00002440 	call	10000244 <IO_write>
		UsbWrite(HUSB_SIE1_pCurrentTDPtr,0x0500); //HUSB_SIE1_pCurrentTDPtr
10000e0c:	01006c04 	movi	r4,432
10000e10:	01414004 	movi	r5,1280
10000e14:	000104c0 	call	1000104c <UsbWrite>
		
		while (!(IO_read(HPI_STATUS) & HPI_STATUS_SIE1msg_FLAG) )  //read sie1 msg register
10000e18:	00002406 	br	10000eac <main+0xb94>
		{
			IO_write(HPI_ADDR,0x0500); //the start address
10000e1c:	01000084 	movi	r4,2
10000e20:	01414004 	movi	r5,1280
10000e24:	00002440 	call	10000244 <IO_write>
			//data phase IN-1
			IO_write(HPI_DATA,0x051c); //500
10000e28:	0009883a 	mov	r4,zero
10000e2c:	01414704 	movi	r5,1308
10000e30:	00002440 	call	10000244 <IO_write>

			IO_write(HPI_DATA,0x000f & data_size);//2 data length
10000e34:	e0bfff03 	ldbu	r2,-4(fp)
10000e38:	108003cc 	andi	r2,r2,15
10000e3c:	0009883a 	mov	r4,zero
10000e40:	100b883a 	mov	r5,r2
10000e44:	00002440 	call	10000244 <IO_write>

			IO_write(HPI_DATA,0x0291);//4 //endpoint 1
10000e48:	0009883a 	mov	r4,zero
10000e4c:	0140a444 	movi	r5,657
10000e50:	00002440 	call	10000244 <IO_write>
			if(toggle%2)
10000e54:	e0bffb83 	ldbu	r2,-18(fp)
10000e58:	1080004c 	andi	r2,r2,1
10000e5c:	10803fcc 	andi	r2,r2,255
10000e60:	10000426 	beq	r2,zero,10000e74 <main+0xb5c>
			{
				IO_write(HPI_DATA,0x0001);//6 //data 1
10000e64:	0009883a 	mov	r4,zero
10000e68:	01400044 	movi	r5,1
10000e6c:	00002440 	call	10000244 <IO_write>
10000e70:	00000306 	br	10000e80 <main+0xb68>
			}
			else
			{
				IO_write(HPI_DATA,0x0041);//6 //data 1
10000e74:	0009883a 	mov	r4,zero
10000e78:	01401044 	movi	r5,65
10000e7c:	00002440 	call	10000244 <IO_write>
			}
			IO_write(HPI_DATA,0x0013);//8
10000e80:	0009883a 	mov	r4,zero
10000e84:	014004c4 	movi	r5,19
10000e88:	00002440 	call	10000244 <IO_write>
			IO_write(HPI_DATA,0x0000);//
10000e8c:	0009883a 	mov	r4,zero
10000e90:	000b883a 	mov	r5,zero
10000e94:	00002440 	call	10000244 <IO_write>
			UsbWrite(HUSB_SIE1_pCurrentTDPtr,0x0500); //HUSB_SIE1_pCurrentTDPtr
10000e98:	01006c04 	movi	r4,432
10000e9c:	01414004 	movi	r5,1280
10000ea0:	000104c0 	call	1000104c <UsbWrite>
			usleep(10*1000);
10000ea4:	0109c404 	movi	r4,10000
10000ea8:	000c0f40 	call	1000c0f4 <usleep>
		}
		IO_write(HPI_DATA,0x0013);//8
		IO_write(HPI_DATA,0x0000);//a
		UsbWrite(HUSB_SIE1_pCurrentTDPtr,0x0500); //HUSB_SIE1_pCurrentTDPtr
		
		while (!(IO_read(HPI_STATUS) & HPI_STATUS_SIE1msg_FLAG) )  //read sie1 msg register
10000eac:	010000c4 	movi	r4,3
10000eb0:	00002b00 	call	100002b0 <IO_read>
10000eb4:	10bfffcc 	andi	r2,r2,65535
10000eb8:	1080040c 	andi	r2,r2,16
10000ebc:	103fd726 	beq	r2,zero,10000e1c <__alt_data_end+0xf8000e1c>
			usleep(10*1000);
		}//end while



		usb_ctl_val = UsbWaitTDListDone();
10000ec0:	00020100 	call	10002010 <UsbWaitTDListDone>
10000ec4:	e0bffb0d 	sth	r2,-20(fp)

		// packet starts from 0x051c, reading third byte
		// TASK: Write the address to read from the memory for byte 3 of the report descriptor to HPI_ADDR.
		IO_write(HPI_ADDR,0x051e); //the start address
10000ec8:	01000084 	movi	r4,2
10000ecc:	01414784 	movi	r5,1310
10000ed0:	00002440 	call	10000244 <IO_write>
		keycode = IO_read(HPI_DATA);
10000ed4:	0009883a 	mov	r4,zero
10000ed8:	00002b00 	call	100002b0 <IO_read>
10000edc:	10bfffcc 	andi	r2,r2,65535
10000ee0:	e0bffd15 	stw	r2,-12(fp)
		printf("\nfirst two keycode values are %04x\n",keycode);
10000ee4:	01040074 	movhi	r4,4097
10000ee8:	2139d004 	addi	r4,r4,-6336
10000eec:	e17ffd17 	ldw	r5,-12(fp)
10000ef0:	00021bc0 	call	100021bc <printf>
		IOWR(KEYCODE_BASE, 0, keycode & 0xff);
10000ef4:	e0bffd17 	ldw	r2,-12(fp)
10000ef8:	10c03fcc 	andi	r3,r2,255
10000efc:	00801c04 	movi	r2,112
10000f00:	10c00035 	stwio	r3,0(r2)


		usleep(200);//usleep(5000);
10000f04:	01003204 	movi	r4,200
10000f08:	000c0f40 	call	1000c0f4 <usleep>
		usb_ctl_val = UsbRead(ctl_reg);
10000f0c:	d0a6a50b 	ldhu	r2,-25964(gp)
10000f10:	10bfffcc 	andi	r2,r2,65535
10000f14:	1009883a 	mov	r4,r2
10000f18:	00010a00 	call	100010a0 <UsbRead>
10000f1c:	e0bffb0d 	sth	r2,-20(fp)

		if(!(usb_ctl_val & no_device))
10000f20:	d0a6a58b 	ldhu	r2,-25962(gp)
10000f24:	e0fffb0b 	ldhu	r3,-20(fp)
10000f28:	1884703a 	and	r2,r3,r2
10000f2c:	10bfffcc 	andi	r2,r2,65535
10000f30:	10003f1e 	bne	r2,zero,10001030 <main+0xd18>
		{
			//USB hot plug routine
			for(hot_plug_count = 0 ; hot_plug_count < 7 ; hot_plug_count++)
10000f34:	e03ffbc5 	stb	zero,-17(fp)
10000f38:	00000f06 	br	10000f78 <main+0xc60>
			{
				usleep(5*1000);
10000f3c:	0104e204 	movi	r4,5000
10000f40:	000c0f40 	call	1000c0f4 <usleep>
				usb_ctl_val = UsbRead(ctl_reg);
10000f44:	d0a6a50b 	ldhu	r2,-25964(gp)
10000f48:	10bfffcc 	andi	r2,r2,65535
10000f4c:	1009883a 	mov	r4,r2
10000f50:	00010a00 	call	100010a0 <UsbRead>
10000f54:	e0bffb0d 	sth	r2,-20(fp)
				if(usb_ctl_val & no_device) break;
10000f58:	d0a6a58b 	ldhu	r2,-25962(gp)
10000f5c:	e0fffb0b 	ldhu	r3,-20(fp)
10000f60:	1884703a 	and	r2,r3,r2
10000f64:	10bfffcc 	andi	r2,r2,65535
10000f68:	1000071e 	bne	r2,zero,10000f88 <main+0xc70>
		usb_ctl_val = UsbRead(ctl_reg);

		if(!(usb_ctl_val & no_device))
		{
			//USB hot plug routine
			for(hot_plug_count = 0 ; hot_plug_count < 7 ; hot_plug_count++)
10000f6c:	e0bffbc3 	ldbu	r2,-17(fp)
10000f70:	10800044 	addi	r2,r2,1
10000f74:	e0bffbc5 	stb	r2,-17(fp)
10000f78:	e0bffbc3 	ldbu	r2,-17(fp)
10000f7c:	108001f0 	cmpltui	r2,r2,7
10000f80:	103fee1e 	bne	r2,zero,10000f3c <__alt_data_end+0xf8000f3c>
10000f84:	00000106 	br	10000f8c <main+0xc74>
			{
				usleep(5*1000);
				usb_ctl_val = UsbRead(ctl_reg);
				if(usb_ctl_val & no_device) break;
10000f88:	0001883a 	nop
			}
			if(!(usb_ctl_val & no_device))
10000f8c:	d0a6a58b 	ldhu	r2,-25962(gp)
10000f90:	e0fffb0b 	ldhu	r3,-20(fp)
10000f94:	1884703a 	and	r2,r3,r2
10000f98:	10bfffcc 	andi	r2,r2,65535
10000f9c:	1000241e 	bne	r2,zero,10001030 <main+0xd18>
			{
				printf("\n[INFO]: the keyboard has been removed!!! \n");
10000fa0:	01040074 	movhi	r4,4097
10000fa4:	2139d904 	addi	r4,r4,-6300
10000fa8:	000227c0 	call	1000227c <puts>
				printf("[INFO]: please insert again!!! \n");
10000fac:	01040074 	movhi	r4,4097
10000fb0:	2139e404 	addi	r4,r4,-6256
10000fb4:	000227c0 	call	1000227c <puts>
			}
		}

		while (!(usb_ctl_val & no_device))
10000fb8:	00001d06 	br	10001030 <main+0xd18>
		{

			usb_ctl_val = UsbRead(ctl_reg);
10000fbc:	d0a6a50b 	ldhu	r2,-25964(gp)
10000fc0:	10bfffcc 	andi	r2,r2,65535
10000fc4:	1009883a 	mov	r4,r2
10000fc8:	00010a00 	call	100010a0 <UsbRead>
10000fcc:	e0bffb0d 	sth	r2,-20(fp)
			usleep(5*1000);
10000fd0:	0104e204 	movi	r4,5000
10000fd4:	000c0f40 	call	1000c0f4 <usleep>
			usb_ctl_val = UsbRead(ctl_reg);
10000fd8:	d0a6a50b 	ldhu	r2,-25964(gp)
10000fdc:	10bfffcc 	andi	r2,r2,65535
10000fe0:	1009883a 	mov	r4,r2
10000fe4:	00010a00 	call	100010a0 <UsbRead>
10000fe8:	e0bffb0d 	sth	r2,-20(fp)
			usleep(5*1000);
10000fec:	0104e204 	movi	r4,5000
10000ff0:	000c0f40 	call	1000c0f4 <usleep>
			usb_ctl_val = UsbRead(ctl_reg);
10000ff4:	d0a6a50b 	ldhu	r2,-25964(gp)
10000ff8:	10bfffcc 	andi	r2,r2,65535
10000ffc:	1009883a 	mov	r4,r2
10001000:	00010a00 	call	100010a0 <UsbRead>
10001004:	e0bffb0d 	sth	r2,-20(fp)
			usleep(5*1000);
10001008:	0104e204 	movi	r4,5000
1000100c:	000c0f40 	call	1000c0f4 <usleep>

			if(usb_ctl_val & no_device)
10001010:	d0a6a58b 	ldhu	r2,-25962(gp)
10001014:	e0fffb0b 	ldhu	r3,-20(fp)
10001018:	1884703a 	and	r2,r3,r2
1000101c:	10bfffcc 	andi	r2,r2,65535
10001020:	103ccb1e 	bne	r2,zero,10000350 <__alt_data_end+0xf8000350>
				goto USB_HOT_PLUG;

			usleep(200);
10001024:	01003204 	movi	r4,200
10001028:	000c0f40 	call	1000c0f4 <usleep>
1000102c:	00000106 	br	10001034 <main+0xd1c>
				printf("\n[INFO]: the keyboard has been removed!!! \n");
				printf("[INFO]: please insert again!!! \n");
			}
		}

		while (!(usb_ctl_val & no_device))
10001030:	0001883a 	nop
10001034:	d0a6a58b 	ldhu	r2,-25962(gp)
10001038:	e0fffb0b 	ldhu	r3,-20(fp)
1000103c:	1884703a 	and	r2,r3,r2
10001040:	10bfffcc 	andi	r2,r2,65535
10001044:	103fdd26 	beq	r2,zero,10000fbc <__alt_data_end+0xf8000fbc>
				goto USB_HOT_PLUG;

			usleep(200);
		}

	}//end while
10001048:	003f4e06 	br	10000d84 <__alt_data_end+0xf8000d84>

1000104c <UsbWrite>:
 *
 * @note     None
 *
 ******************************************************************************/
void UsbWrite(alt_u16 Address, alt_u16 Data)
{
1000104c:	defffc04 	addi	sp,sp,-16
10001050:	dfc00315 	stw	ra,12(sp)
10001054:	df000215 	stw	fp,8(sp)
10001058:	df000204 	addi	fp,sp,8
1000105c:	2007883a 	mov	r3,r4
10001060:	2805883a 	mov	r2,r5
10001064:	e0fffe0d 	sth	r3,-8(fp)
10001068:	e0bfff0d 	sth	r2,-4(fp)
//*************************************************************************//
//									TASK								   //
//*************************************************************************//
//							Write this function							   //
//*************************************************************************//
	IO_write(HPI_ADDR,Address); //write data to memory location
1000106c:	e0bffe0b 	ldhu	r2,-8(fp)
10001070:	01000084 	movi	r4,2
10001074:	100b883a 	mov	r5,r2
10001078:	00002440 	call	10000244 <IO_write>
	IO_write(HPI_DATA,Data); //write data to memory location
1000107c:	e0bfff0b 	ldhu	r2,-4(fp)
10001080:	0009883a 	mov	r4,zero
10001084:	100b883a 	mov	r5,r2
10001088:	00002440 	call	10000244 <IO_write>
}
1000108c:	e037883a 	mov	sp,fp
10001090:	dfc00117 	ldw	ra,4(sp)
10001094:	df000017 	ldw	fp,0(sp)
10001098:	dec00204 	addi	sp,sp,8
1000109c:	f800283a 	ret

100010a0 <UsbRead>:
 *
 * @note     None
 *
 ******************************************************************************/
alt_u16 UsbRead(alt_u16 Address)
{
100010a0:	defffd04 	addi	sp,sp,-12
100010a4:	dfc00215 	stw	ra,8(sp)
100010a8:	df000115 	stw	fp,4(sp)
100010ac:	df000104 	addi	fp,sp,4
100010b0:	2005883a 	mov	r2,r4
100010b4:	e0bfff0d 	sth	r2,-4(fp)
//*************************************************************************//
//									TASK								   //
//*************************************************************************//
//							Write this function							   //
//*************************************************************************//
	IO_write(HPI_ADDR,Address); //write data to memory location
100010b8:	e0bfff0b 	ldhu	r2,-4(fp)
100010bc:	01000084 	movi	r4,2
100010c0:	100b883a 	mov	r5,r2
100010c4:	00002440 	call	10000244 <IO_write>
	return IO_read(HPI_DATA);
100010c8:	0009883a 	mov	r4,zero
100010cc:	00002b00 	call	100002b0 <IO_read>
	equivalent to a 32-bit or 4-byte offset in the address
	 IOWR(base, offset, data)
	 Write data to the memory location specified by (base address +
	offset)
	 */
}
100010d0:	e037883a 	mov	sp,fp
100010d4:	dfc00117 	ldw	ra,4(sp)
100010d8:	df000017 	ldw	fp,0(sp)
100010dc:	dec00204 	addi	sp,sp,8
100010e0:	f800283a 	ret

100010e4 <UsbSoftReset>:
 *
 * @note     None
 *
 ******************************************************************************/
void UsbSoftReset()
{
100010e4:	defffe04 	addi	sp,sp,-8
100010e8:	dfc00115 	stw	ra,4(sp)
100010ec:	df000015 	stw	fp,0(sp)
100010f0:	d839883a 	mov	fp,sp
	//XIo_Out16(USB_MAILBOX, COMM_RESET);
	IO_write(HPI_MAILBOX,COMM_RESET); //COMM_JUMP2CODE
100010f4:	01000044 	movi	r4,1
100010f8:	017e9414 	movui	r5,64080
100010fc:	00002440 	call	10000244 <IO_write>
	usleep(100000);
10001100:	010000b4 	movhi	r4,2
10001104:	2121a804 	addi	r4,r4,-31072
10001108:	000c0f40 	call	1000c0f4 <usleep>
	printf("[USB INIT]:reset finished!\n");
1000110c:	01040074 	movhi	r4,4097
10001110:	2139ec04 	addi	r4,r4,-6224
10001114:	000227c0 	call	1000227c <puts>

	usleep(500000);
10001118:	01000234 	movhi	r4,8
1000111c:	21284804 	addi	r4,r4,-24288
10001120:	000c0f40 	call	1000c0f4 <usleep>
	printf("[USB INIT]:Clear up the interrupt\r\n");
10001124:	01040074 	movhi	r4,4097
10001128:	2139f304 	addi	r4,r4,-6196
1000112c:	000227c0 	call	1000227c <puts>
	IO_read(HPI_MAILBOX);
10001130:	01000044 	movi	r4,1
10001134:	00002b00 	call	100002b0 <IO_read>
	IO_read(HPI_STATUS);
10001138:	010000c4 	movi	r4,3
1000113c:	00002b00 	call	100002b0 <IO_read>

	// Had to add the write due to a bug in BIOS where they overwrite
	// the mailbox after initialization with garbage.  The read clears
	// any pending interrupts.
	UsbRead (HPI_SIE1_MSG_ADR);
10001140:	01005104 	movi	r4,324
10001144:	00010a00 	call	100010a0 <UsbRead>
	UsbWrite (HPI_SIE1_MSG_ADR, 0);
10001148:	01005104 	movi	r4,324
1000114c:	000b883a 	mov	r5,zero
10001150:	000104c0 	call	1000104c <UsbWrite>
	UsbRead (HPI_SIE2_MSG_ADR);
10001154:	01005204 	movi	r4,328
10001158:	00010a00 	call	100010a0 <UsbRead>
	UsbWrite (HPI_SIE2_MSG_ADR, 0);
1000115c:	01005204 	movi	r4,328
10001160:	000b883a 	mov	r5,zero
10001164:	000104c0 	call	1000104c <UsbWrite>


	UsbWrite (HOST1_STAT_REG, 0xFFFF);
10001168:	01302414 	movui	r4,49296
1000116c:	017fffd4 	movui	r5,65535
10001170:	000104c0 	call	1000104c <UsbWrite>
	UsbWrite (HOST2_STAT_REG, 0xFFFF);
10001174:	01302c14 	movui	r4,49328
10001178:	017fffd4 	movui	r5,65535
1000117c:	000104c0 	call	1000104c <UsbWrite>
}
10001180:	e037883a 	mov	sp,fp
10001184:	dfc00117 	ldw	ra,4(sp)
10001188:	df000017 	ldw	fp,0(sp)
1000118c:	dec00204 	addi	sp,sp,8
10001190:	f800283a 	ret

10001194 <UsbSetAddress>:


void UsbSetAddress()
{
10001194:	defffe04 	addi	sp,sp,-8
10001198:	dfc00115 	stw	ra,4(sp)
1000119c:	df000015 	stw	fp,0(sp)
100011a0:	d839883a 	mov	fp,sp
	//the starting address
	IO_write(HPI_ADDR,0x0500); //the start address
100011a4:	01000084 	movi	r4,2
100011a8:	01414004 	movi	r5,1280
100011ac:	00002440 	call	10000244 <IO_write>
	// TD #1: 6 writes
	IO_write(HPI_DATA,0x050C);
100011b0:	0009883a 	mov	r4,zero
100011b4:	01414304 	movi	r5,1292
100011b8:	00002440 	call	10000244 <IO_write>
	IO_write(HPI_DATA,0x0008); //4 port number
100011bc:	0009883a 	mov	r4,zero
100011c0:	01400204 	movi	r5,8
100011c4:	00002440 	call	10000244 <IO_write>
	// TASK: Complete with 4 more IOWR functions
	IO_write(HPI_DATA,0x00D0);
100011c8:	0009883a 	mov	r4,zero
100011cc:	01403404 	movi	r5,208
100011d0:	00002440 	call	10000244 <IO_write>
	IO_write(HPI_DATA,0x0001);
100011d4:	0009883a 	mov	r4,zero
100011d8:	01400044 	movi	r5,1
100011dc:	00002440 	call	10000244 <IO_write>
	IO_write(HPI_DATA,0x0013);
100011e0:	0009883a 	mov	r4,zero
100011e4:	014004c4 	movi	r5,19
100011e8:	00002440 	call	10000244 <IO_write>
	IO_write(HPI_DATA,0x0514);
100011ec:	0009883a 	mov	r4,zero
100011f0:	01414504 	movi	r5,1300
100011f4:	00002440 	call	10000244 <IO_write>
	// TD #2: 4 writes
	// TASK: Complete with 4 IOWR functions
	IO_write(HPI_DATA,0x0500);
100011f8:	0009883a 	mov	r4,zero
100011fc:	01414004 	movi	r5,1280
10001200:	00002440 	call	10000244 <IO_write>
	IO_write(HPI_DATA,0x0002);
10001204:	0009883a 	mov	r4,zero
10001208:	01400084 	movi	r5,2
1000120c:	00002440 	call	10000244 <IO_write>
	IO_write(HPI_DATA,0x0000);
10001210:	0009883a 	mov	r4,zero
10001214:	000b883a 	mov	r5,zero
10001218:	00002440 	call	10000244 <IO_write>
	IO_write(HPI_DATA,0x0000);
1000121c:	0009883a 	mov	r4,zero
10001220:	000b883a 	mov	r5,zero
10001224:	00002440 	call	10000244 <IO_write>
	// TD #3: 6 writes
	// TASK: Complete with 6 IOWR functions
	IO_write(HPI_DATA,0x0000); //
10001228:	0009883a 	mov	r4,zero
1000122c:	000b883a 	mov	r5,zero
10001230:	00002440 	call	10000244 <IO_write>
	IO_write(HPI_DATA,0x0000);//
10001234:	0009883a 	mov	r4,zero
10001238:	000b883a 	mov	r5,zero
1000123c:	00002440 	call	10000244 <IO_write>
	IO_write(HPI_DATA,0x0090);//
10001240:	0009883a 	mov	r4,zero
10001244:	01402404 	movi	r5,144
10001248:	00002440 	call	10000244 <IO_write>
	IO_write(HPI_DATA,0x0041);
1000124c:	0009883a 	mov	r4,zero
10001250:	01401044 	movi	r5,65
10001254:	00002440 	call	10000244 <IO_write>
	IO_write(HPI_DATA,0x0013);
10001258:	0009883a 	mov	r4,zero
1000125c:	014004c4 	movi	r5,19
10001260:	00002440 	call	10000244 <IO_write>
	IO_write(HPI_DATA,0x0000);
10001264:	0009883a 	mov	r4,zero
10001268:	000b883a 	mov	r5,zero
1000126c:	00002440 	call	10000244 <IO_write>

	UsbWrite(HUSB_SIE1_pCurrentTDPtr,0x0500); //HUSB_SIE1_pCurrentTDPtr
10001270:	01006c04 	movi	r4,432
10001274:	01414004 	movi	r5,1280
10001278:	000104c0 	call	1000104c <UsbWrite>
}
1000127c:	e037883a 	mov	sp,fp
10001280:	dfc00117 	ldw	ra,4(sp)
10001284:	df000017 	ldw	fp,0(sp)
10001288:	dec00204 	addi	sp,sp,8
1000128c:	f800283a 	ret

10001290 <UsbGetDeviceDesc1>:


void UsbGetDeviceDesc1()
{
10001290:	defffe04 	addi	sp,sp,-8
10001294:	dfc00115 	stw	ra,4(sp)
10001298:	df000015 	stw	fp,0(sp)
1000129c:	d839883a 	mov	fp,sp
	//the starting address
	IO_write(HPI_ADDR,0x0500); //the start address
100012a0:	01000084 	movi	r4,2
100012a4:	01414004 	movi	r5,1280
100012a8:	00002440 	call	10000244 <IO_write>
	IO_write(HPI_DATA,0x050C);
100012ac:	0009883a 	mov	r4,zero
100012b0:	01414304 	movi	r5,1292
100012b4:	00002440 	call	10000244 <IO_write>
	IO_write(HPI_DATA,0x0008); //4 port number
100012b8:	0009883a 	mov	r4,zero
100012bc:	01400204 	movi	r5,8
100012c0:	00002440 	call	10000244 <IO_write>
	IO_write(HPI_DATA,0x02D0); //device address
100012c4:	0009883a 	mov	r4,zero
100012c8:	0140b404 	movi	r5,720
100012cc:	00002440 	call	10000244 <IO_write>
	IO_write(HPI_DATA,0x0001);
100012d0:	0009883a 	mov	r4,zero
100012d4:	01400044 	movi	r5,1
100012d8:	00002440 	call	10000244 <IO_write>
	IO_write(HPI_DATA,0x0013);
100012dc:	0009883a 	mov	r4,zero
100012e0:	014004c4 	movi	r5,19
100012e4:	00002440 	call	10000244 <IO_write>
	IO_write(HPI_DATA,0x0514);
100012e8:	0009883a 	mov	r4,zero
100012ec:	01414504 	movi	r5,1300
100012f0:	00002440 	call	10000244 <IO_write>

	//td content 4 bytes
	IO_write(HPI_DATA,0x0680);//c
100012f4:	0009883a 	mov	r4,zero
100012f8:	0141a004 	movi	r5,1664
100012fc:	00002440 	call	10000244 <IO_write>
	IO_write(HPI_DATA,0x0100); //device 0x01
10001300:	0009883a 	mov	r4,zero
10001304:	01404004 	movi	r5,256
10001308:	00002440 	call	10000244 <IO_write>
	IO_write(HPI_DATA,0x0000);
1000130c:	0009883a 	mov	r4,zero
10001310:	000b883a 	mov	r5,zero
10001314:	00002440 	call	10000244 <IO_write>
	IO_write(HPI_DATA,0x0008);
10001318:	0009883a 	mov	r4,zero
1000131c:	01400204 	movi	r5,8
10001320:	00002440 	call	10000244 <IO_write>

	//data phase IN
	IO_write(HPI_DATA,0x052C); //
10001324:	0009883a 	mov	r4,zero
10001328:	01414b04 	movi	r5,1324
1000132c:	00002440 	call	10000244 <IO_write>
	IO_write(HPI_DATA,0x0008);//
10001330:	0009883a 	mov	r4,zero
10001334:	01400204 	movi	r5,8
10001338:	00002440 	call	10000244 <IO_write>
	IO_write(HPI_DATA,0x0290);//
1000133c:	0009883a 	mov	r4,zero
10001340:	0140a404 	movi	r5,656
10001344:	00002440 	call	10000244 <IO_write>
	IO_write(HPI_DATA,0x0041);
10001348:	0009883a 	mov	r4,zero
1000134c:	01401044 	movi	r5,65
10001350:	00002440 	call	10000244 <IO_write>
	IO_write(HPI_DATA,0x0013);
10001354:	0009883a 	mov	r4,zero
10001358:	014004c4 	movi	r5,19
1000135c:	00002440 	call	10000244 <IO_write>
	IO_write(HPI_DATA,0x0520);
10001360:	0009883a 	mov	r4,zero
10001364:	01414804 	movi	r5,1312
10001368:	00002440 	call	10000244 <IO_write>

	//    //status phase
	IO_write(HPI_DATA,0x0000); //don't care
1000136c:	0009883a 	mov	r4,zero
10001370:	000b883a 	mov	r5,zero
10001374:	00002440 	call	10000244 <IO_write>
	IO_write(HPI_DATA,0x0000);//port number
10001378:	0009883a 	mov	r4,zero
1000137c:	000b883a 	mov	r5,zero
10001380:	00002440 	call	10000244 <IO_write>
	IO_write(HPI_DATA,0x0210);//device address
10001384:	0009883a 	mov	r4,zero
10001388:	01408404 	movi	r5,528
1000138c:	00002440 	call	10000244 <IO_write>
	IO_write(HPI_DATA,0x0041);
10001390:	0009883a 	mov	r4,zero
10001394:	01401044 	movi	r5,65
10001398:	00002440 	call	10000244 <IO_write>
	IO_write(HPI_DATA,0x0013);
1000139c:	0009883a 	mov	r4,zero
100013a0:	014004c4 	movi	r5,19
100013a4:	00002440 	call	10000244 <IO_write>
	IO_write(HPI_DATA,0x0000);
100013a8:	0009883a 	mov	r4,zero
100013ac:	000b883a 	mov	r5,zero
100013b0:	00002440 	call	10000244 <IO_write>

	UsbWrite(HUSB_SIE1_pCurrentTDPtr,0x0500); //HUSB_SIE1_pCurrentTDPtr
100013b4:	01006c04 	movi	r4,432
100013b8:	01414004 	movi	r5,1280
100013bc:	000104c0 	call	1000104c <UsbWrite>
}
100013c0:	e037883a 	mov	sp,fp
100013c4:	dfc00117 	ldw	ra,4(sp)
100013c8:	df000017 	ldw	fp,0(sp)
100013cc:	dec00204 	addi	sp,sp,8
100013d0:	f800283a 	ret

100013d4 <UsbGetDeviceDesc2>:

void UsbGetDeviceDesc2()
{
100013d4:	defffe04 	addi	sp,sp,-8
100013d8:	dfc00115 	stw	ra,4(sp)
100013dc:	df000015 	stw	fp,0(sp)
100013e0:	d839883a 	mov	fp,sp
	//the starting address
	IO_write(HPI_ADDR,0x0500); //the start address
100013e4:	01000084 	movi	r4,2
100013e8:	01414004 	movi	r5,1280
100013ec:	00002440 	call	10000244 <IO_write>
	IO_write(HPI_DATA,0x050C);
100013f0:	0009883a 	mov	r4,zero
100013f4:	01414304 	movi	r5,1292
100013f8:	00002440 	call	10000244 <IO_write>
	IO_write(HPI_DATA,0x0008); //4 port number
100013fc:	0009883a 	mov	r4,zero
10001400:	01400204 	movi	r5,8
10001404:	00002440 	call	10000244 <IO_write>
	IO_write(HPI_DATA,0x02D0); //device address
10001408:	0009883a 	mov	r4,zero
1000140c:	0140b404 	movi	r5,720
10001410:	00002440 	call	10000244 <IO_write>
	IO_write(HPI_DATA,0x0001);
10001414:	0009883a 	mov	r4,zero
10001418:	01400044 	movi	r5,1
1000141c:	00002440 	call	10000244 <IO_write>
	IO_write(HPI_DATA,0x0013);
10001420:	0009883a 	mov	r4,zero
10001424:	014004c4 	movi	r5,19
10001428:	00002440 	call	10000244 <IO_write>
	IO_write(HPI_DATA,0x0514);
1000142c:	0009883a 	mov	r4,zero
10001430:	01414504 	movi	r5,1300
10001434:	00002440 	call	10000244 <IO_write>

	//td content 4 bytes
	IO_write(HPI_DATA,0x0680);//c
10001438:	0009883a 	mov	r4,zero
1000143c:	0141a004 	movi	r5,1664
10001440:	00002440 	call	10000244 <IO_write>
	IO_write(HPI_DATA,0x0100);//e //device 0x01
10001444:	0009883a 	mov	r4,zero
10001448:	01404004 	movi	r5,256
1000144c:	00002440 	call	10000244 <IO_write>
	IO_write(HPI_DATA,0x0000);//0
10001450:	0009883a 	mov	r4,zero
10001454:	000b883a 	mov	r5,zero
10001458:	00002440 	call	10000244 <IO_write>
	IO_write(HPI_DATA,0x0012);//2
1000145c:	0009883a 	mov	r4,zero
10001460:	01400484 	movi	r5,18
10001464:	00002440 	call	10000244 <IO_write>

	//data phase IN-1
	IO_write(HPI_DATA,0x0544); //514
10001468:	0009883a 	mov	r4,zero
1000146c:	01415104 	movi	r5,1348
10001470:	00002440 	call	10000244 <IO_write>
	IO_write(HPI_DATA,0x0008);//6
10001474:	0009883a 	mov	r4,zero
10001478:	01400204 	movi	r5,8
1000147c:	00002440 	call	10000244 <IO_write>
	IO_write(HPI_DATA,0x0290);//8
10001480:	0009883a 	mov	r4,zero
10001484:	0140a404 	movi	r5,656
10001488:	00002440 	call	10000244 <IO_write>
	IO_write(HPI_DATA,0x0041);//a
1000148c:	0009883a 	mov	r4,zero
10001490:	01401044 	movi	r5,65
10001494:	00002440 	call	10000244 <IO_write>
	IO_write(HPI_DATA,0x0013);//c
10001498:	0009883a 	mov	r4,zero
1000149c:	014004c4 	movi	r5,19
100014a0:	00002440 	call	10000244 <IO_write>
	IO_write(HPI_DATA,0x0520);//e
100014a4:	0009883a 	mov	r4,zero
100014a8:	01414804 	movi	r5,1312
100014ac:	00002440 	call	10000244 <IO_write>

	//data phase IN-2
	IO_write(HPI_DATA,0x054c); //520
100014b0:	0009883a 	mov	r4,zero
100014b4:	01415304 	movi	r5,1356
100014b8:	00002440 	call	10000244 <IO_write>
	IO_write(HPI_DATA,0x0008);//2
100014bc:	0009883a 	mov	r4,zero
100014c0:	01400204 	movi	r5,8
100014c4:	00002440 	call	10000244 <IO_write>
	IO_write(HPI_DATA,0x0290);//4
100014c8:	0009883a 	mov	r4,zero
100014cc:	0140a404 	movi	r5,656
100014d0:	00002440 	call	10000244 <IO_write>
	IO_write(HPI_DATA,0x0001);//6
100014d4:	0009883a 	mov	r4,zero
100014d8:	01400044 	movi	r5,1
100014dc:	00002440 	call	10000244 <IO_write>
	IO_write(HPI_DATA,0x0013);//8
100014e0:	0009883a 	mov	r4,zero
100014e4:	014004c4 	movi	r5,19
100014e8:	00002440 	call	10000244 <IO_write>
	IO_write(HPI_DATA,0x052c);//a
100014ec:	0009883a 	mov	r4,zero
100014f0:	01414b04 	movi	r5,1324
100014f4:	00002440 	call	10000244 <IO_write>

	//data phase IN-3
	IO_write(HPI_DATA,0x0554); //c
100014f8:	0009883a 	mov	r4,zero
100014fc:	01415504 	movi	r5,1364
10001500:	00002440 	call	10000244 <IO_write>
	IO_write(HPI_DATA,0x0002);//e
10001504:	0009883a 	mov	r4,zero
10001508:	01400084 	movi	r5,2
1000150c:	00002440 	call	10000244 <IO_write>
	IO_write(HPI_DATA,0x0290);//530
10001510:	0009883a 	mov	r4,zero
10001514:	0140a404 	movi	r5,656
10001518:	00002440 	call	10000244 <IO_write>
	IO_write(HPI_DATA,0x0041);//2
1000151c:	0009883a 	mov	r4,zero
10001520:	01401044 	movi	r5,65
10001524:	00002440 	call	10000244 <IO_write>
	IO_write(HPI_DATA,0x0013);//4
10001528:	0009883a 	mov	r4,zero
1000152c:	014004c4 	movi	r5,19
10001530:	00002440 	call	10000244 <IO_write>
	IO_write(HPI_DATA,0x0538);//6
10001534:	0009883a 	mov	r4,zero
10001538:	01414e04 	movi	r5,1336
1000153c:	00002440 	call	10000244 <IO_write>

	//status phase
	IO_write(HPI_DATA,0x0000); //538
10001540:	0009883a 	mov	r4,zero
10001544:	000b883a 	mov	r5,zero
10001548:	00002440 	call	10000244 <IO_write>
	IO_write(HPI_DATA,0x0000);//a
1000154c:	0009883a 	mov	r4,zero
10001550:	000b883a 	mov	r5,zero
10001554:	00002440 	call	10000244 <IO_write>
	IO_write(HPI_DATA,0x0210);//c
10001558:	0009883a 	mov	r4,zero
1000155c:	01408404 	movi	r5,528
10001560:	00002440 	call	10000244 <IO_write>
	IO_write(HPI_DATA,0x0041);//e
10001564:	0009883a 	mov	r4,zero
10001568:	01401044 	movi	r5,65
1000156c:	00002440 	call	10000244 <IO_write>
	IO_write(HPI_DATA,0x0013);//540
10001570:	0009883a 	mov	r4,zero
10001574:	014004c4 	movi	r5,19
10001578:	00002440 	call	10000244 <IO_write>
	IO_write(HPI_DATA,0x0000);//2
1000157c:	0009883a 	mov	r4,zero
10001580:	000b883a 	mov	r5,zero
10001584:	00002440 	call	10000244 <IO_write>

	UsbWrite(HUSB_SIE1_pCurrentTDPtr,0x0500); //HUSB_SIE1_pCurrentTDPtr
10001588:	01006c04 	movi	r4,432
1000158c:	01414004 	movi	r5,1280
10001590:	000104c0 	call	1000104c <UsbWrite>
}
10001594:	e037883a 	mov	sp,fp
10001598:	dfc00117 	ldw	ra,4(sp)
1000159c:	df000017 	ldw	fp,0(sp)
100015a0:	dec00204 	addi	sp,sp,8
100015a4:	f800283a 	ret

100015a8 <UsbGetConfigDesc1>:


void UsbGetConfigDesc1()
{
100015a8:	defffe04 	addi	sp,sp,-8
100015ac:	dfc00115 	stw	ra,4(sp)
100015b0:	df000015 	stw	fp,0(sp)
100015b4:	d839883a 	mov	fp,sp
	//the starting address
	IO_write(HPI_ADDR,0x0500); //the start address
100015b8:	01000084 	movi	r4,2
100015bc:	01414004 	movi	r5,1280
100015c0:	00002440 	call	10000244 <IO_write>
	IO_write(HPI_DATA,0x050C);
100015c4:	0009883a 	mov	r4,zero
100015c8:	01414304 	movi	r5,1292
100015cc:	00002440 	call	10000244 <IO_write>
	IO_write(HPI_DATA,0x0008); //4 port number
100015d0:	0009883a 	mov	r4,zero
100015d4:	01400204 	movi	r5,8
100015d8:	00002440 	call	10000244 <IO_write>
	IO_write(HPI_DATA,0x02D0); //device address
100015dc:	0009883a 	mov	r4,zero
100015e0:	0140b404 	movi	r5,720
100015e4:	00002440 	call	10000244 <IO_write>
	IO_write(HPI_DATA,0x0001);
100015e8:	0009883a 	mov	r4,zero
100015ec:	01400044 	movi	r5,1
100015f0:	00002440 	call	10000244 <IO_write>
	IO_write(HPI_DATA,0x0013);
100015f4:	0009883a 	mov	r4,zero
100015f8:	014004c4 	movi	r5,19
100015fc:	00002440 	call	10000244 <IO_write>
	IO_write(HPI_DATA,0x0514);
10001600:	0009883a 	mov	r4,zero
10001604:	01414504 	movi	r5,1300
10001608:	00002440 	call	10000244 <IO_write>

	//td content 4 bytes
	IO_write(HPI_DATA,0x0680);//c
1000160c:	0009883a 	mov	r4,zero
10001610:	0141a004 	movi	r5,1664
10001614:	00002440 	call	10000244 <IO_write>
	IO_write(HPI_DATA,0x0200);//e //config 0x02
10001618:	0009883a 	mov	r4,zero
1000161c:	01408004 	movi	r5,512
10001620:	00002440 	call	10000244 <IO_write>
	IO_write(HPI_DATA,0x0000);//0
10001624:	0009883a 	mov	r4,zero
10001628:	000b883a 	mov	r5,zero
1000162c:	00002440 	call	10000244 <IO_write>
	IO_write(HPI_DATA,0x0009);//2
10001630:	0009883a 	mov	r4,zero
10001634:	01400244 	movi	r5,9
10001638:	00002440 	call	10000244 <IO_write>

	//data phase IN-1
	IO_write(HPI_DATA,0x0544); //514
1000163c:	0009883a 	mov	r4,zero
10001640:	01415104 	movi	r5,1348
10001644:	00002440 	call	10000244 <IO_write>
	IO_write(HPI_DATA,0x0008);//6
10001648:	0009883a 	mov	r4,zero
1000164c:	01400204 	movi	r5,8
10001650:	00002440 	call	10000244 <IO_write>
	IO_write(HPI_DATA,0x0290);//8
10001654:	0009883a 	mov	r4,zero
10001658:	0140a404 	movi	r5,656
1000165c:	00002440 	call	10000244 <IO_write>
	IO_write(HPI_DATA,0x0041);//a
10001660:	0009883a 	mov	r4,zero
10001664:	01401044 	movi	r5,65
10001668:	00002440 	call	10000244 <IO_write>
	IO_write(HPI_DATA,0x0013);//c
1000166c:	0009883a 	mov	r4,zero
10001670:	014004c4 	movi	r5,19
10001674:	00002440 	call	10000244 <IO_write>
	IO_write(HPI_DATA,0x0520);//e
10001678:	0009883a 	mov	r4,zero
1000167c:	01414804 	movi	r5,1312
10001680:	00002440 	call	10000244 <IO_write>

	//data phase IN-2
	IO_write(HPI_DATA,0x054c); //520
10001684:	0009883a 	mov	r4,zero
10001688:	01415304 	movi	r5,1356
1000168c:	00002440 	call	10000244 <IO_write>
	IO_write(HPI_DATA,0x0001);//2
10001690:	0009883a 	mov	r4,zero
10001694:	01400044 	movi	r5,1
10001698:	00002440 	call	10000244 <IO_write>
	IO_write(HPI_DATA,0x0290);//4
1000169c:	0009883a 	mov	r4,zero
100016a0:	0140a404 	movi	r5,656
100016a4:	00002440 	call	10000244 <IO_write>
	IO_write(HPI_DATA,0x0001);//6 //data0
100016a8:	0009883a 	mov	r4,zero
100016ac:	01400044 	movi	r5,1
100016b0:	00002440 	call	10000244 <IO_write>
	IO_write(HPI_DATA,0x0013);//8
100016b4:	0009883a 	mov	r4,zero
100016b8:	014004c4 	movi	r5,19
100016bc:	00002440 	call	10000244 <IO_write>
	IO_write(HPI_DATA,0x052c);//a
100016c0:	0009883a 	mov	r4,zero
100016c4:	01414b04 	movi	r5,1324
100016c8:	00002440 	call	10000244 <IO_write>

	//status phase
	IO_write(HPI_DATA,0x0000); //52c
100016cc:	0009883a 	mov	r4,zero
100016d0:	000b883a 	mov	r5,zero
100016d4:	00002440 	call	10000244 <IO_write>
	IO_write(HPI_DATA,0x0000);//e
100016d8:	0009883a 	mov	r4,zero
100016dc:	000b883a 	mov	r5,zero
100016e0:	00002440 	call	10000244 <IO_write>
	IO_write(HPI_DATA,0x0210);//530
100016e4:	0009883a 	mov	r4,zero
100016e8:	01408404 	movi	r5,528
100016ec:	00002440 	call	10000244 <IO_write>
	IO_write(HPI_DATA,0x0041);//2
100016f0:	0009883a 	mov	r4,zero
100016f4:	01401044 	movi	r5,65
100016f8:	00002440 	call	10000244 <IO_write>
	IO_write(HPI_DATA,0x0013);//4
100016fc:	0009883a 	mov	r4,zero
10001700:	014004c4 	movi	r5,19
10001704:	00002440 	call	10000244 <IO_write>
	IO_write(HPI_DATA,0x0000);//6
10001708:	0009883a 	mov	r4,zero
1000170c:	000b883a 	mov	r5,zero
10001710:	00002440 	call	10000244 <IO_write>

	UsbWrite(HUSB_SIE1_pCurrentTDPtr,0x0500); //HUSB_SIE1_pCurrentTDPtr
10001714:	01006c04 	movi	r4,432
10001718:	01414004 	movi	r5,1280
1000171c:	000104c0 	call	1000104c <UsbWrite>
}
10001720:	e037883a 	mov	sp,fp
10001724:	dfc00117 	ldw	ra,4(sp)
10001728:	df000017 	ldw	fp,0(sp)
1000172c:	dec00204 	addi	sp,sp,8
10001730:	f800283a 	ret

10001734 <UsbGetConfigDesc2>:


void UsbGetConfigDesc2()
{
10001734:	defffe04 	addi	sp,sp,-8
10001738:	dfc00115 	stw	ra,4(sp)
1000173c:	df000015 	stw	fp,0(sp)
10001740:	d839883a 	mov	fp,sp
	//the starting address
	IO_write(HPI_ADDR,0x0500); //the start address
10001744:	01000084 	movi	r4,2
10001748:	01414004 	movi	r5,1280
1000174c:	00002440 	call	10000244 <IO_write>
	IO_write(HPI_DATA,0x050C);
10001750:	0009883a 	mov	r4,zero
10001754:	01414304 	movi	r5,1292
10001758:	00002440 	call	10000244 <IO_write>
	IO_write(HPI_DATA,0x0008); //4 port number
1000175c:	0009883a 	mov	r4,zero
10001760:	01400204 	movi	r5,8
10001764:	00002440 	call	10000244 <IO_write>
	IO_write(HPI_DATA,0x02D0); //device address
10001768:	0009883a 	mov	r4,zero
1000176c:	0140b404 	movi	r5,720
10001770:	00002440 	call	10000244 <IO_write>
	IO_write(HPI_DATA,0x0001);
10001774:	0009883a 	mov	r4,zero
10001778:	01400044 	movi	r5,1
1000177c:	00002440 	call	10000244 <IO_write>
	IO_write(HPI_DATA,0x0013);
10001780:	0009883a 	mov	r4,zero
10001784:	014004c4 	movi	r5,19
10001788:	00002440 	call	10000244 <IO_write>
	IO_write(HPI_DATA,0x0514);
1000178c:	0009883a 	mov	r4,zero
10001790:	01414504 	movi	r5,1300
10001794:	00002440 	call	10000244 <IO_write>

	//td content 4 bytes
	IO_write(HPI_DATA,0x0680);//c
10001798:	0009883a 	mov	r4,zero
1000179c:	0141a004 	movi	r5,1664
100017a0:	00002440 	call	10000244 <IO_write>
	IO_write(HPI_DATA,0x0200);//e //config 0x02
100017a4:	0009883a 	mov	r4,zero
100017a8:	01408004 	movi	r5,512
100017ac:	00002440 	call	10000244 <IO_write>
	IO_write(HPI_DATA,0x0000);//0
100017b0:	0009883a 	mov	r4,zero
100017b4:	000b883a 	mov	r5,zero
100017b8:	00002440 	call	10000244 <IO_write>
	IO_write(HPI_DATA,0x00FF);//2
100017bc:	0009883a 	mov	r4,zero
100017c0:	01403fc4 	movi	r5,255
100017c4:	00002440 	call	10000244 <IO_write>

	//data phase IN-1
	IO_write(HPI_DATA,0x055c); //514
100017c8:	0009883a 	mov	r4,zero
100017cc:	01415704 	movi	r5,1372
100017d0:	00002440 	call	10000244 <IO_write>
	IO_write(HPI_DATA,0x0008);//6
100017d4:	0009883a 	mov	r4,zero
100017d8:	01400204 	movi	r5,8
100017dc:	00002440 	call	10000244 <IO_write>
	IO_write(HPI_DATA,0x0290);//8
100017e0:	0009883a 	mov	r4,zero
100017e4:	0140a404 	movi	r5,656
100017e8:	00002440 	call	10000244 <IO_write>
	IO_write(HPI_DATA,0x0041);//a
100017ec:	0009883a 	mov	r4,zero
100017f0:	01401044 	movi	r5,65
100017f4:	00002440 	call	10000244 <IO_write>
	IO_write(HPI_DATA,0x0013);//c
100017f8:	0009883a 	mov	r4,zero
100017fc:	014004c4 	movi	r5,19
10001800:	00002440 	call	10000244 <IO_write>
	IO_write(HPI_DATA,0x0520);//e
10001804:	0009883a 	mov	r4,zero
10001808:	01414804 	movi	r5,1312
1000180c:	00002440 	call	10000244 <IO_write>

	//data phase IN-2
	IO_write(HPI_DATA,0x0564); //520
10001810:	0009883a 	mov	r4,zero
10001814:	01415904 	movi	r5,1380
10001818:	00002440 	call	10000244 <IO_write>
	IO_write(HPI_DATA,0x0008);//2
1000181c:	0009883a 	mov	r4,zero
10001820:	01400204 	movi	r5,8
10001824:	00002440 	call	10000244 <IO_write>
	IO_write(HPI_DATA,0x0290);//4
10001828:	0009883a 	mov	r4,zero
1000182c:	0140a404 	movi	r5,656
10001830:	00002440 	call	10000244 <IO_write>
	IO_write(HPI_DATA,0x0001);//6 //data0
10001834:	0009883a 	mov	r4,zero
10001838:	01400044 	movi	r5,1
1000183c:	00002440 	call	10000244 <IO_write>
	IO_write(HPI_DATA,0x0013);//8
10001840:	0009883a 	mov	r4,zero
10001844:	014004c4 	movi	r5,19
10001848:	00002440 	call	10000244 <IO_write>
	IO_write(HPI_DATA,0x052c);//a
1000184c:	0009883a 	mov	r4,zero
10001850:	01414b04 	movi	r5,1324
10001854:	00002440 	call	10000244 <IO_write>

	//data phase IN-3
	IO_write(HPI_DATA,0x056c); //52c
10001858:	0009883a 	mov	r4,zero
1000185c:	01415b04 	movi	r5,1388
10001860:	00002440 	call	10000244 <IO_write>
	IO_write(HPI_DATA,0x0008);//e
10001864:	0009883a 	mov	r4,zero
10001868:	01400204 	movi	r5,8
1000186c:	00002440 	call	10000244 <IO_write>
	IO_write(HPI_DATA,0x0290);//530
10001870:	0009883a 	mov	r4,zero
10001874:	0140a404 	movi	r5,656
10001878:	00002440 	call	10000244 <IO_write>
	IO_write(HPI_DATA,0x0041);//2
1000187c:	0009883a 	mov	r4,zero
10001880:	01401044 	movi	r5,65
10001884:	00002440 	call	10000244 <IO_write>
	IO_write(HPI_DATA,0x0013);//4
10001888:	0009883a 	mov	r4,zero
1000188c:	014004c4 	movi	r5,19
10001890:	00002440 	call	10000244 <IO_write>
	IO_write(HPI_DATA,0x0538);//6
10001894:	0009883a 	mov	r4,zero
10001898:	01414e04 	movi	r5,1336
1000189c:	00002440 	call	10000244 <IO_write>

	//data phase IN-4
	IO_write(HPI_DATA,0x0574); //538
100018a0:	0009883a 	mov	r4,zero
100018a4:	01415d04 	movi	r5,1396
100018a8:	00002440 	call	10000244 <IO_write>
	IO_write(HPI_DATA,0x0008);//a
100018ac:	0009883a 	mov	r4,zero
100018b0:	01400204 	movi	r5,8
100018b4:	00002440 	call	10000244 <IO_write>
	IO_write(HPI_DATA,0x0290);//c
100018b8:	0009883a 	mov	r4,zero
100018bc:	0140a404 	movi	r5,656
100018c0:	00002440 	call	10000244 <IO_write>
	IO_write(HPI_DATA,0x0001);//e //data0
100018c4:	0009883a 	mov	r4,zero
100018c8:	01400044 	movi	r5,1
100018cc:	00002440 	call	10000244 <IO_write>
	IO_write(HPI_DATA,0x0013);//540
100018d0:	0009883a 	mov	r4,zero
100018d4:	014004c4 	movi	r5,19
100018d8:	00002440 	call	10000244 <IO_write>
	IO_write(HPI_DATA,0x0544);//2
100018dc:	0009883a 	mov	r4,zero
100018e0:	01415104 	movi	r5,1348
100018e4:	00002440 	call	10000244 <IO_write>

	//data phase IN-5
	IO_write(HPI_DATA,0x057c); //544
100018e8:	0009883a 	mov	r4,zero
100018ec:	01415f04 	movi	r5,1404
100018f0:	00002440 	call	10000244 <IO_write>
	IO_write(HPI_DATA,0x0002);//6
100018f4:	0009883a 	mov	r4,zero
100018f8:	01400084 	movi	r5,2
100018fc:	00002440 	call	10000244 <IO_write>
	IO_write(HPI_DATA,0x0290);//8
10001900:	0009883a 	mov	r4,zero
10001904:	0140a404 	movi	r5,656
10001908:	00002440 	call	10000244 <IO_write>
	IO_write(HPI_DATA,0x0041);//a //data1
1000190c:	0009883a 	mov	r4,zero
10001910:	01401044 	movi	r5,65
10001914:	00002440 	call	10000244 <IO_write>
	IO_write(HPI_DATA,0x0013);//c
10001918:	0009883a 	mov	r4,zero
1000191c:	014004c4 	movi	r5,19
10001920:	00002440 	call	10000244 <IO_write>
	IO_write(HPI_DATA,0x0550);//e
10001924:	0009883a 	mov	r4,zero
10001928:	01415404 	movi	r5,1360
1000192c:	00002440 	call	10000244 <IO_write>

	//status phase
	IO_write(HPI_DATA,0x0000); //550
10001930:	0009883a 	mov	r4,zero
10001934:	000b883a 	mov	r5,zero
10001938:	00002440 	call	10000244 <IO_write>
	IO_write(HPI_DATA,0x0000);//2
1000193c:	0009883a 	mov	r4,zero
10001940:	000b883a 	mov	r5,zero
10001944:	00002440 	call	10000244 <IO_write>
	IO_write(HPI_DATA,0x0210);//4
10001948:	0009883a 	mov	r4,zero
1000194c:	01408404 	movi	r5,528
10001950:	00002440 	call	10000244 <IO_write>
	IO_write(HPI_DATA,0x0041);//6
10001954:	0009883a 	mov	r4,zero
10001958:	01401044 	movi	r5,65
1000195c:	00002440 	call	10000244 <IO_write>
	IO_write(HPI_DATA,0x0013);//8
10001960:	0009883a 	mov	r4,zero
10001964:	014004c4 	movi	r5,19
10001968:	00002440 	call	10000244 <IO_write>
	IO_write(HPI_DATA,0x0000);//a
1000196c:	0009883a 	mov	r4,zero
10001970:	000b883a 	mov	r5,zero
10001974:	00002440 	call	10000244 <IO_write>

	UsbWrite(HUSB_SIE1_pCurrentTDPtr,0x0500); //HUSB_SIE1_pCurrentTDPtr
10001978:	01006c04 	movi	r4,432
1000197c:	01414004 	movi	r5,1280
10001980:	000104c0 	call	1000104c <UsbWrite>
}
10001984:	e037883a 	mov	sp,fp
10001988:	dfc00117 	ldw	ra,4(sp)
1000198c:	df000017 	ldw	fp,0(sp)
10001990:	dec00204 	addi	sp,sp,8
10001994:	f800283a 	ret

10001998 <UsbSetConfig>:

void UsbSetConfig()
{
10001998:	defffe04 	addi	sp,sp,-8
1000199c:	dfc00115 	stw	ra,4(sp)
100019a0:	df000015 	stw	fp,0(sp)
100019a4:	d839883a 	mov	fp,sp
	//the starting address
	IO_write(HPI_ADDR,0x0500); //the start address
100019a8:	01000084 	movi	r4,2
100019ac:	01414004 	movi	r5,1280
100019b0:	00002440 	call	10000244 <IO_write>
	IO_write(HPI_DATA,0x050C);
100019b4:	0009883a 	mov	r4,zero
100019b8:	01414304 	movi	r5,1292
100019bc:	00002440 	call	10000244 <IO_write>
	IO_write(HPI_DATA,0x0008); //4 port number
100019c0:	0009883a 	mov	r4,zero
100019c4:	01400204 	movi	r5,8
100019c8:	00002440 	call	10000244 <IO_write>
	IO_write(HPI_DATA,0x02D0); //port address
100019cc:	0009883a 	mov	r4,zero
100019d0:	0140b404 	movi	r5,720
100019d4:	00002440 	call	10000244 <IO_write>
	IO_write(HPI_DATA,0x0001);
100019d8:	0009883a 	mov	r4,zero
100019dc:	01400044 	movi	r5,1
100019e0:	00002440 	call	10000244 <IO_write>
	IO_write(HPI_DATA,0x0013);
100019e4:	0009883a 	mov	r4,zero
100019e8:	014004c4 	movi	r5,19
100019ec:	00002440 	call	10000244 <IO_write>
	IO_write(HPI_DATA,0x0514);
100019f0:	0009883a 	mov	r4,zero
100019f4:	01414504 	movi	r5,1300
100019f8:	00002440 	call	10000244 <IO_write>

	//td content 4 bytes
	IO_write(HPI_DATA,0x0900);
100019fc:	0009883a 	mov	r4,zero
10001a00:	01424004 	movi	r5,2304
10001a04:	00002440 	call	10000244 <IO_write>
	IO_write(HPI_DATA,0x0001);//device address
10001a08:	0009883a 	mov	r4,zero
10001a0c:	01400044 	movi	r5,1
10001a10:	00002440 	call	10000244 <IO_write>
	IO_write(HPI_DATA,0x0000);
10001a14:	0009883a 	mov	r4,zero
10001a18:	000b883a 	mov	r5,zero
10001a1c:	00002440 	call	10000244 <IO_write>
	IO_write(HPI_DATA,0x0000);
10001a20:	0009883a 	mov	r4,zero
10001a24:	000b883a 	mov	r5,zero
10001a28:	00002440 	call	10000244 <IO_write>
	//in packet
	IO_write(HPI_DATA,0x0000); //don't care
10001a2c:	0009883a 	mov	r4,zero
10001a30:	000b883a 	mov	r5,zero
10001a34:	00002440 	call	10000244 <IO_write>
	IO_write(HPI_DATA,0x0000);//port number
10001a38:	0009883a 	mov	r4,zero
10001a3c:	000b883a 	mov	r5,zero
10001a40:	00002440 	call	10000244 <IO_write>
	IO_write(HPI_DATA,0x0290);//device address
10001a44:	0009883a 	mov	r4,zero
10001a48:	0140a404 	movi	r5,656
10001a4c:	00002440 	call	10000244 <IO_write>
	IO_write(HPI_DATA,0x0041); //data 1
10001a50:	0009883a 	mov	r4,zero
10001a54:	01401044 	movi	r5,65
10001a58:	00002440 	call	10000244 <IO_write>
	IO_write(HPI_DATA,0x0013);
10001a5c:	0009883a 	mov	r4,zero
10001a60:	014004c4 	movi	r5,19
10001a64:	00002440 	call	10000244 <IO_write>
	IO_write(HPI_DATA,0x0000);
10001a68:	0009883a 	mov	r4,zero
10001a6c:	000b883a 	mov	r5,zero
10001a70:	00002440 	call	10000244 <IO_write>

	UsbWrite(HUSB_SIE1_pCurrentTDPtr,0x0500); //HUSB_SIE1_pCurrentTDPtr
10001a74:	01006c04 	movi	r4,432
10001a78:	01414004 	movi	r5,1280
10001a7c:	000104c0 	call	1000104c <UsbWrite>

}
10001a80:	e037883a 	mov	sp,fp
10001a84:	dfc00117 	ldw	ra,4(sp)
10001a88:	df000017 	ldw	fp,0(sp)
10001a8c:	dec00204 	addi	sp,sp,8
10001a90:	f800283a 	ret

10001a94 <UsbClassRequest>:

void UsbClassRequest()
{
10001a94:	defffe04 	addi	sp,sp,-8
10001a98:	dfc00115 	stw	ra,4(sp)
10001a9c:	df000015 	stw	fp,0(sp)
10001aa0:	d839883a 	mov	fp,sp
	//the starting address
	IO_write(HPI_ADDR,0x0500); //the start address
10001aa4:	01000084 	movi	r4,2
10001aa8:	01414004 	movi	r5,1280
10001aac:	00002440 	call	10000244 <IO_write>
	IO_write(HPI_DATA,0x050C);
10001ab0:	0009883a 	mov	r4,zero
10001ab4:	01414304 	movi	r5,1292
10001ab8:	00002440 	call	10000244 <IO_write>
	IO_write(HPI_DATA,0x0008); //4 port number
10001abc:	0009883a 	mov	r4,zero
10001ac0:	01400204 	movi	r5,8
10001ac4:	00002440 	call	10000244 <IO_write>
	IO_write(HPI_DATA,0x02D0); //port address
10001ac8:	0009883a 	mov	r4,zero
10001acc:	0140b404 	movi	r5,720
10001ad0:	00002440 	call	10000244 <IO_write>
	IO_write(HPI_DATA,0x0001);
10001ad4:	0009883a 	mov	r4,zero
10001ad8:	01400044 	movi	r5,1
10001adc:	00002440 	call	10000244 <IO_write>
	IO_write(HPI_DATA,0x0013);
10001ae0:	0009883a 	mov	r4,zero
10001ae4:	014004c4 	movi	r5,19
10001ae8:	00002440 	call	10000244 <IO_write>
	IO_write(HPI_DATA,0x0514);
10001aec:	0009883a 	mov	r4,zero
10001af0:	01414504 	movi	r5,1300
10001af4:	00002440 	call	10000244 <IO_write>

	//td content 4 bytes
	IO_write(HPI_DATA,0x0A21);
10001af8:	0009883a 	mov	r4,zero
10001afc:	01428844 	movi	r5,2593
10001b00:	00002440 	call	10000244 <IO_write>
	IO_write(HPI_DATA,0x0000);//device address
10001b04:	0009883a 	mov	r4,zero
10001b08:	000b883a 	mov	r5,zero
10001b0c:	00002440 	call	10000244 <IO_write>
	IO_write(HPI_DATA,0x0000);
10001b10:	0009883a 	mov	r4,zero
10001b14:	000b883a 	mov	r5,zero
10001b18:	00002440 	call	10000244 <IO_write>
	IO_write(HPI_DATA,0x0000);
10001b1c:	0009883a 	mov	r4,zero
10001b20:	000b883a 	mov	r5,zero
10001b24:	00002440 	call	10000244 <IO_write>
	//in packet
	IO_write(HPI_DATA,0x0000); //don't care
10001b28:	0009883a 	mov	r4,zero
10001b2c:	000b883a 	mov	r5,zero
10001b30:	00002440 	call	10000244 <IO_write>
	IO_write(HPI_DATA,0x0000);//port number /data length
10001b34:	0009883a 	mov	r4,zero
10001b38:	000b883a 	mov	r5,zero
10001b3c:	00002440 	call	10000244 <IO_write>
	IO_write(HPI_DATA,0x0290);//device address
10001b40:	0009883a 	mov	r4,zero
10001b44:	0140a404 	movi	r5,656
10001b48:	00002440 	call	10000244 <IO_write>
	IO_write(HPI_DATA,0x0041); //data 1
10001b4c:	0009883a 	mov	r4,zero
10001b50:	01401044 	movi	r5,65
10001b54:	00002440 	call	10000244 <IO_write>
	IO_write(HPI_DATA,0x0013);
10001b58:	0009883a 	mov	r4,zero
10001b5c:	014004c4 	movi	r5,19
10001b60:	00002440 	call	10000244 <IO_write>
	IO_write(HPI_DATA,0x0000);
10001b64:	0009883a 	mov	r4,zero
10001b68:	000b883a 	mov	r5,zero
10001b6c:	00002440 	call	10000244 <IO_write>

	UsbWrite(HUSB_SIE1_pCurrentTDPtr,0x0500); //HUSB_SIE1_pCurrentTDPtr
10001b70:	01006c04 	movi	r4,432
10001b74:	01414004 	movi	r5,1280
10001b78:	000104c0 	call	1000104c <UsbWrite>
}
10001b7c:	e037883a 	mov	sp,fp
10001b80:	dfc00117 	ldw	ra,4(sp)
10001b84:	df000017 	ldw	fp,0(sp)
10001b88:	dec00204 	addi	sp,sp,8
10001b8c:	f800283a 	ret

10001b90 <UsbGetHidDesc>:


void UsbGetHidDesc()
{
10001b90:	defffe04 	addi	sp,sp,-8
10001b94:	dfc00115 	stw	ra,4(sp)
10001b98:	df000015 	stw	fp,0(sp)
10001b9c:	d839883a 	mov	fp,sp
	//the starting address
	IO_write(HPI_ADDR,0x0500); //the start address
10001ba0:	01000084 	movi	r4,2
10001ba4:	01414004 	movi	r5,1280
10001ba8:	00002440 	call	10000244 <IO_write>
	IO_write(HPI_DATA,0x050C);
10001bac:	0009883a 	mov	r4,zero
10001bb0:	01414304 	movi	r5,1292
10001bb4:	00002440 	call	10000244 <IO_write>
	IO_write(HPI_DATA,0x0008); //4 port number
10001bb8:	0009883a 	mov	r4,zero
10001bbc:	01400204 	movi	r5,8
10001bc0:	00002440 	call	10000244 <IO_write>
	IO_write(HPI_DATA,0x02D0); //port address
10001bc4:	0009883a 	mov	r4,zero
10001bc8:	0140b404 	movi	r5,720
10001bcc:	00002440 	call	10000244 <IO_write>
	IO_write(HPI_DATA,0x0001);
10001bd0:	0009883a 	mov	r4,zero
10001bd4:	01400044 	movi	r5,1
10001bd8:	00002440 	call	10000244 <IO_write>
	IO_write(HPI_DATA,0x0013);
10001bdc:	0009883a 	mov	r4,zero
10001be0:	014004c4 	movi	r5,19
10001be4:	00002440 	call	10000244 <IO_write>
	IO_write(HPI_DATA,0x0514);
10001be8:	0009883a 	mov	r4,zero
10001bec:	01414504 	movi	r5,1300
10001bf0:	00002440 	call	10000244 <IO_write>

	//td content 4 bytes
	IO_write(HPI_DATA,0x0681);//c
10001bf4:	0009883a 	mov	r4,zero
10001bf8:	0141a044 	movi	r5,1665
10001bfc:	00002440 	call	10000244 <IO_write>
	IO_write(HPI_DATA,0x2100);//e //HID 0x21
10001c00:	0009883a 	mov	r4,zero
10001c04:	01484004 	movi	r5,8448
10001c08:	00002440 	call	10000244 <IO_write>
	IO_write(HPI_DATA,0x0000);//0
10001c0c:	0009883a 	mov	r4,zero
10001c10:	000b883a 	mov	r5,zero
10001c14:	00002440 	call	10000244 <IO_write>
	IO_write(HPI_DATA,0x007B);//2
10001c18:	0009883a 	mov	r4,zero
10001c1c:	01401ec4 	movi	r5,123
10001c20:	00002440 	call	10000244 <IO_write>

	//data phase IN-1
	IO_write(HPI_DATA,0x0544); //514
10001c24:	0009883a 	mov	r4,zero
10001c28:	01415104 	movi	r5,1348
10001c2c:	00002440 	call	10000244 <IO_write>
	IO_write(HPI_DATA,0x0008);//6
10001c30:	0009883a 	mov	r4,zero
10001c34:	01400204 	movi	r5,8
10001c38:	00002440 	call	10000244 <IO_write>
	IO_write(HPI_DATA,0x0290);//8
10001c3c:	0009883a 	mov	r4,zero
10001c40:	0140a404 	movi	r5,656
10001c44:	00002440 	call	10000244 <IO_write>
	IO_write(HPI_DATA,0x0041);//a
10001c48:	0009883a 	mov	r4,zero
10001c4c:	01401044 	movi	r5,65
10001c50:	00002440 	call	10000244 <IO_write>
	IO_write(HPI_DATA,0x0013);//c
10001c54:	0009883a 	mov	r4,zero
10001c58:	014004c4 	movi	r5,19
10001c5c:	00002440 	call	10000244 <IO_write>
	IO_write(HPI_DATA,0x0520);//e
10001c60:	0009883a 	mov	r4,zero
10001c64:	01414804 	movi	r5,1312
10001c68:	00002440 	call	10000244 <IO_write>

	//status phase
	IO_write(HPI_DATA,0x0000); //52c
10001c6c:	0009883a 	mov	r4,zero
10001c70:	000b883a 	mov	r5,zero
10001c74:	00002440 	call	10000244 <IO_write>
	IO_write(HPI_DATA,0x0000);//e
10001c78:	0009883a 	mov	r4,zero
10001c7c:	000b883a 	mov	r5,zero
10001c80:	00002440 	call	10000244 <IO_write>
	IO_write(HPI_DATA,0x0210);//530
10001c84:	0009883a 	mov	r4,zero
10001c88:	01408404 	movi	r5,528
10001c8c:	00002440 	call	10000244 <IO_write>
	IO_write(HPI_DATA,0x0041);//2
10001c90:	0009883a 	mov	r4,zero
10001c94:	01401044 	movi	r5,65
10001c98:	00002440 	call	10000244 <IO_write>
	IO_write(HPI_DATA,0x0013);//4
10001c9c:	0009883a 	mov	r4,zero
10001ca0:	014004c4 	movi	r5,19
10001ca4:	00002440 	call	10000244 <IO_write>
	IO_write(HPI_DATA,0x0000);//6
10001ca8:	0009883a 	mov	r4,zero
10001cac:	000b883a 	mov	r5,zero
10001cb0:	00002440 	call	10000244 <IO_write>

	UsbWrite(HUSB_SIE1_pCurrentTDPtr,0x0500); //HUSB_SIE1_pCurrentTDPtr
10001cb4:	01006c04 	movi	r4,432
10001cb8:	01414004 	movi	r5,1280
10001cbc:	000104c0 	call	1000104c <UsbWrite>

}
10001cc0:	e037883a 	mov	sp,fp
10001cc4:	dfc00117 	ldw	ra,4(sp)
10001cc8:	df000017 	ldw	fp,0(sp)
10001ccc:	dec00204 	addi	sp,sp,8
10001cd0:	f800283a 	ret

10001cd4 <UsbGetReportDesc>:


void UsbGetReportDesc()
{
10001cd4:	defffe04 	addi	sp,sp,-8
10001cd8:	dfc00115 	stw	ra,4(sp)
10001cdc:	df000015 	stw	fp,0(sp)
10001ce0:	d839883a 	mov	fp,sp
	//the starting address
	IO_write(HPI_ADDR,0x0500); //the start address
10001ce4:	01000084 	movi	r4,2
10001ce8:	01414004 	movi	r5,1280
10001cec:	00002440 	call	10000244 <IO_write>
	IO_write(HPI_DATA,0x050C);
10001cf0:	0009883a 	mov	r4,zero
10001cf4:	01414304 	movi	r5,1292
10001cf8:	00002440 	call	10000244 <IO_write>
	IO_write(HPI_DATA,0x0008); //4 port number
10001cfc:	0009883a 	mov	r4,zero
10001d00:	01400204 	movi	r5,8
10001d04:	00002440 	call	10000244 <IO_write>
	IO_write(HPI_DATA,0x02D0); //device address
10001d08:	0009883a 	mov	r4,zero
10001d0c:	0140b404 	movi	r5,720
10001d10:	00002440 	call	10000244 <IO_write>
	IO_write(HPI_DATA,0x0001);
10001d14:	0009883a 	mov	r4,zero
10001d18:	01400044 	movi	r5,1
10001d1c:	00002440 	call	10000244 <IO_write>
	IO_write(HPI_DATA,0x0013);
10001d20:	0009883a 	mov	r4,zero
10001d24:	014004c4 	movi	r5,19
10001d28:	00002440 	call	10000244 <IO_write>
	IO_write(HPI_DATA,0x0514);
10001d2c:	0009883a 	mov	r4,zero
10001d30:	01414504 	movi	r5,1300
10001d34:	00002440 	call	10000244 <IO_write>

	//td content 4 bytes
	IO_write(HPI_DATA,0x0681);//c
10001d38:	0009883a 	mov	r4,zero
10001d3c:	0141a044 	movi	r5,1665
10001d40:	00002440 	call	10000244 <IO_write>
	IO_write(HPI_DATA,0x2200);//e //report 0x22
10001d44:	0009883a 	mov	r4,zero
10001d48:	01488004 	movi	r5,8704
10001d4c:	00002440 	call	10000244 <IO_write>
	IO_write(HPI_DATA,0x0000);//0
10001d50:	0009883a 	mov	r4,zero
10001d54:	000b883a 	mov	r5,zero
10001d58:	00002440 	call	10000244 <IO_write>
	IO_write(HPI_DATA,0x007B);//2
10001d5c:	0009883a 	mov	r4,zero
10001d60:	01401ec4 	movi	r5,123
10001d64:	00002440 	call	10000244 <IO_write>

	//data phase IN-1
	IO_write(HPI_DATA,0x0580); //514
10001d68:	0009883a 	mov	r4,zero
10001d6c:	01416004 	movi	r5,1408
10001d70:	00002440 	call	10000244 <IO_write>
	IO_write(HPI_DATA,0x0008);//6
10001d74:	0009883a 	mov	r4,zero
10001d78:	01400204 	movi	r5,8
10001d7c:	00002440 	call	10000244 <IO_write>
	IO_write(HPI_DATA,0x0290);//8
10001d80:	0009883a 	mov	r4,zero
10001d84:	0140a404 	movi	r5,656
10001d88:	00002440 	call	10000244 <IO_write>
	IO_write(HPI_DATA,0x0041);//a
10001d8c:	0009883a 	mov	r4,zero
10001d90:	01401044 	movi	r5,65
10001d94:	00002440 	call	10000244 <IO_write>
	IO_write(HPI_DATA,0x0013);//c
10001d98:	0009883a 	mov	r4,zero
10001d9c:	014004c4 	movi	r5,19
10001da0:	00002440 	call	10000244 <IO_write>
	IO_write(HPI_DATA,0x0520);//e
10001da4:	0009883a 	mov	r4,zero
10001da8:	01414804 	movi	r5,1312
10001dac:	00002440 	call	10000244 <IO_write>

	//data phase IN-2
	IO_write(HPI_DATA,0x0588); //520
10001db0:	0009883a 	mov	r4,zero
10001db4:	01416204 	movi	r5,1416
10001db8:	00002440 	call	10000244 <IO_write>
	IO_write(HPI_DATA,0x0008);//2
10001dbc:	0009883a 	mov	r4,zero
10001dc0:	01400204 	movi	r5,8
10001dc4:	00002440 	call	10000244 <IO_write>
	IO_write(HPI_DATA,0x0290);//4
10001dc8:	0009883a 	mov	r4,zero
10001dcc:	0140a404 	movi	r5,656
10001dd0:	00002440 	call	10000244 <IO_write>
	IO_write(HPI_DATA,0x0001);//6 //data0
10001dd4:	0009883a 	mov	r4,zero
10001dd8:	01400044 	movi	r5,1
10001ddc:	00002440 	call	10000244 <IO_write>
	IO_write(HPI_DATA,0x0013);//8
10001de0:	0009883a 	mov	r4,zero
10001de4:	014004c4 	movi	r5,19
10001de8:	00002440 	call	10000244 <IO_write>
	IO_write(HPI_DATA,0x052c);//a
10001dec:	0009883a 	mov	r4,zero
10001df0:	01414b04 	movi	r5,1324
10001df4:	00002440 	call	10000244 <IO_write>

	//data phase IN-3
	IO_write(HPI_DATA,0x0590); //52c
10001df8:	0009883a 	mov	r4,zero
10001dfc:	01416404 	movi	r5,1424
10001e00:	00002440 	call	10000244 <IO_write>
	IO_write(HPI_DATA,0x0008);//e
10001e04:	0009883a 	mov	r4,zero
10001e08:	01400204 	movi	r5,8
10001e0c:	00002440 	call	10000244 <IO_write>
	IO_write(HPI_DATA,0x0290);//530
10001e10:	0009883a 	mov	r4,zero
10001e14:	0140a404 	movi	r5,656
10001e18:	00002440 	call	10000244 <IO_write>
	IO_write(HPI_DATA,0x0041);//2
10001e1c:	0009883a 	mov	r4,zero
10001e20:	01401044 	movi	r5,65
10001e24:	00002440 	call	10000244 <IO_write>
	IO_write(HPI_DATA,0x0013);//4
10001e28:	0009883a 	mov	r4,zero
10001e2c:	014004c4 	movi	r5,19
10001e30:	00002440 	call	10000244 <IO_write>
	IO_write(HPI_DATA,0x0538);//6
10001e34:	0009883a 	mov	r4,zero
10001e38:	01414e04 	movi	r5,1336
10001e3c:	00002440 	call	10000244 <IO_write>

	//data phase IN-4
	IO_write(HPI_DATA,0x0598); //538
10001e40:	0009883a 	mov	r4,zero
10001e44:	01416604 	movi	r5,1432
10001e48:	00002440 	call	10000244 <IO_write>
	IO_write(HPI_DATA,0x0008);//a
10001e4c:	0009883a 	mov	r4,zero
10001e50:	01400204 	movi	r5,8
10001e54:	00002440 	call	10000244 <IO_write>
	IO_write(HPI_DATA,0x0290);//c
10001e58:	0009883a 	mov	r4,zero
10001e5c:	0140a404 	movi	r5,656
10001e60:	00002440 	call	10000244 <IO_write>
	IO_write(HPI_DATA,0x0001);//e //data0
10001e64:	0009883a 	mov	r4,zero
10001e68:	01400044 	movi	r5,1
10001e6c:	00002440 	call	10000244 <IO_write>
	IO_write(HPI_DATA,0x0013);//540
10001e70:	0009883a 	mov	r4,zero
10001e74:	014004c4 	movi	r5,19
10001e78:	00002440 	call	10000244 <IO_write>
	IO_write(HPI_DATA,0x0544);//2
10001e7c:	0009883a 	mov	r4,zero
10001e80:	01415104 	movi	r5,1348
10001e84:	00002440 	call	10000244 <IO_write>

	//data phase IN-5
	IO_write(HPI_DATA,0x05a0); //544
10001e88:	0009883a 	mov	r4,zero
10001e8c:	01416804 	movi	r5,1440
10001e90:	00002440 	call	10000244 <IO_write>
	IO_write(HPI_DATA,0x0008);//6
10001e94:	0009883a 	mov	r4,zero
10001e98:	01400204 	movi	r5,8
10001e9c:	00002440 	call	10000244 <IO_write>
	IO_write(HPI_DATA,0x0290);//8
10001ea0:	0009883a 	mov	r4,zero
10001ea4:	0140a404 	movi	r5,656
10001ea8:	00002440 	call	10000244 <IO_write>
	IO_write(HPI_DATA,0x0041);//a //data1
10001eac:	0009883a 	mov	r4,zero
10001eb0:	01401044 	movi	r5,65
10001eb4:	00002440 	call	10000244 <IO_write>
	IO_write(HPI_DATA,0x0013);//c
10001eb8:	0009883a 	mov	r4,zero
10001ebc:	014004c4 	movi	r5,19
10001ec0:	00002440 	call	10000244 <IO_write>
	IO_write(HPI_DATA,0x0550);//e
10001ec4:	0009883a 	mov	r4,zero
10001ec8:	01415404 	movi	r5,1360
10001ecc:	00002440 	call	10000244 <IO_write>

	//data phase IN-6
	IO_write(HPI_DATA,0x05a8); //550
10001ed0:	0009883a 	mov	r4,zero
10001ed4:	01416a04 	movi	r5,1448
10001ed8:	00002440 	call	10000244 <IO_write>
	IO_write(HPI_DATA,0x0008);//2
10001edc:	0009883a 	mov	r4,zero
10001ee0:	01400204 	movi	r5,8
10001ee4:	00002440 	call	10000244 <IO_write>
	IO_write(HPI_DATA,0x0290);//4
10001ee8:	0009883a 	mov	r4,zero
10001eec:	0140a404 	movi	r5,656
10001ef0:	00002440 	call	10000244 <IO_write>
	IO_write(HPI_DATA,0x0001);//6 //data0
10001ef4:	0009883a 	mov	r4,zero
10001ef8:	01400044 	movi	r5,1
10001efc:	00002440 	call	10000244 <IO_write>
	IO_write(HPI_DATA,0x0013);//8
10001f00:	0009883a 	mov	r4,zero
10001f04:	014004c4 	movi	r5,19
10001f08:	00002440 	call	10000244 <IO_write>
	IO_write(HPI_DATA,0x055c);//a
10001f0c:	0009883a 	mov	r4,zero
10001f10:	01415704 	movi	r5,1372
10001f14:	00002440 	call	10000244 <IO_write>

	//data phase IN-7
	IO_write(HPI_DATA,0x05b0); //c
10001f18:	0009883a 	mov	r4,zero
10001f1c:	01416c04 	movi	r5,1456
10001f20:	00002440 	call	10000244 <IO_write>
	IO_write(HPI_DATA,0x0008);//e
10001f24:	0009883a 	mov	r4,zero
10001f28:	01400204 	movi	r5,8
10001f2c:	00002440 	call	10000244 <IO_write>
	IO_write(HPI_DATA,0x0290);//560
10001f30:	0009883a 	mov	r4,zero
10001f34:	0140a404 	movi	r5,656
10001f38:	00002440 	call	10000244 <IO_write>
	IO_write(HPI_DATA,0x0041);//2 //data1
10001f3c:	0009883a 	mov	r4,zero
10001f40:	01401044 	movi	r5,65
10001f44:	00002440 	call	10000244 <IO_write>
	IO_write(HPI_DATA,0x0013);//4
10001f48:	0009883a 	mov	r4,zero
10001f4c:	014004c4 	movi	r5,19
10001f50:	00002440 	call	10000244 <IO_write>
	IO_write(HPI_DATA,0x0568);//6
10001f54:	0009883a 	mov	r4,zero
10001f58:	01415a04 	movi	r5,1384
10001f5c:	00002440 	call	10000244 <IO_write>

	//data phase IN-8
	IO_write(HPI_DATA,0x05b8); //8
10001f60:	0009883a 	mov	r4,zero
10001f64:	01416e04 	movi	r5,1464
10001f68:	00002440 	call	10000244 <IO_write>
	IO_write(HPI_DATA,0x0003);//a
10001f6c:	0009883a 	mov	r4,zero
10001f70:	014000c4 	movi	r5,3
10001f74:	00002440 	call	10000244 <IO_write>
	IO_write(HPI_DATA,0x0290);//c
10001f78:	0009883a 	mov	r4,zero
10001f7c:	0140a404 	movi	r5,656
10001f80:	00002440 	call	10000244 <IO_write>
	IO_write(HPI_DATA,0x0001);//e //data0
10001f84:	0009883a 	mov	r4,zero
10001f88:	01400044 	movi	r5,1
10001f8c:	00002440 	call	10000244 <IO_write>
	IO_write(HPI_DATA,0x0013);//570
10001f90:	0009883a 	mov	r4,zero
10001f94:	014004c4 	movi	r5,19
10001f98:	00002440 	call	10000244 <IO_write>
	IO_write(HPI_DATA,0x0574);//2
10001f9c:	0009883a 	mov	r4,zero
10001fa0:	01415d04 	movi	r5,1396
10001fa4:	00002440 	call	10000244 <IO_write>

	//status phase
	IO_write(HPI_DATA,0x0000); //574
10001fa8:	0009883a 	mov	r4,zero
10001fac:	000b883a 	mov	r5,zero
10001fb0:	00002440 	call	10000244 <IO_write>
	IO_write(HPI_DATA,0x0000);//6
10001fb4:	0009883a 	mov	r4,zero
10001fb8:	000b883a 	mov	r5,zero
10001fbc:	00002440 	call	10000244 <IO_write>
	IO_write(HPI_DATA,0x0210);//8
10001fc0:	0009883a 	mov	r4,zero
10001fc4:	01408404 	movi	r5,528
10001fc8:	00002440 	call	10000244 <IO_write>
	IO_write(HPI_DATA,0x0041);//a
10001fcc:	0009883a 	mov	r4,zero
10001fd0:	01401044 	movi	r5,65
10001fd4:	00002440 	call	10000244 <IO_write>
	IO_write(HPI_DATA,0x0013);//c
10001fd8:	0009883a 	mov	r4,zero
10001fdc:	014004c4 	movi	r5,19
10001fe0:	00002440 	call	10000244 <IO_write>
	IO_write(HPI_DATA,0x0000);//e
10001fe4:	0009883a 	mov	r4,zero
10001fe8:	000b883a 	mov	r5,zero
10001fec:	00002440 	call	10000244 <IO_write>

	UsbWrite(HUSB_SIE1_pCurrentTDPtr,0x0500); //HUSB_SIE1_pCurrentTDPtr
10001ff0:	01006c04 	movi	r4,432
10001ff4:	01414004 	movi	r5,1280
10001ff8:	000104c0 	call	1000104c <UsbWrite>

}
10001ffc:	e037883a 	mov	sp,fp
10002000:	dfc00117 	ldw	ra,4(sp)
10002004:	df000017 	ldw	fp,0(sp)
10002008:	dec00204 	addi	sp,sp,8
1000200c:	f800283a 	ret

10002010 <UsbWaitTDListDone>:


alt_u16 UsbWaitTDListDone()
{
10002010:	defffd04 	addi	sp,sp,-12
10002014:	dfc00215 	stw	ra,8(sp)
10002018:	df000115 	stw	fp,4(sp)
1000201c:	df000104 	addi	fp,sp,4
	alt_u16 usb_ctl_val;

	usb_ctl_val = UsbRead(HPI_SIE1_MSG_ADR); // STEP 3 j
10002020:	01005104 	movi	r4,324
10002024:	00010a00 	call	100010a0 <UsbRead>
10002028:	e0bfff0d 	sth	r2,-4(fp)
	UsbWrite(HPI_SIE1_MSG_ADR, 0);
1000202c:	01005104 	movi	r4,324
10002030:	000b883a 	mov	r5,zero
10002034:	000104c0 	call	1000104c <UsbWrite>
	while (usb_ctl_val != HUSB_TDListDone)  // k, read sie1 msg register
10002038:	00000d06 	br	10002070 <UsbWaitTDListDone+0x60>
	{
		if(usb_ctl_val == 0x0000)
1000203c:	e0bfff0b 	ldhu	r2,-4(fp)
10002040:	10000526 	beq	r2,zero,10002058 <UsbWaitTDListDone+0x48>
		{
		}
		else
		{
			printf("[SIE1 MSG]:SIE1 msg reg is %x\n",usb_ctl_val);
10002044:	e0bfff0b 	ldhu	r2,-4(fp)
10002048:	01040074 	movhi	r4,4097
1000204c:	2139fc04 	addi	r4,r4,-6160
10002050:	100b883a 	mov	r5,r2
10002054:	00021bc0 	call	100021bc <printf>
		}
		usb_ctl_val = UsbRead(HPI_SIE1_MSG_ADR);
10002058:	01005104 	movi	r4,324
1000205c:	00010a00 	call	100010a0 <UsbRead>
10002060:	e0bfff0d 	sth	r2,-4(fp)
		UsbWrite(HPI_SIE1_MSG_ADR, 0);
10002064:	01005104 	movi	r4,324
10002068:	000b883a 	mov	r5,zero
1000206c:	000104c0 	call	1000104c <UsbWrite>
{
	alt_u16 usb_ctl_val;

	usb_ctl_val = UsbRead(HPI_SIE1_MSG_ADR); // STEP 3 j
	UsbWrite(HPI_SIE1_MSG_ADR, 0);
	while (usb_ctl_val != HUSB_TDListDone)  // k, read sie1 msg register
10002070:	e0bfff0b 	ldhu	r2,-4(fp)
10002074:	10840018 	cmpnei	r2,r2,4096
10002078:	103ff01e 	bne	r2,zero,1000203c <__alt_data_end+0xf800203c>
		}
		usb_ctl_val = UsbRead(HPI_SIE1_MSG_ADR);
		UsbWrite(HPI_SIE1_MSG_ADR, 0);
	}

	return usb_ctl_val;
1000207c:	e0bfff0b 	ldhu	r2,-4(fp)
}
10002080:	e037883a 	mov	sp,fp
10002084:	dfc00117 	ldw	ra,4(sp)
10002088:	df000017 	ldw	fp,0(sp)
1000208c:	dec00204 	addi	sp,sp,8
10002090:	f800283a 	ret

10002094 <UsbGetRetryCnt>:


alt_u16 UsbGetRetryCnt()
{
10002094:	defffd04 	addi	sp,sp,-12
10002098:	dfc00215 	stw	ra,8(sp)
1000209c:	df000115 	stw	fp,4(sp)
100020a0:	df000104 	addi	fp,sp,4
	alt_u16 usb_ctl_val;

	IO_read(HPI_STATUS);
100020a4:	010000c4 	movi	r4,3
100020a8:	00002b00 	call	100002b0 <IO_read>
	if(UsbRead(HPI_SIE1_MSG_ADR) == HUSB_TDListDone)
100020ac:	01005104 	movi	r4,324
100020b0:	00010a00 	call	100010a0 <UsbRead>
100020b4:	10bfffcc 	andi	r2,r2,65535
100020b8:	10840018 	cmpnei	r2,r2,4096
100020bc:	1000091e 	bne	r2,zero,100020e4 <UsbGetRetryCnt+0x50>
	{
		UsbWrite(HPI_SIE1_MSG_ADR, 0);
100020c0:	01005104 	movi	r4,324
100020c4:	000b883a 	mov	r5,zero
100020c8:	000104c0 	call	1000104c <UsbWrite>

		while (!(IO_read(HPI_STATUS) & HPI_STATUS_SIE1msg_FLAG) )  //read sie1 msg register
100020cc:	0001883a 	nop
100020d0:	010000c4 	movi	r4,3
100020d4:	00002b00 	call	100002b0 <IO_read>
100020d8:	10bfffcc 	andi	r2,r2,65535
100020dc:	1080040c 	andi	r2,r2,16
100020e0:	103ffb26 	beq	r2,zero,100020d0 <__alt_data_end+0xf80020d0>
		{
		}
	}
	//usleep(1000);
	IO_write(HPI_ADDR,0x0508);
100020e4:	01000084 	movi	r4,2
100020e8:	01414204 	movi	r5,1288
100020ec:	00002440 	call	10000244 <IO_write>
	usb_ctl_val = IO_read(HPI_DATA);
100020f0:	0009883a 	mov	r4,zero
100020f4:	00002b00 	call	100002b0 <IO_read>
100020f8:	e0bfff0d 	sth	r2,-4(fp)

	return usb_ctl_val;
100020fc:	e0bfff0b 	ldhu	r2,-4(fp)
}
10002100:	e037883a 	mov	sp,fp
10002104:	dfc00117 	ldw	ra,4(sp)
10002108:	df000017 	ldw	fp,0(sp)
1000210c:	dec00204 	addi	sp,sp,8
10002110:	f800283a 	ret

10002114 <UsbPrintMem>:


void UsbPrintMem()
{
10002114:	defffc04 	addi	sp,sp,-16
10002118:	dfc00315 	stw	ra,12(sp)
1000211c:	df000215 	stw	fp,8(sp)
10002120:	df000204 	addi	fp,sp,8
	int i, code;
	IO_write(HPI_ADDR,0x0500); //the start address
10002124:	01000084 	movi	r4,2
10002128:	01414004 	movi	r5,1280
1000212c:	00002440 	call	10000244 <IO_write>
	for (i = 0; i <= 200; i += 2)
10002130:	e03ffe15 	stw	zero,-8(fp)
10002134:	00000e06 	br	10002170 <UsbPrintMem+0x5c>
	{
		code = IO_read(HPI_DATA);
10002138:	0009883a 	mov	r4,zero
1000213c:	00002b00 	call	100002b0 <IO_read>
10002140:	10bfffcc 	andi	r2,r2,65535
10002144:	e0bfff15 	stw	r2,-4(fp)
		printf("\naddr %x = %04x\n", 0x0500+i, code);
10002148:	e0bffe17 	ldw	r2,-8(fp)
1000214c:	10814004 	addi	r2,r2,1280
10002150:	01040074 	movhi	r4,4097
10002154:	213a0404 	addi	r4,r4,-6128
10002158:	100b883a 	mov	r5,r2
1000215c:	e1bfff17 	ldw	r6,-4(fp)
10002160:	00021bc0 	call	100021bc <printf>

void UsbPrintMem()
{
	int i, code;
	IO_write(HPI_ADDR,0x0500); //the start address
	for (i = 0; i <= 200; i += 2)
10002164:	e0bffe17 	ldw	r2,-8(fp)
10002168:	10800084 	addi	r2,r2,2
1000216c:	e0bffe15 	stw	r2,-8(fp)
10002170:	e0bffe17 	ldw	r2,-8(fp)
10002174:	10803250 	cmplti	r2,r2,201
10002178:	103fef1e 	bne	r2,zero,10002138 <__alt_data_end+0xf8002138>
	{
		code = IO_read(HPI_DATA);
		printf("\naddr %x = %04x\n", 0x0500+i, code);
	}
}
1000217c:	e037883a 	mov	sp,fp
10002180:	dfc00117 	ldw	ra,4(sp)
10002184:	df000017 	ldw	fp,0(sp)
10002188:	dec00204 	addi	sp,sp,8
1000218c:	f800283a 	ret

10002190 <_printf_r>:
10002190:	defffd04 	addi	sp,sp,-12
10002194:	dfc00015 	stw	ra,0(sp)
10002198:	d9800115 	stw	r6,4(sp)
1000219c:	d9c00215 	stw	r7,8(sp)
100021a0:	280d883a 	mov	r6,r5
100021a4:	21400217 	ldw	r5,8(r4)
100021a8:	d9c00104 	addi	r7,sp,4
100021ac:	00023500 	call	10002350 <___vfprintf_internal_r>
100021b0:	dfc00017 	ldw	ra,0(sp)
100021b4:	dec00304 	addi	sp,sp,12
100021b8:	f800283a 	ret

100021bc <printf>:
100021bc:	defffc04 	addi	sp,sp,-16
100021c0:	dfc00015 	stw	ra,0(sp)
100021c4:	d9400115 	stw	r5,4(sp)
100021c8:	d9800215 	stw	r6,8(sp)
100021cc:	d9c00315 	stw	r7,12(sp)
100021d0:	00840074 	movhi	r2,4097
100021d4:	10815b04 	addi	r2,r2,1388
100021d8:	10800017 	ldw	r2,0(r2)
100021dc:	200b883a 	mov	r5,r4
100021e0:	d9800104 	addi	r6,sp,4
100021e4:	11000217 	ldw	r4,8(r2)
100021e8:	00041cc0 	call	100041cc <__vfprintf_internal>
100021ec:	dfc00017 	ldw	ra,0(sp)
100021f0:	dec00404 	addi	sp,sp,16
100021f4:	f800283a 	ret

100021f8 <_puts_r>:
100021f8:	defff604 	addi	sp,sp,-40
100021fc:	dc400815 	stw	r17,32(sp)
10002200:	2023883a 	mov	r17,r4
10002204:	2809883a 	mov	r4,r5
10002208:	dc000715 	stw	r16,28(sp)
1000220c:	dfc00915 	stw	ra,36(sp)
10002210:	2821883a 	mov	r16,r5
10002214:	00022900 	call	10002290 <strlen>
10002218:	10c00044 	addi	r3,r2,1
1000221c:	d8800115 	stw	r2,4(sp)
10002220:	89400217 	ldw	r5,8(r17)
10002224:	00840074 	movhi	r2,4097
10002228:	10ba0904 	addi	r2,r2,-6108
1000222c:	d8800215 	stw	r2,8(sp)
10002230:	00800044 	movi	r2,1
10002234:	d8800315 	stw	r2,12(sp)
10002238:	8809883a 	mov	r4,r17
1000223c:	00800084 	movi	r2,2
10002240:	d9800404 	addi	r6,sp,16
10002244:	dc000015 	stw	r16,0(sp)
10002248:	d8c00615 	stw	r3,24(sp)
1000224c:	dec00415 	stw	sp,16(sp)
10002250:	d8800515 	stw	r2,20(sp)
10002254:	00064cc0 	call	100064cc <__sfvwrite_r>
10002258:	1000061e 	bne	r2,zero,10002274 <_puts_r+0x7c>
1000225c:	00800284 	movi	r2,10
10002260:	dfc00917 	ldw	ra,36(sp)
10002264:	dc400817 	ldw	r17,32(sp)
10002268:	dc000717 	ldw	r16,28(sp)
1000226c:	dec00a04 	addi	sp,sp,40
10002270:	f800283a 	ret
10002274:	00bfffc4 	movi	r2,-1
10002278:	003ff906 	br	10002260 <__alt_data_end+0xf8002260>

1000227c <puts>:
1000227c:	00840074 	movhi	r2,4097
10002280:	10815b04 	addi	r2,r2,1388
10002284:	200b883a 	mov	r5,r4
10002288:	11000017 	ldw	r4,0(r2)
1000228c:	00021f81 	jmpi	100021f8 <_puts_r>

10002290 <strlen>:
10002290:	208000cc 	andi	r2,r4,3
10002294:	10001f1e 	bne	r2,zero,10002314 <strlen+0x84>
10002298:	20800017 	ldw	r2,0(r4)
1000229c:	01ffbff4 	movhi	r7,65279
100022a0:	39ffbfc4 	addi	r7,r7,-257
100022a4:	01a02074 	movhi	r6,32897
100022a8:	31a02004 	addi	r6,r6,-32640
100022ac:	11c7883a 	add	r3,r2,r7
100022b0:	0084303a 	nor	r2,zero,r2
100022b4:	1886703a 	and	r3,r3,r2
100022b8:	1986703a 	and	r3,r3,r6
100022bc:	2005883a 	mov	r2,r4
100022c0:	1800101e 	bne	r3,zero,10002304 <strlen+0x74>
100022c4:	10800104 	addi	r2,r2,4
100022c8:	10c00017 	ldw	r3,0(r2)
100022cc:	19cb883a 	add	r5,r3,r7
100022d0:	00c6303a 	nor	r3,zero,r3
100022d4:	28c6703a 	and	r3,r5,r3
100022d8:	1986703a 	and	r3,r3,r6
100022dc:	1800091e 	bne	r3,zero,10002304 <strlen+0x74>
100022e0:	10800104 	addi	r2,r2,4
100022e4:	10c00017 	ldw	r3,0(r2)
100022e8:	19cb883a 	add	r5,r3,r7
100022ec:	00c6303a 	nor	r3,zero,r3
100022f0:	28c6703a 	and	r3,r5,r3
100022f4:	1986703a 	and	r3,r3,r6
100022f8:	183ff226 	beq	r3,zero,100022c4 <__alt_data_end+0xf80022c4>
100022fc:	00000106 	br	10002304 <strlen+0x74>
10002300:	10800044 	addi	r2,r2,1
10002304:	10c00007 	ldb	r3,0(r2)
10002308:	183ffd1e 	bne	r3,zero,10002300 <__alt_data_end+0xf8002300>
1000230c:	1105c83a 	sub	r2,r2,r4
10002310:	f800283a 	ret
10002314:	2005883a 	mov	r2,r4
10002318:	003ffa06 	br	10002304 <__alt_data_end+0xf8002304>

1000231c <__sprint_r>:
1000231c:	30800217 	ldw	r2,8(r6)
10002320:	defffe04 	addi	sp,sp,-8
10002324:	dc000015 	stw	r16,0(sp)
10002328:	dfc00115 	stw	ra,4(sp)
1000232c:	3021883a 	mov	r16,r6
10002330:	10000226 	beq	r2,zero,1000233c <__sprint_r+0x20>
10002334:	00064cc0 	call	100064cc <__sfvwrite_r>
10002338:	80000215 	stw	zero,8(r16)
1000233c:	80000115 	stw	zero,4(r16)
10002340:	dfc00117 	ldw	ra,4(sp)
10002344:	dc000017 	ldw	r16,0(sp)
10002348:	dec00204 	addi	sp,sp,8
1000234c:	f800283a 	ret

10002350 <___vfprintf_internal_r>:
10002350:	defeb904 	addi	sp,sp,-1308
10002354:	dc013d15 	stw	r16,1268(sp)
10002358:	d9013015 	stw	r4,1216(sp)
1000235c:	dfc14615 	stw	ra,1304(sp)
10002360:	df014515 	stw	fp,1300(sp)
10002364:	ddc14415 	stw	r23,1296(sp)
10002368:	dd814315 	stw	r22,1292(sp)
1000236c:	dd414215 	stw	r21,1288(sp)
10002370:	dd014115 	stw	r20,1284(sp)
10002374:	dcc14015 	stw	r19,1280(sp)
10002378:	dc813f15 	stw	r18,1276(sp)
1000237c:	dc413e15 	stw	r17,1272(sp)
10002380:	d9412915 	stw	r5,1188(sp)
10002384:	3021883a 	mov	r16,r6
10002388:	d9c12d15 	stw	r7,1204(sp)
1000238c:	0006bb80 	call	10006bb8 <_localeconv_r>
10002390:	10800017 	ldw	r2,0(r2)
10002394:	d9013017 	ldw	r4,1216(sp)
10002398:	d8013315 	stw	zero,1228(sp)
1000239c:	d8813715 	stw	r2,1244(sp)
100023a0:	d8013415 	stw	zero,1232(sp)
100023a4:	20000226 	beq	r4,zero,100023b0 <___vfprintf_internal_r+0x60>
100023a8:	20800e17 	ldw	r2,56(r4)
100023ac:	10014b26 	beq	r2,zero,100028dc <___vfprintf_internal_r+0x58c>
100023b0:	d8c12917 	ldw	r3,1188(sp)
100023b4:	1880030b 	ldhu	r2,12(r3)
100023b8:	10c0020c 	andi	r3,r2,8
100023bc:	18ffffcc 	andi	r3,r3,65535
100023c0:	18e0001c 	xori	r3,r3,32768
100023c4:	18e00004 	addi	r3,r3,-32768
100023c8:	1800ed26 	beq	r3,zero,10002780 <___vfprintf_internal_r+0x430>
100023cc:	d9012917 	ldw	r4,1188(sp)
100023d0:	20c00417 	ldw	r3,16(r4)
100023d4:	1800ea26 	beq	r3,zero,10002780 <___vfprintf_internal_r+0x430>
100023d8:	1100068c 	andi	r4,r2,26
100023dc:	00c00284 	movi	r3,10
100023e0:	20c0f026 	beq	r4,r3,100027a4 <___vfprintf_internal_r+0x454>
100023e4:	d9010dc4 	addi	r4,sp,1079
100023e8:	d8810e04 	addi	r2,sp,1080
100023ec:	dc413017 	ldw	r17,1216(sp)
100023f0:	d8c00404 	addi	r3,sp,16
100023f4:	d9012615 	stw	r4,1176(sp)
100023f8:	1109c83a 	sub	r4,r2,r4
100023fc:	d8812715 	stw	r2,1180(sp)
10002400:	d8c11b15 	stw	r3,1132(sp)
10002404:	d8011d15 	stw	zero,1140(sp)
10002408:	d8011c15 	stw	zero,1136(sp)
1000240c:	802b883a 	mov	r21,r16
10002410:	d8013215 	stw	zero,1224(sp)
10002414:	d8013615 	stw	zero,1240(sp)
10002418:	d8013515 	stw	zero,1236(sp)
1000241c:	d8012c15 	stw	zero,1200(sp)
10002420:	1813883a 	mov	r9,r3
10002424:	d9013915 	stw	r4,1252(sp)
10002428:	a8800007 	ldb	r2,0(r21)
1000242c:	1002f326 	beq	r2,zero,10002ffc <___vfprintf_internal_r+0xcac>
10002430:	00c00944 	movi	r3,37
10002434:	a825883a 	mov	r18,r21
10002438:	10c0021e 	bne	r2,r3,10002444 <___vfprintf_internal_r+0xf4>
1000243c:	00001406 	br	10002490 <___vfprintf_internal_r+0x140>
10002440:	10c00326 	beq	r2,r3,10002450 <___vfprintf_internal_r+0x100>
10002444:	94800044 	addi	r18,r18,1
10002448:	90800007 	ldb	r2,0(r18)
1000244c:	103ffc1e 	bne	r2,zero,10002440 <__alt_data_end+0xf8002440>
10002450:	9561c83a 	sub	r16,r18,r21
10002454:	80000e26 	beq	r16,zero,10002490 <___vfprintf_internal_r+0x140>
10002458:	da011d17 	ldw	r8,1140(sp)
1000245c:	d8c11c17 	ldw	r3,1136(sp)
10002460:	4d400015 	stw	r21,0(r9)
10002464:	4c000115 	stw	r16,4(r9)
10002468:	4411883a 	add	r8,r8,r16
1000246c:	18c00044 	addi	r3,r3,1
10002470:	da011d15 	stw	r8,1140(sp)
10002474:	d8c11c15 	stw	r3,1136(sp)
10002478:	008001c4 	movi	r2,7
1000247c:	10c11016 	blt	r2,r3,100028c0 <___vfprintf_internal_r+0x570>
10002480:	4a400204 	addi	r9,r9,8
10002484:	d8812c17 	ldw	r2,1200(sp)
10002488:	1405883a 	add	r2,r2,r16
1000248c:	d8812c15 	stw	r2,1200(sp)
10002490:	90800007 	ldb	r2,0(r18)
10002494:	1000ee26 	beq	r2,zero,10002850 <___vfprintf_internal_r+0x500>
10002498:	95400044 	addi	r21,r18,1
1000249c:	94800047 	ldb	r18,1(r18)
100024a0:	073fffc4 	movi	fp,-1
100024a4:	e007883a 	mov	r3,fp
100024a8:	d8012585 	stb	zero,1174(sp)
100024ac:	d8012e15 	stw	zero,1208(sp)
100024b0:	0021883a 	mov	r16,zero
100024b4:	05001604 	movi	r20,88
100024b8:	04c00244 	movi	r19,9
100024bc:	4839883a 	mov	fp,r9
100024c0:	ad400044 	addi	r21,r21,1
100024c4:	90bff804 	addi	r2,r18,-32
100024c8:	a080462e 	bgeu	r20,r2,100025e4 <___vfprintf_internal_r+0x294>
100024cc:	e013883a 	mov	r9,fp
100024d0:	9000df26 	beq	r18,zero,10002850 <___vfprintf_internal_r+0x500>
100024d4:	00c00044 	movi	r3,1
100024d8:	d8c12815 	stw	r3,1184(sp)
100024dc:	dc810405 	stb	r18,1040(sp)
100024e0:	d8012585 	stb	zero,1174(sp)
100024e4:	d8c12b15 	stw	r3,1196(sp)
100024e8:	dcc10404 	addi	r19,sp,1040
100024ec:	d8013115 	stw	zero,1220(sp)
100024f0:	80c0008c 	andi	r3,r16,2
100024f4:	d8c12a15 	stw	r3,1192(sp)
100024f8:	18000326 	beq	r3,zero,10002508 <___vfprintf_internal_r+0x1b8>
100024fc:	d8c12817 	ldw	r3,1184(sp)
10002500:	18c00084 	addi	r3,r3,2
10002504:	d8c12815 	stw	r3,1184(sp)
10002508:	80c0210c 	andi	r3,r16,132
1000250c:	d8c12f15 	stw	r3,1212(sp)
10002510:	1802251e 	bne	r3,zero,10002da8 <___vfprintf_internal_r+0xa58>
10002514:	d9012e17 	ldw	r4,1208(sp)
10002518:	d8c12817 	ldw	r3,1184(sp)
1000251c:	20edc83a 	sub	r22,r4,r3
10002520:	0582210e 	bge	zero,r22,10002da8 <___vfprintf_internal_r+0xa58>
10002524:	02800404 	movi	r10,16
10002528:	da011d17 	ldw	r8,1140(sp)
1000252c:	d8c11c17 	ldw	r3,1136(sp)
10002530:	05c40074 	movhi	r23,4097
10002534:	bdfa1a84 	addi	r23,r23,-6038
10002538:	5580200e 	bge	r10,r22,100025bc <___vfprintf_internal_r+0x26c>
1000253c:	dc813815 	stw	r18,1248(sp)
10002540:	5039883a 	mov	fp,r10
10002544:	b825883a 	mov	r18,r23
10002548:	050001c4 	movi	r20,7
1000254c:	b02f883a 	mov	r23,r22
10002550:	802d883a 	mov	r22,r16
10002554:	dc012917 	ldw	r16,1188(sp)
10002558:	00000306 	br	10002568 <___vfprintf_internal_r+0x218>
1000255c:	bdfffc04 	addi	r23,r23,-16
10002560:	4a400204 	addi	r9,r9,8
10002564:	e5c0110e 	bge	fp,r23,100025ac <___vfprintf_internal_r+0x25c>
10002568:	4c800015 	stw	r18,0(r9)
1000256c:	4f000115 	stw	fp,4(r9)
10002570:	42000404 	addi	r8,r8,16
10002574:	18c00044 	addi	r3,r3,1
10002578:	da011d15 	stw	r8,1140(sp)
1000257c:	d8c11c15 	stw	r3,1136(sp)
10002580:	a0fff60e 	bge	r20,r3,1000255c <__alt_data_end+0xf800255c>
10002584:	8809883a 	mov	r4,r17
10002588:	800b883a 	mov	r5,r16
1000258c:	d9811b04 	addi	r6,sp,1132
10002590:	000231c0 	call	1000231c <__sprint_r>
10002594:	1000b41e 	bne	r2,zero,10002868 <___vfprintf_internal_r+0x518>
10002598:	bdfffc04 	addi	r23,r23,-16
1000259c:	da011d17 	ldw	r8,1140(sp)
100025a0:	d8c11c17 	ldw	r3,1136(sp)
100025a4:	da400404 	addi	r9,sp,16
100025a8:	e5ffef16 	blt	fp,r23,10002568 <__alt_data_end+0xf8002568>
100025ac:	b021883a 	mov	r16,r22
100025b0:	b82d883a 	mov	r22,r23
100025b4:	902f883a 	mov	r23,r18
100025b8:	dc813817 	ldw	r18,1248(sp)
100025bc:	4dc00015 	stw	r23,0(r9)
100025c0:	4d800115 	stw	r22,4(r9)
100025c4:	4591883a 	add	r8,r8,r22
100025c8:	18c00044 	addi	r3,r3,1
100025cc:	da011d15 	stw	r8,1140(sp)
100025d0:	d8c11c15 	stw	r3,1136(sp)
100025d4:	008001c4 	movi	r2,7
100025d8:	10c3fe16 	blt	r2,r3,100035d4 <___vfprintf_internal_r+0x1284>
100025dc:	4a400204 	addi	r9,r9,8
100025e0:	0001f306 	br	10002db0 <___vfprintf_internal_r+0xa60>
100025e4:	1085883a 	add	r2,r2,r2
100025e8:	1085883a 	add	r2,r2,r2
100025ec:	01040034 	movhi	r4,4096
100025f0:	21098004 	addi	r4,r4,9728
100025f4:	1105883a 	add	r2,r2,r4
100025f8:	10800017 	ldw	r2,0(r2)
100025fc:	1000683a 	jmp	r2
10002600:	10002cdc 	xori	zero,r2,179
10002604:	100024cc 	andi	zero,r2,147
10002608:	100024cc 	andi	zero,r2,147
1000260c:	10002cf4 	orhi	zero,r2,179
10002610:	100024cc 	andi	zero,r2,147
10002614:	100024cc 	andi	zero,r2,147
10002618:	100024cc 	andi	zero,r2,147
1000261c:	100024cc 	andi	zero,r2,147
10002620:	100024cc 	andi	zero,r2,147
10002624:	100024cc 	andi	zero,r2,147
10002628:	10002bac 	andhi	zero,r2,174
1000262c:	10002d40 	call	110002d4 <_gp+0xfe7d6c>
10002630:	100024cc 	andi	zero,r2,147
10002634:	10002774 	orhi	zero,r2,157
10002638:	10002b14 	ori	zero,r2,172
1000263c:	100024cc 	andi	zero,r2,147
10002640:	10002d00 	call	110002d0 <_gp+0xfe7d68>
10002644:	10002d0c 	andi	zero,r2,180
10002648:	10002d0c 	andi	zero,r2,180
1000264c:	10002d0c 	andi	zero,r2,180
10002650:	10002d0c 	andi	zero,r2,180
10002654:	10002d0c 	andi	zero,r2,180
10002658:	10002d0c 	andi	zero,r2,180
1000265c:	10002d0c 	andi	zero,r2,180
10002660:	10002d0c 	andi	zero,r2,180
10002664:	10002d0c 	andi	zero,r2,180
10002668:	100024cc 	andi	zero,r2,147
1000266c:	100024cc 	andi	zero,r2,147
10002670:	100024cc 	andi	zero,r2,147
10002674:	100024cc 	andi	zero,r2,147
10002678:	100024cc 	andi	zero,r2,147
1000267c:	100024cc 	andi	zero,r2,147
10002680:	100024cc 	andi	zero,r2,147
10002684:	100024cc 	andi	zero,r2,147
10002688:	100024cc 	andi	zero,r2,147
1000268c:	100024cc 	andi	zero,r2,147
10002690:	100028e4 	muli	zero,r2,163
10002694:	100029a4 	muli	zero,r2,166
10002698:	100024cc 	andi	zero,r2,147
1000269c:	100029a4 	muli	zero,r2,166
100026a0:	100024cc 	andi	zero,r2,147
100026a4:	100024cc 	andi	zero,r2,147
100026a8:	100024cc 	andi	zero,r2,147
100026ac:	100024cc 	andi	zero,r2,147
100026b0:	10002a38 	rdprs	zero,r2,168
100026b4:	100024cc 	andi	zero,r2,147
100026b8:	100024cc 	andi	zero,r2,147
100026bc:	10002a44 	addi	zero,r2,169
100026c0:	100024cc 	andi	zero,r2,147
100026c4:	100024cc 	andi	zero,r2,147
100026c8:	100024cc 	andi	zero,r2,147
100026cc:	100024cc 	andi	zero,r2,147
100026d0:	100024cc 	andi	zero,r2,147
100026d4:	10002a7c 	xorhi	zero,r2,169
100026d8:	100024cc 	andi	zero,r2,147
100026dc:	100024cc 	andi	zero,r2,147
100026e0:	10002ab8 	rdprs	zero,r2,170
100026e4:	100024cc 	andi	zero,r2,147
100026e8:	100024cc 	andi	zero,r2,147
100026ec:	100024cc 	andi	zero,r2,147
100026f0:	100024cc 	andi	zero,r2,147
100026f4:	100024cc 	andi	zero,r2,147
100026f8:	100024cc 	andi	zero,r2,147
100026fc:	100024cc 	andi	zero,r2,147
10002700:	100024cc 	andi	zero,r2,147
10002704:	100024cc 	andi	zero,r2,147
10002708:	100024cc 	andi	zero,r2,147
1000270c:	10002d50 	cmplti	zero,r2,181
10002710:	10002d84 	addi	zero,r2,182
10002714:	100029a4 	muli	zero,r2,166
10002718:	100029a4 	muli	zero,r2,166
1000271c:	100029a4 	muli	zero,r2,166
10002720:	10002cd0 	cmplti	zero,r2,179
10002724:	10002d84 	addi	zero,r2,182
10002728:	100024cc 	andi	zero,r2,147
1000272c:	100024cc 	andi	zero,r2,147
10002730:	10002b5c 	xori	zero,r2,173
10002734:	100024cc 	andi	zero,r2,147
10002738:	10002b74 	orhi	zero,r2,173
1000273c:	10002d90 	cmplti	zero,r2,182
10002740:	10002bd4 	ori	zero,r2,175
10002744:	10002c24 	muli	zero,r2,176
10002748:	100024cc 	andi	zero,r2,147
1000274c:	10002c30 	cmpltui	zero,r2,176
10002750:	100024cc 	andi	zero,r2,147
10002754:	10002d9c 	xori	zero,r2,182
10002758:	100024cc 	andi	zero,r2,147
1000275c:	100024cc 	andi	zero,r2,147
10002760:	10002c94 	ori	zero,r2,178
10002764:	d9012e17 	ldw	r4,1208(sp)
10002768:	d8812d15 	stw	r2,1204(sp)
1000276c:	0109c83a 	sub	r4,zero,r4
10002770:	d9012e15 	stw	r4,1208(sp)
10002774:	84000114 	ori	r16,r16,4
10002778:	ac800007 	ldb	r18,0(r21)
1000277c:	003f5006 	br	100024c0 <__alt_data_end+0xf80024c0>
10002780:	d9013017 	ldw	r4,1216(sp)
10002784:	d9412917 	ldw	r5,1188(sp)
10002788:	00041f00 	call	100041f0 <__swsetup_r>
1000278c:	10003d1e 	bne	r2,zero,10002884 <___vfprintf_internal_r+0x534>
10002790:	d8c12917 	ldw	r3,1188(sp)
10002794:	1880030b 	ldhu	r2,12(r3)
10002798:	00c00284 	movi	r3,10
1000279c:	1100068c 	andi	r4,r2,26
100027a0:	20ff101e 	bne	r4,r3,100023e4 <__alt_data_end+0xf80023e4>
100027a4:	d9012917 	ldw	r4,1188(sp)
100027a8:	20c0038b 	ldhu	r3,14(r4)
100027ac:	193fffcc 	andi	r4,r3,65535
100027b0:	2120001c 	xori	r4,r4,32768
100027b4:	21200004 	addi	r4,r4,-32768
100027b8:	203f0a16 	blt	r4,zero,100023e4 <__alt_data_end+0xf80023e4>
100027bc:	d9012917 	ldw	r4,1188(sp)
100027c0:	d9c12d17 	ldw	r7,1204(sp)
100027c4:	10bfff4c 	andi	r2,r2,65533
100027c8:	22800717 	ldw	r10,28(r4)
100027cc:	22400917 	ldw	r9,36(r4)
100027d0:	d9013017 	ldw	r4,1216(sp)
100027d4:	02010004 	movi	r8,1024
100027d8:	d881070d 	sth	r2,1052(sp)
100027dc:	d9410404 	addi	r5,sp,1040
100027e0:	d8800404 	addi	r2,sp,16
100027e4:	800d883a 	mov	r6,r16
100027e8:	d8c1078d 	sth	r3,1054(sp)
100027ec:	da810b15 	stw	r10,1068(sp)
100027f0:	da410d15 	stw	r9,1076(sp)
100027f4:	d8810415 	stw	r2,1040(sp)
100027f8:	d8810815 	stw	r2,1056(sp)
100027fc:	da010615 	stw	r8,1048(sp)
10002800:	da010915 	stw	r8,1060(sp)
10002804:	d8010a15 	stw	zero,1064(sp)
10002808:	00023500 	call	10002350 <___vfprintf_internal_r>
1000280c:	d8812c15 	stw	r2,1200(sp)
10002810:	10000416 	blt	r2,zero,10002824 <___vfprintf_internal_r+0x4d4>
10002814:	d9013017 	ldw	r4,1216(sp)
10002818:	d9410404 	addi	r5,sp,1040
1000281c:	0005bbc0 	call	10005bbc <_fflush_r>
10002820:	1006501e 	bne	r2,zero,10004164 <___vfprintf_internal_r+0x1e14>
10002824:	d881070b 	ldhu	r2,1052(sp)
10002828:	1080100c 	andi	r2,r2,64
1000282c:	10bfffcc 	andi	r2,r2,65535
10002830:	10a0001c 	xori	r2,r2,32768
10002834:	10a00004 	addi	r2,r2,-32768
10002838:	10001426 	beq	r2,zero,1000288c <___vfprintf_internal_r+0x53c>
1000283c:	d8c12917 	ldw	r3,1188(sp)
10002840:	1880030b 	ldhu	r2,12(r3)
10002844:	10801014 	ori	r2,r2,64
10002848:	1880030d 	sth	r2,12(r3)
1000284c:	00000f06 	br	1000288c <___vfprintf_internal_r+0x53c>
10002850:	d8811d17 	ldw	r2,1140(sp)
10002854:	10000426 	beq	r2,zero,10002868 <___vfprintf_internal_r+0x518>
10002858:	d9013017 	ldw	r4,1216(sp)
1000285c:	d9412917 	ldw	r5,1188(sp)
10002860:	d9811b04 	addi	r6,sp,1132
10002864:	000231c0 	call	1000231c <__sprint_r>
10002868:	d8c12917 	ldw	r3,1188(sp)
1000286c:	1880030b 	ldhu	r2,12(r3)
10002870:	1080100c 	andi	r2,r2,64
10002874:	10bfffcc 	andi	r2,r2,65535
10002878:	10a0001c 	xori	r2,r2,32768
1000287c:	10a00004 	addi	r2,r2,-32768
10002880:	10000226 	beq	r2,zero,1000288c <___vfprintf_internal_r+0x53c>
10002884:	00bfffc4 	movi	r2,-1
10002888:	d8812c15 	stw	r2,1200(sp)
1000288c:	d8812c17 	ldw	r2,1200(sp)
10002890:	dfc14617 	ldw	ra,1304(sp)
10002894:	df014517 	ldw	fp,1300(sp)
10002898:	ddc14417 	ldw	r23,1296(sp)
1000289c:	dd814317 	ldw	r22,1292(sp)
100028a0:	dd414217 	ldw	r21,1288(sp)
100028a4:	dd014117 	ldw	r20,1284(sp)
100028a8:	dcc14017 	ldw	r19,1280(sp)
100028ac:	dc813f17 	ldw	r18,1276(sp)
100028b0:	dc413e17 	ldw	r17,1272(sp)
100028b4:	dc013d17 	ldw	r16,1268(sp)
100028b8:	dec14704 	addi	sp,sp,1308
100028bc:	f800283a 	ret
100028c0:	d9412917 	ldw	r5,1188(sp)
100028c4:	8809883a 	mov	r4,r17
100028c8:	d9811b04 	addi	r6,sp,1132
100028cc:	000231c0 	call	1000231c <__sprint_r>
100028d0:	103fe51e 	bne	r2,zero,10002868 <__alt_data_end+0xf8002868>
100028d4:	da400404 	addi	r9,sp,16
100028d8:	003eea06 	br	10002484 <__alt_data_end+0xf8002484>
100028dc:	0005e780 	call	10005e78 <__sinit>
100028e0:	003eb306 	br	100023b0 <__alt_data_end+0xf80023b0>
100028e4:	e013883a 	mov	r9,fp
100028e8:	84000414 	ori	r16,r16,16
100028ec:	1839883a 	mov	fp,r3
100028f0:	8080080c 	andi	r2,r16,32
100028f4:	10034426 	beq	r2,zero,10003608 <___vfprintf_internal_r+0x12b8>
100028f8:	d8c12d17 	ldw	r3,1204(sp)
100028fc:	18800117 	ldw	r2,4(r3)
10002900:	1dc00017 	ldw	r23,0(r3)
10002904:	18c00204 	addi	r3,r3,8
10002908:	d8c12d15 	stw	r3,1204(sp)
1000290c:	102d883a 	mov	r22,r2
10002910:	1003020e 	bge	r2,zero,1000351c <___vfprintf_internal_r+0x11cc>
10002914:	05efc83a 	sub	r23,zero,r23
10002918:	b804c03a 	cmpne	r2,r23,zero
1000291c:	05adc83a 	sub	r22,zero,r22
10002920:	b0adc83a 	sub	r22,r22,r2
10002924:	00800b44 	movi	r2,45
10002928:	d8812585 	stb	r2,1174(sp)
1000292c:	00c00044 	movi	r3,1
10002930:	bd84b03a 	or	r2,r23,r22
10002934:	e0000216 	blt	fp,zero,10002940 <___vfprintf_internal_r+0x5f0>
10002938:	013fdfc4 	movi	r4,-129
1000293c:	8120703a 	and	r16,r16,r4
10002940:	1001cc1e 	bne	r2,zero,10003074 <___vfprintf_internal_r+0xd24>
10002944:	e001cb1e 	bne	fp,zero,10003074 <___vfprintf_internal_r+0xd24>
10002948:	18c03fcc 	andi	r3,r3,255
1000294c:	1802ca1e 	bne	r3,zero,10003478 <___vfprintf_internal_r+0x1128>
10002950:	8080004c 	andi	r2,r16,1
10002954:	1002c826 	beq	r2,zero,10003478 <___vfprintf_internal_r+0x1128>
10002958:	d8c13917 	ldw	r3,1252(sp)
1000295c:	00800c04 	movi	r2,48
10002960:	d8810dc5 	stb	r2,1079(sp)
10002964:	d8c12b15 	stw	r3,1196(sp)
10002968:	dcc10dc4 	addi	r19,sp,1079
1000296c:	d8812b17 	ldw	r2,1196(sp)
10002970:	d8812815 	stw	r2,1184(sp)
10002974:	1700010e 	bge	r2,fp,1000297c <___vfprintf_internal_r+0x62c>
10002978:	df012815 	stw	fp,1184(sp)
1000297c:	d8812583 	ldbu	r2,1174(sp)
10002980:	df013115 	stw	fp,1220(sp)
10002984:	10803fcc 	andi	r2,r2,255
10002988:	1080201c 	xori	r2,r2,128
1000298c:	10bfe004 	addi	r2,r2,-128
10002990:	103ed726 	beq	r2,zero,100024f0 <__alt_data_end+0xf80024f0>
10002994:	d8c12817 	ldw	r3,1184(sp)
10002998:	18c00044 	addi	r3,r3,1
1000299c:	d8c12815 	stw	r3,1184(sp)
100029a0:	003ed306 	br	100024f0 <__alt_data_end+0xf80024f0>
100029a4:	8080020c 	andi	r2,r16,8
100029a8:	e013883a 	mov	r9,fp
100029ac:	1839883a 	mov	fp,r3
100029b0:	1003a626 	beq	r2,zero,1000384c <___vfprintf_internal_r+0x14fc>
100029b4:	d9012d17 	ldw	r4,1204(sp)
100029b8:	25800017 	ldw	r22,0(r4)
100029bc:	25000117 	ldw	r20,4(r4)
100029c0:	21000204 	addi	r4,r4,8
100029c4:	d9012d15 	stw	r4,1204(sp)
100029c8:	dd813315 	stw	r22,1228(sp)
100029cc:	dd013415 	stw	r20,1232(sp)
100029d0:	b009883a 	mov	r4,r22
100029d4:	a00b883a 	mov	r5,r20
100029d8:	da413c15 	stw	r9,1264(sp)
100029dc:	00090040 	call	10009004 <__isinfd>
100029e0:	da413c17 	ldw	r9,1264(sp)
100029e4:	b009883a 	mov	r4,r22
100029e8:	a00b883a 	mov	r5,r20
100029ec:	10041d26 	beq	r2,zero,10003a64 <___vfprintf_internal_r+0x1714>
100029f0:	000d883a 	mov	r6,zero
100029f4:	000f883a 	mov	r7,zero
100029f8:	000add80 	call	1000add8 <__ltdf2>
100029fc:	da413c17 	ldw	r9,1264(sp)
10002a00:	1004da16 	blt	r2,zero,10003d6c <___vfprintf_internal_r+0x1a1c>
10002a04:	d8812583 	ldbu	r2,1174(sp)
10002a08:	00c011c4 	movi	r3,71
10002a0c:	1c83d116 	blt	r3,r18,10003954 <___vfprintf_internal_r+0x1604>
10002a10:	04c40074 	movhi	r19,4097
10002a14:	9cfa0a04 	addi	r19,r19,-6104
10002a18:	00c000c4 	movi	r3,3
10002a1c:	d8c12815 	stw	r3,1184(sp)
10002a20:	00ffdfc4 	movi	r3,-129
10002a24:	80e0703a 	and	r16,r16,r3
10002a28:	d8c12817 	ldw	r3,1184(sp)
10002a2c:	d8013115 	stw	zero,1220(sp)
10002a30:	d8c12b15 	stw	r3,1196(sp)
10002a34:	003fd306 	br	10002984 <__alt_data_end+0xf8002984>
10002a38:	84000214 	ori	r16,r16,8
10002a3c:	ac800007 	ldb	r18,0(r21)
10002a40:	003e9f06 	br	100024c0 <__alt_data_end+0xf80024c0>
10002a44:	e013883a 	mov	r9,fp
10002a48:	84000414 	ori	r16,r16,16
10002a4c:	1839883a 	mov	fp,r3
10002a50:	8080080c 	andi	r2,r16,32
10002a54:	10031d26 	beq	r2,zero,100036cc <___vfprintf_internal_r+0x137c>
10002a58:	d8812d17 	ldw	r2,1204(sp)
10002a5c:	0007883a 	mov	r3,zero
10002a60:	15c00017 	ldw	r23,0(r2)
10002a64:	15800117 	ldw	r22,4(r2)
10002a68:	10800204 	addi	r2,r2,8
10002a6c:	d8812d15 	stw	r2,1204(sp)
10002a70:	d8012585 	stb	zero,1174(sp)
10002a74:	bd84b03a 	or	r2,r23,r22
10002a78:	003fae06 	br	10002934 <__alt_data_end+0xf8002934>
10002a7c:	e013883a 	mov	r9,fp
10002a80:	84000414 	ori	r16,r16,16
10002a84:	1839883a 	mov	fp,r3
10002a88:	8080080c 	andi	r2,r16,32
10002a8c:	1002e726 	beq	r2,zero,1000362c <___vfprintf_internal_r+0x12dc>
10002a90:	d8c12d17 	ldw	r3,1204(sp)
10002a94:	d9012d17 	ldw	r4,1204(sp)
10002a98:	1dc00017 	ldw	r23,0(r3)
10002a9c:	1d800117 	ldw	r22,4(r3)
10002aa0:	21000204 	addi	r4,r4,8
10002aa4:	00c00044 	movi	r3,1
10002aa8:	d9012d15 	stw	r4,1204(sp)
10002aac:	bd84b03a 	or	r2,r23,r22
10002ab0:	d8012585 	stb	zero,1174(sp)
10002ab4:	003f9f06 	br	10002934 <__alt_data_end+0xf8002934>
10002ab8:	e013883a 	mov	r9,fp
10002abc:	1839883a 	mov	fp,r3
10002ac0:	00c40074 	movhi	r3,4097
10002ac4:	18fa0e04 	addi	r3,r3,-6088
10002ac8:	d8c13615 	stw	r3,1240(sp)
10002acc:	8080080c 	andi	r2,r16,32
10002ad0:	10007726 	beq	r2,zero,10002cb0 <___vfprintf_internal_r+0x960>
10002ad4:	d9012d17 	ldw	r4,1204(sp)
10002ad8:	25c00017 	ldw	r23,0(r4)
10002adc:	25800117 	ldw	r22,4(r4)
10002ae0:	21000204 	addi	r4,r4,8
10002ae4:	d9012d15 	stw	r4,1204(sp)
10002ae8:	8080004c 	andi	r2,r16,1
10002aec:	1002c226 	beq	r2,zero,100035f8 <___vfprintf_internal_r+0x12a8>
10002af0:	bd84b03a 	or	r2,r23,r22
10002af4:	10035d26 	beq	r2,zero,1000386c <___vfprintf_internal_r+0x151c>
10002af8:	00c00c04 	movi	r3,48
10002afc:	d8c12505 	stb	r3,1172(sp)
10002b00:	dc812545 	stb	r18,1173(sp)
10002b04:	84000094 	ori	r16,r16,2
10002b08:	00c00084 	movi	r3,2
10002b0c:	d8012585 	stb	zero,1174(sp)
10002b10:	003f8806 	br	10002934 <__alt_data_end+0xf8002934>
10002b14:	ac800007 	ldb	r18,0(r21)
10002b18:	00c00a84 	movi	r3,42
10002b1c:	adc00044 	addi	r23,r21,1
10002b20:	90c57526 	beq	r18,r3,100040f8 <___vfprintf_internal_r+0x1da8>
10002b24:	95bff404 	addi	r22,r18,-48
10002b28:	0009883a 	mov	r4,zero
10002b2c:	9d84ff36 	bltu	r19,r22,10003f2c <___vfprintf_internal_r+0x1bdc>
10002b30:	01400284 	movi	r5,10
10002b34:	000b2180 	call	1000b218 <__mulsi3>
10002b38:	bc800007 	ldb	r18,0(r23)
10002b3c:	b089883a 	add	r4,r22,r2
10002b40:	bdc00044 	addi	r23,r23,1
10002b44:	95bff404 	addi	r22,r18,-48
10002b48:	9dbff92e 	bgeu	r19,r22,10002b30 <__alt_data_end+0xf8002b30>
10002b4c:	2007883a 	mov	r3,r4
10002b50:	20044316 	blt	r4,zero,10003c60 <___vfprintf_internal_r+0x1910>
10002b54:	b82b883a 	mov	r21,r23
10002b58:	003e5a06 	br	100024c4 <__alt_data_end+0xf80024c4>
10002b5c:	ac800007 	ldb	r18,0(r21)
10002b60:	01001b04 	movi	r4,108
10002b64:	a805883a 	mov	r2,r21
10002b68:	91045526 	beq	r18,r4,10003cc0 <___vfprintf_internal_r+0x1970>
10002b6c:	84000414 	ori	r16,r16,16
10002b70:	003e5306 	br	100024c0 <__alt_data_end+0xf80024c0>
10002b74:	8080080c 	andi	r2,r16,32
10002b78:	e013883a 	mov	r9,fp
10002b7c:	10034026 	beq	r2,zero,10003880 <___vfprintf_internal_r+0x1530>
10002b80:	d9012d17 	ldw	r4,1204(sp)
10002b84:	20800017 	ldw	r2,0(r4)
10002b88:	d9012c17 	ldw	r4,1200(sp)
10002b8c:	2007d7fa 	srai	r3,r4,31
10002b90:	d9012d17 	ldw	r4,1204(sp)
10002b94:	10c00115 	stw	r3,4(r2)
10002b98:	21000104 	addi	r4,r4,4
10002b9c:	d9012d15 	stw	r4,1204(sp)
10002ba0:	d9012c17 	ldw	r4,1200(sp)
10002ba4:	11000015 	stw	r4,0(r2)
10002ba8:	003e1f06 	br	10002428 <__alt_data_end+0xf8002428>
10002bac:	d9012d17 	ldw	r4,1204(sp)
10002bb0:	21000017 	ldw	r4,0(r4)
10002bb4:	d9012e15 	stw	r4,1208(sp)
10002bb8:	d9012d17 	ldw	r4,1204(sp)
10002bbc:	20800104 	addi	r2,r4,4
10002bc0:	d9012e17 	ldw	r4,1208(sp)
10002bc4:	203ee716 	blt	r4,zero,10002764 <__alt_data_end+0xf8002764>
10002bc8:	d8812d15 	stw	r2,1204(sp)
10002bcc:	ac800007 	ldb	r18,0(r21)
10002bd0:	003e3b06 	br	100024c0 <__alt_data_end+0xf80024c0>
10002bd4:	e013883a 	mov	r9,fp
10002bd8:	1839883a 	mov	fp,r3
10002bdc:	d8c12d17 	ldw	r3,1204(sp)
10002be0:	00800c04 	movi	r2,48
10002be4:	01040074 	movhi	r4,4097
10002be8:	213a1304 	addi	r4,r4,-6068
10002bec:	1dc00017 	ldw	r23,0(r3)
10002bf0:	18c00104 	addi	r3,r3,4
10002bf4:	d8812505 	stb	r2,1172(sp)
10002bf8:	00801e04 	movi	r2,120
10002bfc:	d8812545 	stb	r2,1173(sp)
10002c00:	d8c12d15 	stw	r3,1204(sp)
10002c04:	002d883a 	mov	r22,zero
10002c08:	84000094 	ori	r16,r16,2
10002c0c:	d9013615 	stw	r4,1240(sp)
10002c10:	00c00084 	movi	r3,2
10002c14:	04801e04 	movi	r18,120
10002c18:	b805883a 	mov	r2,r23
10002c1c:	d8012585 	stb	zero,1174(sp)
10002c20:	003f4406 	br	10002934 <__alt_data_end+0xf8002934>
10002c24:	84000814 	ori	r16,r16,32
10002c28:	ac800007 	ldb	r18,0(r21)
10002c2c:	003e2406 	br	100024c0 <__alt_data_end+0xf80024c0>
10002c30:	d8812d17 	ldw	r2,1204(sp)
10002c34:	d8012585 	stb	zero,1174(sp)
10002c38:	e013883a 	mov	r9,fp
10002c3c:	14c00017 	ldw	r19,0(r2)
10002c40:	1839883a 	mov	fp,r3
10002c44:	15c00104 	addi	r23,r2,4
10002c48:	98045526 	beq	r19,zero,10003da0 <___vfprintf_internal_r+0x1a50>
10002c4c:	9809883a 	mov	r4,r19
10002c50:	18043116 	blt	r3,zero,10003d18 <___vfprintf_internal_r+0x19c8>
10002c54:	000b883a 	mov	r5,zero
10002c58:	180d883a 	mov	r6,r3
10002c5c:	da413c15 	stw	r9,1264(sp)
10002c60:	00075180 	call	10007518 <memchr>
10002c64:	da413c17 	ldw	r9,1264(sp)
10002c68:	10047a26 	beq	r2,zero,10003e54 <___vfprintf_internal_r+0x1b04>
10002c6c:	14c5c83a 	sub	r2,r2,r19
10002c70:	d8812b15 	stw	r2,1196(sp)
10002c74:	e083d40e 	bge	fp,r2,10003bc8 <___vfprintf_internal_r+0x1878>
10002c78:	df012815 	stw	fp,1184(sp)
10002c7c:	e004e416 	blt	fp,zero,10004010 <___vfprintf_internal_r+0x1cc0>
10002c80:	d8812583 	ldbu	r2,1174(sp)
10002c84:	df012b15 	stw	fp,1196(sp)
10002c88:	ddc12d15 	stw	r23,1204(sp)
10002c8c:	d8013115 	stw	zero,1220(sp)
10002c90:	003f3c06 	br	10002984 <__alt_data_end+0xf8002984>
10002c94:	00840074 	movhi	r2,4097
10002c98:	10ba1304 	addi	r2,r2,-6068
10002c9c:	d8813615 	stw	r2,1240(sp)
10002ca0:	8080080c 	andi	r2,r16,32
10002ca4:	e013883a 	mov	r9,fp
10002ca8:	1839883a 	mov	fp,r3
10002cac:	103f891e 	bne	r2,zero,10002ad4 <__alt_data_end+0xf8002ad4>
10002cb0:	8080040c 	andi	r2,r16,16
10002cb4:	1002c326 	beq	r2,zero,100037c4 <___vfprintf_internal_r+0x1474>
10002cb8:	d8812d17 	ldw	r2,1204(sp)
10002cbc:	002d883a 	mov	r22,zero
10002cc0:	15c00017 	ldw	r23,0(r2)
10002cc4:	10800104 	addi	r2,r2,4
10002cc8:	d8812d15 	stw	r2,1204(sp)
10002ccc:	003f8606 	br	10002ae8 <__alt_data_end+0xf8002ae8>
10002cd0:	84001014 	ori	r16,r16,64
10002cd4:	ac800007 	ldb	r18,0(r21)
10002cd8:	003df906 	br	100024c0 <__alt_data_end+0xf80024c0>
10002cdc:	d8812587 	ldb	r2,1174(sp)
10002ce0:	1002e51e 	bne	r2,zero,10003878 <___vfprintf_internal_r+0x1528>
10002ce4:	00800804 	movi	r2,32
10002ce8:	d8812585 	stb	r2,1174(sp)
10002cec:	ac800007 	ldb	r18,0(r21)
10002cf0:	003df306 	br	100024c0 <__alt_data_end+0xf80024c0>
10002cf4:	84000054 	ori	r16,r16,1
10002cf8:	ac800007 	ldb	r18,0(r21)
10002cfc:	003df006 	br	100024c0 <__alt_data_end+0xf80024c0>
10002d00:	84002014 	ori	r16,r16,128
10002d04:	ac800007 	ldb	r18,0(r21)
10002d08:	003ded06 	br	100024c0 <__alt_data_end+0xf80024c0>
10002d0c:	0009883a 	mov	r4,zero
10002d10:	95bff404 	addi	r22,r18,-48
10002d14:	182f883a 	mov	r23,r3
10002d18:	01400284 	movi	r5,10
10002d1c:	000b2180 	call	1000b218 <__mulsi3>
10002d20:	ac800007 	ldb	r18,0(r21)
10002d24:	1589883a 	add	r4,r2,r22
10002d28:	ad400044 	addi	r21,r21,1
10002d2c:	95bff404 	addi	r22,r18,-48
10002d30:	9dbff92e 	bgeu	r19,r22,10002d18 <__alt_data_end+0xf8002d18>
10002d34:	b807883a 	mov	r3,r23
10002d38:	d9012e15 	stw	r4,1208(sp)
10002d3c:	003de106 	br	100024c4 <__alt_data_end+0xf80024c4>
10002d40:	00800ac4 	movi	r2,43
10002d44:	d8812585 	stb	r2,1174(sp)
10002d48:	ac800007 	ldb	r18,0(r21)
10002d4c:	003ddc06 	br	100024c0 <__alt_data_end+0xf80024c0>
10002d50:	d8c12d17 	ldw	r3,1204(sp)
10002d54:	d9012d17 	ldw	r4,1204(sp)
10002d58:	e013883a 	mov	r9,fp
10002d5c:	18800017 	ldw	r2,0(r3)
10002d60:	21000104 	addi	r4,r4,4
10002d64:	00c00044 	movi	r3,1
10002d68:	d8c12815 	stw	r3,1184(sp)
10002d6c:	d8012585 	stb	zero,1174(sp)
10002d70:	d8810405 	stb	r2,1040(sp)
10002d74:	d9012d15 	stw	r4,1204(sp)
10002d78:	d8c12b15 	stw	r3,1196(sp)
10002d7c:	dcc10404 	addi	r19,sp,1040
10002d80:	003dda06 	br	100024ec <__alt_data_end+0xf80024ec>
10002d84:	e013883a 	mov	r9,fp
10002d88:	1839883a 	mov	fp,r3
10002d8c:	003ed806 	br	100028f0 <__alt_data_end+0xf80028f0>
10002d90:	e013883a 	mov	r9,fp
10002d94:	1839883a 	mov	fp,r3
10002d98:	003f2d06 	br	10002a50 <__alt_data_end+0xf8002a50>
10002d9c:	e013883a 	mov	r9,fp
10002da0:	1839883a 	mov	fp,r3
10002da4:	003f3806 	br	10002a88 <__alt_data_end+0xf8002a88>
10002da8:	da011d17 	ldw	r8,1140(sp)
10002dac:	d8c11c17 	ldw	r3,1136(sp)
10002db0:	d8812587 	ldb	r2,1174(sp)
10002db4:	10000b26 	beq	r2,zero,10002de4 <___vfprintf_internal_r+0xa94>
10002db8:	d8812584 	addi	r2,sp,1174
10002dbc:	48800015 	stw	r2,0(r9)
10002dc0:	00800044 	movi	r2,1
10002dc4:	48800115 	stw	r2,4(r9)
10002dc8:	4091883a 	add	r8,r8,r2
10002dcc:	1887883a 	add	r3,r3,r2
10002dd0:	da011d15 	stw	r8,1140(sp)
10002dd4:	d8c11c15 	stw	r3,1136(sp)
10002dd8:	008001c4 	movi	r2,7
10002ddc:	10c18e16 	blt	r2,r3,10003418 <___vfprintf_internal_r+0x10c8>
10002de0:	4a400204 	addi	r9,r9,8
10002de4:	d9012a17 	ldw	r4,1192(sp)
10002de8:	20000b26 	beq	r4,zero,10002e18 <___vfprintf_internal_r+0xac8>
10002dec:	d8812504 	addi	r2,sp,1172
10002df0:	48800015 	stw	r2,0(r9)
10002df4:	00800084 	movi	r2,2
10002df8:	48800115 	stw	r2,4(r9)
10002dfc:	4091883a 	add	r8,r8,r2
10002e00:	18c00044 	addi	r3,r3,1
10002e04:	da011d15 	stw	r8,1140(sp)
10002e08:	d8c11c15 	stw	r3,1136(sp)
10002e0c:	008001c4 	movi	r2,7
10002e10:	10c17816 	blt	r2,r3,100033f4 <___vfprintf_internal_r+0x10a4>
10002e14:	4a400204 	addi	r9,r9,8
10002e18:	d9012f17 	ldw	r4,1212(sp)
10002e1c:	00802004 	movi	r2,128
10002e20:	2080fc26 	beq	r4,r2,10003214 <___vfprintf_internal_r+0xec4>
10002e24:	d8813117 	ldw	r2,1220(sp)
10002e28:	d9012b17 	ldw	r4,1196(sp)
10002e2c:	112fc83a 	sub	r23,r2,r4
10002e30:	05c02a0e 	bge	zero,r23,10002edc <___vfprintf_internal_r+0xb8c>
10002e34:	07000404 	movi	fp,16
10002e38:	05040074 	movhi	r20,4097
10002e3c:	a53a1e84 	addi	r20,r20,-6022
10002e40:	e5c01d0e 	bge	fp,r23,10002eb8 <___vfprintf_internal_r+0xb68>
10002e44:	dc812a15 	stw	r18,1192(sp)
10002e48:	058001c4 	movi	r22,7
10002e4c:	a025883a 	mov	r18,r20
10002e50:	8029883a 	mov	r20,r16
10002e54:	dc012917 	ldw	r16,1188(sp)
10002e58:	00000306 	br	10002e68 <___vfprintf_internal_r+0xb18>
10002e5c:	bdfffc04 	addi	r23,r23,-16
10002e60:	4a400204 	addi	r9,r9,8
10002e64:	e5c0110e 	bge	fp,r23,10002eac <___vfprintf_internal_r+0xb5c>
10002e68:	4c800015 	stw	r18,0(r9)
10002e6c:	4f000115 	stw	fp,4(r9)
10002e70:	42000404 	addi	r8,r8,16
10002e74:	18c00044 	addi	r3,r3,1
10002e78:	da011d15 	stw	r8,1140(sp)
10002e7c:	d8c11c15 	stw	r3,1136(sp)
10002e80:	b0fff60e 	bge	r22,r3,10002e5c <__alt_data_end+0xf8002e5c>
10002e84:	8809883a 	mov	r4,r17
10002e88:	800b883a 	mov	r5,r16
10002e8c:	d9811b04 	addi	r6,sp,1132
10002e90:	000231c0 	call	1000231c <__sprint_r>
10002e94:	103e741e 	bne	r2,zero,10002868 <__alt_data_end+0xf8002868>
10002e98:	bdfffc04 	addi	r23,r23,-16
10002e9c:	da011d17 	ldw	r8,1140(sp)
10002ea0:	d8c11c17 	ldw	r3,1136(sp)
10002ea4:	da400404 	addi	r9,sp,16
10002ea8:	e5ffef16 	blt	fp,r23,10002e68 <__alt_data_end+0xf8002e68>
10002eac:	a021883a 	mov	r16,r20
10002eb0:	9029883a 	mov	r20,r18
10002eb4:	dc812a17 	ldw	r18,1192(sp)
10002eb8:	4d000015 	stw	r20,0(r9)
10002ebc:	4dc00115 	stw	r23,4(r9)
10002ec0:	45d1883a 	add	r8,r8,r23
10002ec4:	18c00044 	addi	r3,r3,1
10002ec8:	da011d15 	stw	r8,1140(sp)
10002ecc:	d8c11c15 	stw	r3,1136(sp)
10002ed0:	008001c4 	movi	r2,7
10002ed4:	10c13e16 	blt	r2,r3,100033d0 <___vfprintf_internal_r+0x1080>
10002ed8:	4a400204 	addi	r9,r9,8
10002edc:	8080400c 	andi	r2,r16,256
10002ee0:	1000831e 	bne	r2,zero,100030f0 <___vfprintf_internal_r+0xda0>
10002ee4:	d8812b17 	ldw	r2,1196(sp)
10002ee8:	4cc00015 	stw	r19,0(r9)
10002eec:	48800115 	stw	r2,4(r9)
10002ef0:	4091883a 	add	r8,r8,r2
10002ef4:	18c00044 	addi	r3,r3,1
10002ef8:	da011d15 	stw	r8,1140(sp)
10002efc:	d8c11c15 	stw	r3,1136(sp)
10002f00:	008001c4 	movi	r2,7
10002f04:	10c05316 	blt	r2,r3,10003054 <___vfprintf_internal_r+0xd04>
10002f08:	4a400204 	addi	r9,r9,8
10002f0c:	8400010c 	andi	r16,r16,4
10002f10:	80002e26 	beq	r16,zero,10002fcc <___vfprintf_internal_r+0xc7c>
10002f14:	d8812e17 	ldw	r2,1208(sp)
10002f18:	d8c12817 	ldw	r3,1184(sp)
10002f1c:	10e1c83a 	sub	r16,r2,r3
10002f20:	04002a0e 	bge	zero,r16,10002fcc <___vfprintf_internal_r+0xc7c>
10002f24:	04800404 	movi	r18,16
10002f28:	d8c11c17 	ldw	r3,1136(sp)
10002f2c:	05c40074 	movhi	r23,4097
10002f30:	bdfa1a84 	addi	r23,r23,-6038
10002f34:	9400170e 	bge	r18,r16,10002f94 <___vfprintf_internal_r+0xc44>
10002f38:	04c001c4 	movi	r19,7
10002f3c:	dd012917 	ldw	r20,1188(sp)
10002f40:	00000306 	br	10002f50 <___vfprintf_internal_r+0xc00>
10002f44:	843ffc04 	addi	r16,r16,-16
10002f48:	4a400204 	addi	r9,r9,8
10002f4c:	9400110e 	bge	r18,r16,10002f94 <___vfprintf_internal_r+0xc44>
10002f50:	4dc00015 	stw	r23,0(r9)
10002f54:	4c800115 	stw	r18,4(r9)
10002f58:	42000404 	addi	r8,r8,16
10002f5c:	18c00044 	addi	r3,r3,1
10002f60:	da011d15 	stw	r8,1140(sp)
10002f64:	d8c11c15 	stw	r3,1136(sp)
10002f68:	98fff60e 	bge	r19,r3,10002f44 <__alt_data_end+0xf8002f44>
10002f6c:	8809883a 	mov	r4,r17
10002f70:	a00b883a 	mov	r5,r20
10002f74:	d9811b04 	addi	r6,sp,1132
10002f78:	000231c0 	call	1000231c <__sprint_r>
10002f7c:	103e3a1e 	bne	r2,zero,10002868 <__alt_data_end+0xf8002868>
10002f80:	843ffc04 	addi	r16,r16,-16
10002f84:	da011d17 	ldw	r8,1140(sp)
10002f88:	d8c11c17 	ldw	r3,1136(sp)
10002f8c:	da400404 	addi	r9,sp,16
10002f90:	943fef16 	blt	r18,r16,10002f50 <__alt_data_end+0xf8002f50>
10002f94:	4dc00015 	stw	r23,0(r9)
10002f98:	4c000115 	stw	r16,4(r9)
10002f9c:	8211883a 	add	r8,r16,r8
10002fa0:	18c00044 	addi	r3,r3,1
10002fa4:	da011d15 	stw	r8,1140(sp)
10002fa8:	d8c11c15 	stw	r3,1136(sp)
10002fac:	008001c4 	movi	r2,7
10002fb0:	10c0060e 	bge	r2,r3,10002fcc <___vfprintf_internal_r+0xc7c>
10002fb4:	d9412917 	ldw	r5,1188(sp)
10002fb8:	8809883a 	mov	r4,r17
10002fbc:	d9811b04 	addi	r6,sp,1132
10002fc0:	000231c0 	call	1000231c <__sprint_r>
10002fc4:	103e281e 	bne	r2,zero,10002868 <__alt_data_end+0xf8002868>
10002fc8:	da011d17 	ldw	r8,1140(sp)
10002fcc:	dd012817 	ldw	r20,1184(sp)
10002fd0:	d9012e17 	ldw	r4,1208(sp)
10002fd4:	a100010e 	bge	r20,r4,10002fdc <___vfprintf_internal_r+0xc8c>
10002fd8:	2029883a 	mov	r20,r4
10002fdc:	d8812c17 	ldw	r2,1200(sp)
10002fe0:	1505883a 	add	r2,r2,r20
10002fe4:	d8812c15 	stw	r2,1200(sp)
10002fe8:	4000b91e 	bne	r8,zero,100032d0 <___vfprintf_internal_r+0xf80>
10002fec:	d8011c15 	stw	zero,1136(sp)
10002ff0:	a8800007 	ldb	r2,0(r21)
10002ff4:	da400404 	addi	r9,sp,16
10002ff8:	103d0d1e 	bne	r2,zero,10002430 <__alt_data_end+0xf8002430>
10002ffc:	a825883a 	mov	r18,r21
10003000:	003d2306 	br	10002490 <__alt_data_end+0xf8002490>
10003004:	d9412917 	ldw	r5,1188(sp)
10003008:	8809883a 	mov	r4,r17
1000300c:	d9811b04 	addi	r6,sp,1132
10003010:	000231c0 	call	1000231c <__sprint_r>
10003014:	103e141e 	bne	r2,zero,10002868 <__alt_data_end+0xf8002868>
10003018:	da011d17 	ldw	r8,1140(sp)
1000301c:	da400404 	addi	r9,sp,16
10003020:	8080004c 	andi	r2,r16,1
10003024:	103fb926 	beq	r2,zero,10002f0c <__alt_data_end+0xf8002f0c>
10003028:	d8c11c17 	ldw	r3,1136(sp)
1000302c:	d9013717 	ldw	r4,1244(sp)
10003030:	00800044 	movi	r2,1
10003034:	48800115 	stw	r2,4(r9)
10003038:	49000015 	stw	r4,0(r9)
1000303c:	4091883a 	add	r8,r8,r2
10003040:	1887883a 	add	r3,r3,r2
10003044:	da011d15 	stw	r8,1140(sp)
10003048:	d8c11c15 	stw	r3,1136(sp)
1000304c:	008001c4 	movi	r2,7
10003050:	10ffad0e 	bge	r2,r3,10002f08 <__alt_data_end+0xf8002f08>
10003054:	d9412917 	ldw	r5,1188(sp)
10003058:	8809883a 	mov	r4,r17
1000305c:	d9811b04 	addi	r6,sp,1132
10003060:	000231c0 	call	1000231c <__sprint_r>
10003064:	103e001e 	bne	r2,zero,10002868 <__alt_data_end+0xf8002868>
10003068:	da400404 	addi	r9,sp,16
1000306c:	da011d17 	ldw	r8,1140(sp)
10003070:	003fa606 	br	10002f0c <__alt_data_end+0xf8002f0c>
10003074:	18803fcc 	andi	r2,r3,255
10003078:	00c00044 	movi	r3,1
1000307c:	10c10126 	beq	r2,r3,10003484 <___vfprintf_internal_r+0x1134>
10003080:	00c00084 	movi	r3,2
10003084:	10c0ed26 	beq	r2,r3,1000343c <___vfprintf_internal_r+0x10ec>
10003088:	d8c10dc4 	addi	r3,sp,1079
1000308c:	b808d0fa 	srli	r4,r23,3
10003090:	b00a977a 	slli	r5,r22,29
10003094:	b02cd0fa 	srli	r22,r22,3
10003098:	bdc001cc 	andi	r23,r23,7
1000309c:	b8800c04 	addi	r2,r23,48
100030a0:	292eb03a 	or	r23,r5,r4
100030a4:	18800005 	stb	r2,0(r3)
100030a8:	bd88b03a 	or	r4,r23,r22
100030ac:	1827883a 	mov	r19,r3
100030b0:	18ffffc4 	addi	r3,r3,-1
100030b4:	203ff51e 	bne	r4,zero,1000308c <__alt_data_end+0xf800308c>
100030b8:	8100004c 	andi	r4,r16,1
100030bc:	980b883a 	mov	r5,r19
100030c0:	20000726 	beq	r4,zero,100030e0 <___vfprintf_internal_r+0xd90>
100030c4:	10803fcc 	andi	r2,r2,255
100030c8:	1080201c 	xori	r2,r2,128
100030cc:	10bfe004 	addi	r2,r2,-128
100030d0:	01000c04 	movi	r4,48
100030d4:	11000226 	beq	r2,r4,100030e0 <___vfprintf_internal_r+0xd90>
100030d8:	1827883a 	mov	r19,r3
100030dc:	293fffc5 	stb	r4,-1(r5)
100030e0:	d8812717 	ldw	r2,1180(sp)
100030e4:	14c5c83a 	sub	r2,r2,r19
100030e8:	d8812b15 	stw	r2,1196(sp)
100030ec:	003e1f06 	br	1000296c <__alt_data_end+0xf800296c>
100030f0:	00801944 	movi	r2,101
100030f4:	14807c0e 	bge	r2,r18,100032e8 <___vfprintf_internal_r+0xf98>
100030f8:	d9013317 	ldw	r4,1228(sp)
100030fc:	d9413417 	ldw	r5,1232(sp)
10003100:	000d883a 	mov	r6,zero
10003104:	000f883a 	mov	r7,zero
10003108:	d8c13b15 	stw	r3,1260(sp)
1000310c:	da013a15 	stw	r8,1256(sp)
10003110:	da413c15 	stw	r9,1264(sp)
10003114:	000acb40 	call	1000acb4 <__nedf2>
10003118:	d8c13b17 	ldw	r3,1260(sp)
1000311c:	da013a17 	ldw	r8,1256(sp)
10003120:	da413c17 	ldw	r9,1264(sp)
10003124:	1001001e 	bne	r2,zero,10003528 <___vfprintf_internal_r+0x11d8>
10003128:	00840074 	movhi	r2,4097
1000312c:	10ba1a04 	addi	r2,r2,-6040
10003130:	48800015 	stw	r2,0(r9)
10003134:	00800044 	movi	r2,1
10003138:	48800115 	stw	r2,4(r9)
1000313c:	4091883a 	add	r8,r8,r2
10003140:	1887883a 	add	r3,r3,r2
10003144:	da011d15 	stw	r8,1140(sp)
10003148:	d8c11c15 	stw	r3,1136(sp)
1000314c:	008001c4 	movi	r2,7
10003150:	10c20316 	blt	r2,r3,10003960 <___vfprintf_internal_r+0x1610>
10003154:	4a400204 	addi	r9,r9,8
10003158:	d8812417 	ldw	r2,1168(sp)
1000315c:	d8c13217 	ldw	r3,1224(sp)
10003160:	10c00216 	blt	r2,r3,1000316c <___vfprintf_internal_r+0xe1c>
10003164:	8080004c 	andi	r2,r16,1
10003168:	103f6826 	beq	r2,zero,10002f0c <__alt_data_end+0xf8002f0c>
1000316c:	d8c11c17 	ldw	r3,1136(sp)
10003170:	d9013717 	ldw	r4,1244(sp)
10003174:	00800044 	movi	r2,1
10003178:	48800115 	stw	r2,4(r9)
1000317c:	49000015 	stw	r4,0(r9)
10003180:	4091883a 	add	r8,r8,r2
10003184:	1887883a 	add	r3,r3,r2
10003188:	da011d15 	stw	r8,1140(sp)
1000318c:	d8c11c15 	stw	r3,1136(sp)
10003190:	008001c4 	movi	r2,7
10003194:	10c2ce16 	blt	r2,r3,10003cd0 <___vfprintf_internal_r+0x1980>
10003198:	4a400204 	addi	r9,r9,8
1000319c:	d8813217 	ldw	r2,1224(sp)
100031a0:	14bfffc4 	addi	r18,r2,-1
100031a4:	04bf590e 	bge	zero,r18,10002f0c <__alt_data_end+0xf8002f0c>
100031a8:	04c00404 	movi	r19,16
100031ac:	d8c11c17 	ldw	r3,1136(sp)
100031b0:	05040074 	movhi	r20,4097
100031b4:	a53a1e84 	addi	r20,r20,-6022
100031b8:	9c818a0e 	bge	r19,r18,100037e4 <___vfprintf_internal_r+0x1494>
100031bc:	058001c4 	movi	r22,7
100031c0:	ddc12917 	ldw	r23,1188(sp)
100031c4:	00000306 	br	100031d4 <___vfprintf_internal_r+0xe84>
100031c8:	4a400204 	addi	r9,r9,8
100031cc:	94bffc04 	addi	r18,r18,-16
100031d0:	9c81840e 	bge	r19,r18,100037e4 <___vfprintf_internal_r+0x1494>
100031d4:	4d000015 	stw	r20,0(r9)
100031d8:	4cc00115 	stw	r19,4(r9)
100031dc:	42000404 	addi	r8,r8,16
100031e0:	18c00044 	addi	r3,r3,1
100031e4:	da011d15 	stw	r8,1140(sp)
100031e8:	d8c11c15 	stw	r3,1136(sp)
100031ec:	b0fff60e 	bge	r22,r3,100031c8 <__alt_data_end+0xf80031c8>
100031f0:	8809883a 	mov	r4,r17
100031f4:	b80b883a 	mov	r5,r23
100031f8:	d9811b04 	addi	r6,sp,1132
100031fc:	000231c0 	call	1000231c <__sprint_r>
10003200:	103d991e 	bne	r2,zero,10002868 <__alt_data_end+0xf8002868>
10003204:	da011d17 	ldw	r8,1140(sp)
10003208:	d8c11c17 	ldw	r3,1136(sp)
1000320c:	da400404 	addi	r9,sp,16
10003210:	003fee06 	br	100031cc <__alt_data_end+0xf80031cc>
10003214:	d8812e17 	ldw	r2,1208(sp)
10003218:	d9012817 	ldw	r4,1184(sp)
1000321c:	112fc83a 	sub	r23,r2,r4
10003220:	05ff000e 	bge	zero,r23,10002e24 <__alt_data_end+0xf8002e24>
10003224:	07000404 	movi	fp,16
10003228:	05040074 	movhi	r20,4097
1000322c:	a53a1e84 	addi	r20,r20,-6022
10003230:	e5c01d0e 	bge	fp,r23,100032a8 <___vfprintf_internal_r+0xf58>
10003234:	dc812a15 	stw	r18,1192(sp)
10003238:	058001c4 	movi	r22,7
1000323c:	a025883a 	mov	r18,r20
10003240:	8029883a 	mov	r20,r16
10003244:	dc012917 	ldw	r16,1188(sp)
10003248:	00000306 	br	10003258 <___vfprintf_internal_r+0xf08>
1000324c:	bdfffc04 	addi	r23,r23,-16
10003250:	4a400204 	addi	r9,r9,8
10003254:	e5c0110e 	bge	fp,r23,1000329c <___vfprintf_internal_r+0xf4c>
10003258:	4c800015 	stw	r18,0(r9)
1000325c:	4f000115 	stw	fp,4(r9)
10003260:	42000404 	addi	r8,r8,16
10003264:	18c00044 	addi	r3,r3,1
10003268:	da011d15 	stw	r8,1140(sp)
1000326c:	d8c11c15 	stw	r3,1136(sp)
10003270:	b0fff60e 	bge	r22,r3,1000324c <__alt_data_end+0xf800324c>
10003274:	8809883a 	mov	r4,r17
10003278:	800b883a 	mov	r5,r16
1000327c:	d9811b04 	addi	r6,sp,1132
10003280:	000231c0 	call	1000231c <__sprint_r>
10003284:	103d781e 	bne	r2,zero,10002868 <__alt_data_end+0xf8002868>
10003288:	bdfffc04 	addi	r23,r23,-16
1000328c:	da011d17 	ldw	r8,1140(sp)
10003290:	d8c11c17 	ldw	r3,1136(sp)
10003294:	da400404 	addi	r9,sp,16
10003298:	e5ffef16 	blt	fp,r23,10003258 <__alt_data_end+0xf8003258>
1000329c:	a021883a 	mov	r16,r20
100032a0:	9029883a 	mov	r20,r18
100032a4:	dc812a17 	ldw	r18,1192(sp)
100032a8:	4d000015 	stw	r20,0(r9)
100032ac:	4dc00115 	stw	r23,4(r9)
100032b0:	45d1883a 	add	r8,r8,r23
100032b4:	18c00044 	addi	r3,r3,1
100032b8:	da011d15 	stw	r8,1140(sp)
100032bc:	d8c11c15 	stw	r3,1136(sp)
100032c0:	008001c4 	movi	r2,7
100032c4:	10c13616 	blt	r2,r3,100037a0 <___vfprintf_internal_r+0x1450>
100032c8:	4a400204 	addi	r9,r9,8
100032cc:	003ed506 	br	10002e24 <__alt_data_end+0xf8002e24>
100032d0:	d9412917 	ldw	r5,1188(sp)
100032d4:	8809883a 	mov	r4,r17
100032d8:	d9811b04 	addi	r6,sp,1132
100032dc:	000231c0 	call	1000231c <__sprint_r>
100032e0:	103f4226 	beq	r2,zero,10002fec <__alt_data_end+0xf8002fec>
100032e4:	003d6006 	br	10002868 <__alt_data_end+0xf8002868>
100032e8:	d9013217 	ldw	r4,1224(sp)
100032ec:	00800044 	movi	r2,1
100032f0:	4cc00015 	stw	r19,0(r9)
100032f4:	1101000e 	bge	r2,r4,100036f8 <___vfprintf_internal_r+0x13a8>
100032f8:	00800044 	movi	r2,1
100032fc:	48800115 	stw	r2,4(r9)
10003300:	4091883a 	add	r8,r8,r2
10003304:	1887883a 	add	r3,r3,r2
10003308:	da011d15 	stw	r8,1140(sp)
1000330c:	d8c11c15 	stw	r3,1136(sp)
10003310:	008001c4 	movi	r2,7
10003314:	10c10c16 	blt	r2,r3,10003748 <___vfprintf_internal_r+0x13f8>
10003318:	4a400204 	addi	r9,r9,8
1000331c:	d8813717 	ldw	r2,1244(sp)
10003320:	48800015 	stw	r2,0(r9)
10003324:	00800044 	movi	r2,1
10003328:	48800115 	stw	r2,4(r9)
1000332c:	4091883a 	add	r8,r8,r2
10003330:	1887883a 	add	r3,r3,r2
10003334:	da011d15 	stw	r8,1140(sp)
10003338:	d8c11c15 	stw	r3,1136(sp)
1000333c:	008001c4 	movi	r2,7
10003340:	10c10a16 	blt	r2,r3,1000376c <___vfprintf_internal_r+0x141c>
10003344:	4c800204 	addi	r18,r9,8
10003348:	d9013317 	ldw	r4,1228(sp)
1000334c:	d9413417 	ldw	r5,1232(sp)
10003350:	000d883a 	mov	r6,zero
10003354:	000f883a 	mov	r7,zero
10003358:	d8c13b15 	stw	r3,1260(sp)
1000335c:	da013a15 	stw	r8,1256(sp)
10003360:	000ac580 	call	1000ac58 <__eqdf2>
10003364:	d8c13b17 	ldw	r3,1260(sp)
10003368:	da013a17 	ldw	r8,1256(sp)
1000336c:	1000ba26 	beq	r2,zero,10003658 <___vfprintf_internal_r+0x1308>
10003370:	d9013217 	ldw	r4,1224(sp)
10003374:	9cc00044 	addi	r19,r19,1
10003378:	94c00015 	stw	r19,0(r18)
1000337c:	20bfffc4 	addi	r2,r4,-1
10003380:	90800115 	stw	r2,4(r18)
10003384:	4091883a 	add	r8,r8,r2
10003388:	18c00044 	addi	r3,r3,1
1000338c:	da011d15 	stw	r8,1140(sp)
10003390:	d8c11c15 	stw	r3,1136(sp)
10003394:	008001c4 	movi	r2,7
10003398:	10c0e216 	blt	r2,r3,10003724 <___vfprintf_internal_r+0x13d4>
1000339c:	94800204 	addi	r18,r18,8
100033a0:	d9013517 	ldw	r4,1236(sp)
100033a4:	d8811fc4 	addi	r2,sp,1151
100033a8:	90800015 	stw	r2,0(r18)
100033ac:	91000115 	stw	r4,4(r18)
100033b0:	4111883a 	add	r8,r8,r4
100033b4:	18c00044 	addi	r3,r3,1
100033b8:	da011d15 	stw	r8,1140(sp)
100033bc:	d8c11c15 	stw	r3,1136(sp)
100033c0:	008001c4 	movi	r2,7
100033c4:	10ff2316 	blt	r2,r3,10003054 <__alt_data_end+0xf8003054>
100033c8:	92400204 	addi	r9,r18,8
100033cc:	003ecf06 	br	10002f0c <__alt_data_end+0xf8002f0c>
100033d0:	d9412917 	ldw	r5,1188(sp)
100033d4:	8809883a 	mov	r4,r17
100033d8:	d9811b04 	addi	r6,sp,1132
100033dc:	000231c0 	call	1000231c <__sprint_r>
100033e0:	103d211e 	bne	r2,zero,10002868 <__alt_data_end+0xf8002868>
100033e4:	da011d17 	ldw	r8,1140(sp)
100033e8:	d8c11c17 	ldw	r3,1136(sp)
100033ec:	da400404 	addi	r9,sp,16
100033f0:	003eba06 	br	10002edc <__alt_data_end+0xf8002edc>
100033f4:	d9412917 	ldw	r5,1188(sp)
100033f8:	8809883a 	mov	r4,r17
100033fc:	d9811b04 	addi	r6,sp,1132
10003400:	000231c0 	call	1000231c <__sprint_r>
10003404:	103d181e 	bne	r2,zero,10002868 <__alt_data_end+0xf8002868>
10003408:	da011d17 	ldw	r8,1140(sp)
1000340c:	d8c11c17 	ldw	r3,1136(sp)
10003410:	da400404 	addi	r9,sp,16
10003414:	003e8006 	br	10002e18 <__alt_data_end+0xf8002e18>
10003418:	d9412917 	ldw	r5,1188(sp)
1000341c:	8809883a 	mov	r4,r17
10003420:	d9811b04 	addi	r6,sp,1132
10003424:	000231c0 	call	1000231c <__sprint_r>
10003428:	103d0f1e 	bne	r2,zero,10002868 <__alt_data_end+0xf8002868>
1000342c:	da011d17 	ldw	r8,1140(sp)
10003430:	d8c11c17 	ldw	r3,1136(sp)
10003434:	da400404 	addi	r9,sp,16
10003438:	003e6a06 	br	10002de4 <__alt_data_end+0xf8002de4>
1000343c:	d9413617 	ldw	r5,1240(sp)
10003440:	d8810dc4 	addi	r2,sp,1079
10003444:	b8c003cc 	andi	r3,r23,15
10003448:	b008973a 	slli	r4,r22,28
1000344c:	28c7883a 	add	r3,r5,r3
10003450:	b82ed13a 	srli	r23,r23,4
10003454:	18c00003 	ldbu	r3,0(r3)
10003458:	b02cd13a 	srli	r22,r22,4
1000345c:	25eeb03a 	or	r23,r4,r23
10003460:	10c00005 	stb	r3,0(r2)
10003464:	bd86b03a 	or	r3,r23,r22
10003468:	1027883a 	mov	r19,r2
1000346c:	10bfffc4 	addi	r2,r2,-1
10003470:	183ff41e 	bne	r3,zero,10003444 <__alt_data_end+0xf8003444>
10003474:	003f1a06 	br	100030e0 <__alt_data_end+0xf80030e0>
10003478:	d8012b15 	stw	zero,1196(sp)
1000347c:	dcc10e04 	addi	r19,sp,1080
10003480:	003d3a06 	br	1000296c <__alt_data_end+0xf800296c>
10003484:	b0025426 	beq	r22,zero,10003dd8 <___vfprintf_internal_r+0x1a88>
10003488:	b807883a 	mov	r3,r23
1000348c:	d8810dc4 	addi	r2,sp,1079
10003490:	882f883a 	mov	r23,r17
10003494:	04c00244 	movi	r19,9
10003498:	8023883a 	mov	r17,r16
1000349c:	da412815 	stw	r9,1184(sp)
100034a0:	1821883a 	mov	r16,r3
100034a4:	8009883a 	mov	r4,r16
100034a8:	b00b883a 	mov	r5,r22
100034ac:	01800284 	movi	r6,10
100034b0:	000f883a 	mov	r7,zero
100034b4:	1029883a 	mov	r20,r2
100034b8:	0009d900 	call	10009d90 <__umoddi3>
100034bc:	10800c04 	addi	r2,r2,48
100034c0:	8009883a 	mov	r4,r16
100034c4:	b00b883a 	mov	r5,r22
100034c8:	a0800005 	stb	r2,0(r20)
100034cc:	01800284 	movi	r6,10
100034d0:	000f883a 	mov	r7,zero
100034d4:	00097400 	call	10009740 <__udivdi3>
100034d8:	1021883a 	mov	r16,r2
100034dc:	182d883a 	mov	r22,r3
100034e0:	a0bfffc4 	addi	r2,r20,-1
100034e4:	183fef1e 	bne	r3,zero,100034a4 <__alt_data_end+0xf80034a4>
100034e8:	9c3fee36 	bltu	r19,r16,100034a4 <__alt_data_end+0xf80034a4>
100034ec:	da412817 	ldw	r9,1184(sp)
100034f0:	8005883a 	mov	r2,r16
100034f4:	8821883a 	mov	r16,r17
100034f8:	b823883a 	mov	r17,r23
100034fc:	102f883a 	mov	r23,r2
10003500:	d8812717 	ldw	r2,1180(sp)
10003504:	a4ffffc4 	addi	r19,r20,-1
10003508:	bdc00c04 	addi	r23,r23,48
1000350c:	14c5c83a 	sub	r2,r2,r19
10003510:	a5ffffc5 	stb	r23,-1(r20)
10003514:	d8812b15 	stw	r2,1196(sp)
10003518:	003d1406 	br	1000296c <__alt_data_end+0xf800296c>
1000351c:	00c00044 	movi	r3,1
10003520:	bd84b03a 	or	r2,r23,r22
10003524:	003d0306 	br	10002934 <__alt_data_end+0xf8002934>
10003528:	dc812417 	ldw	r18,1168(sp)
1000352c:	0481140e 	bge	zero,r18,10003980 <___vfprintf_internal_r+0x1630>
10003530:	d9013217 	ldw	r4,1224(sp)
10003534:	4cc00015 	stw	r19,0(r9)
10003538:	9100ec16 	blt	r18,r4,100038ec <___vfprintf_internal_r+0x159c>
1000353c:	49000115 	stw	r4,4(r9)
10003540:	4111883a 	add	r8,r8,r4
10003544:	18c00044 	addi	r3,r3,1
10003548:	da011d15 	stw	r8,1140(sp)
1000354c:	d8c11c15 	stw	r3,1136(sp)
10003550:	008001c4 	movi	r2,7
10003554:	10c23616 	blt	r2,r3,10003e30 <___vfprintf_internal_r+0x1ae0>
10003558:	4a400204 	addi	r9,r9,8
1000355c:	d8813217 	ldw	r2,1224(sp)
10003560:	90a5c83a 	sub	r18,r18,r2
10003564:	04beae0e 	bge	zero,r18,10003020 <__alt_data_end+0xf8003020>
10003568:	04c00404 	movi	r19,16
1000356c:	d8c11c17 	ldw	r3,1136(sp)
10003570:	05040074 	movhi	r20,4097
10003574:	a53a1e84 	addi	r20,r20,-6022
10003578:	9c81dd0e 	bge	r19,r18,10003cf0 <___vfprintf_internal_r+0x19a0>
1000357c:	058001c4 	movi	r22,7
10003580:	ddc12917 	ldw	r23,1188(sp)
10003584:	00000306 	br	10003594 <___vfprintf_internal_r+0x1244>
10003588:	4a400204 	addi	r9,r9,8
1000358c:	94bffc04 	addi	r18,r18,-16
10003590:	9c81d70e 	bge	r19,r18,10003cf0 <___vfprintf_internal_r+0x19a0>
10003594:	4d000015 	stw	r20,0(r9)
10003598:	4cc00115 	stw	r19,4(r9)
1000359c:	42000404 	addi	r8,r8,16
100035a0:	18c00044 	addi	r3,r3,1
100035a4:	da011d15 	stw	r8,1140(sp)
100035a8:	d8c11c15 	stw	r3,1136(sp)
100035ac:	b0fff60e 	bge	r22,r3,10003588 <__alt_data_end+0xf8003588>
100035b0:	8809883a 	mov	r4,r17
100035b4:	b80b883a 	mov	r5,r23
100035b8:	d9811b04 	addi	r6,sp,1132
100035bc:	000231c0 	call	1000231c <__sprint_r>
100035c0:	103ca91e 	bne	r2,zero,10002868 <__alt_data_end+0xf8002868>
100035c4:	da011d17 	ldw	r8,1140(sp)
100035c8:	d8c11c17 	ldw	r3,1136(sp)
100035cc:	da400404 	addi	r9,sp,16
100035d0:	003fee06 	br	1000358c <__alt_data_end+0xf800358c>
100035d4:	d9412917 	ldw	r5,1188(sp)
100035d8:	8809883a 	mov	r4,r17
100035dc:	d9811b04 	addi	r6,sp,1132
100035e0:	000231c0 	call	1000231c <__sprint_r>
100035e4:	103ca01e 	bne	r2,zero,10002868 <__alt_data_end+0xf8002868>
100035e8:	da011d17 	ldw	r8,1140(sp)
100035ec:	d8c11c17 	ldw	r3,1136(sp)
100035f0:	da400404 	addi	r9,sp,16
100035f4:	003dee06 	br	10002db0 <__alt_data_end+0xf8002db0>
100035f8:	00c00084 	movi	r3,2
100035fc:	bd84b03a 	or	r2,r23,r22
10003600:	d8012585 	stb	zero,1174(sp)
10003604:	003ccb06 	br	10002934 <__alt_data_end+0xf8002934>
10003608:	8080040c 	andi	r2,r16,16
1000360c:	1000ae26 	beq	r2,zero,100038c8 <___vfprintf_internal_r+0x1578>
10003610:	d9012d17 	ldw	r4,1204(sp)
10003614:	25c00017 	ldw	r23,0(r4)
10003618:	21000104 	addi	r4,r4,4
1000361c:	d9012d15 	stw	r4,1204(sp)
10003620:	b82dd7fa 	srai	r22,r23,31
10003624:	b005883a 	mov	r2,r22
10003628:	003cb906 	br	10002910 <__alt_data_end+0xf8002910>
1000362c:	8080040c 	andi	r2,r16,16
10003630:	10007026 	beq	r2,zero,100037f4 <___vfprintf_internal_r+0x14a4>
10003634:	d8812d17 	ldw	r2,1204(sp)
10003638:	002d883a 	mov	r22,zero
1000363c:	00c00044 	movi	r3,1
10003640:	15c00017 	ldw	r23,0(r2)
10003644:	10800104 	addi	r2,r2,4
10003648:	d8812d15 	stw	r2,1204(sp)
1000364c:	d8012585 	stb	zero,1174(sp)
10003650:	b805883a 	mov	r2,r23
10003654:	003cb706 	br	10002934 <__alt_data_end+0xf8002934>
10003658:	d8813217 	ldw	r2,1224(sp)
1000365c:	14ffffc4 	addi	r19,r2,-1
10003660:	04ff4f0e 	bge	zero,r19,100033a0 <__alt_data_end+0xf80033a0>
10003664:	05800404 	movi	r22,16
10003668:	05040074 	movhi	r20,4097
1000366c:	a53a1e84 	addi	r20,r20,-6022
10003670:	b4c0470e 	bge	r22,r19,10003790 <___vfprintf_internal_r+0x1440>
10003674:	05c001c4 	movi	r23,7
10003678:	df012917 	ldw	fp,1188(sp)
1000367c:	00000306 	br	1000368c <___vfprintf_internal_r+0x133c>
10003680:	94800204 	addi	r18,r18,8
10003684:	9cfffc04 	addi	r19,r19,-16
10003688:	b4c0410e 	bge	r22,r19,10003790 <___vfprintf_internal_r+0x1440>
1000368c:	95000015 	stw	r20,0(r18)
10003690:	95800115 	stw	r22,4(r18)
10003694:	42000404 	addi	r8,r8,16
10003698:	18c00044 	addi	r3,r3,1
1000369c:	da011d15 	stw	r8,1140(sp)
100036a0:	d8c11c15 	stw	r3,1136(sp)
100036a4:	b8fff60e 	bge	r23,r3,10003680 <__alt_data_end+0xf8003680>
100036a8:	8809883a 	mov	r4,r17
100036ac:	e00b883a 	mov	r5,fp
100036b0:	d9811b04 	addi	r6,sp,1132
100036b4:	000231c0 	call	1000231c <__sprint_r>
100036b8:	103c6b1e 	bne	r2,zero,10002868 <__alt_data_end+0xf8002868>
100036bc:	da011d17 	ldw	r8,1140(sp)
100036c0:	d8c11c17 	ldw	r3,1136(sp)
100036c4:	dc800404 	addi	r18,sp,16
100036c8:	003fee06 	br	10003684 <__alt_data_end+0xf8003684>
100036cc:	8080040c 	andi	r2,r16,16
100036d0:	10005326 	beq	r2,zero,10003820 <___vfprintf_internal_r+0x14d0>
100036d4:	d8c12d17 	ldw	r3,1204(sp)
100036d8:	002d883a 	mov	r22,zero
100036dc:	1dc00017 	ldw	r23,0(r3)
100036e0:	18c00104 	addi	r3,r3,4
100036e4:	d8c12d15 	stw	r3,1204(sp)
100036e8:	b805883a 	mov	r2,r23
100036ec:	0007883a 	mov	r3,zero
100036f0:	d8012585 	stb	zero,1174(sp)
100036f4:	003c8f06 	br	10002934 <__alt_data_end+0xf8002934>
100036f8:	8088703a 	and	r4,r16,r2
100036fc:	203efe1e 	bne	r4,zero,100032f8 <__alt_data_end+0xf80032f8>
10003700:	48800115 	stw	r2,4(r9)
10003704:	42000044 	addi	r8,r8,1
10003708:	18c00044 	addi	r3,r3,1
1000370c:	da011d15 	stw	r8,1140(sp)
10003710:	d8c11c15 	stw	r3,1136(sp)
10003714:	008001c4 	movi	r2,7
10003718:	10c00216 	blt	r2,r3,10003724 <___vfprintf_internal_r+0x13d4>
1000371c:	4c800204 	addi	r18,r9,8
10003720:	003f1f06 	br	100033a0 <__alt_data_end+0xf80033a0>
10003724:	d9412917 	ldw	r5,1188(sp)
10003728:	8809883a 	mov	r4,r17
1000372c:	d9811b04 	addi	r6,sp,1132
10003730:	000231c0 	call	1000231c <__sprint_r>
10003734:	103c4c1e 	bne	r2,zero,10002868 <__alt_data_end+0xf8002868>
10003738:	dc800404 	addi	r18,sp,16
1000373c:	da011d17 	ldw	r8,1140(sp)
10003740:	d8c11c17 	ldw	r3,1136(sp)
10003744:	003f1606 	br	100033a0 <__alt_data_end+0xf80033a0>
10003748:	d9412917 	ldw	r5,1188(sp)
1000374c:	8809883a 	mov	r4,r17
10003750:	d9811b04 	addi	r6,sp,1132
10003754:	000231c0 	call	1000231c <__sprint_r>
10003758:	103c431e 	bne	r2,zero,10002868 <__alt_data_end+0xf8002868>
1000375c:	da011d17 	ldw	r8,1140(sp)
10003760:	d8c11c17 	ldw	r3,1136(sp)
10003764:	da400404 	addi	r9,sp,16
10003768:	003eec06 	br	1000331c <__alt_data_end+0xf800331c>
1000376c:	d9412917 	ldw	r5,1188(sp)
10003770:	8809883a 	mov	r4,r17
10003774:	d9811b04 	addi	r6,sp,1132
10003778:	000231c0 	call	1000231c <__sprint_r>
1000377c:	103c3a1e 	bne	r2,zero,10002868 <__alt_data_end+0xf8002868>
10003780:	da011d17 	ldw	r8,1140(sp)
10003784:	d8c11c17 	ldw	r3,1136(sp)
10003788:	dc800404 	addi	r18,sp,16
1000378c:	003eee06 	br	10003348 <__alt_data_end+0xf8003348>
10003790:	95000015 	stw	r20,0(r18)
10003794:	94c00115 	stw	r19,4(r18)
10003798:	44d1883a 	add	r8,r8,r19
1000379c:	003efa06 	br	10003388 <__alt_data_end+0xf8003388>
100037a0:	d9412917 	ldw	r5,1188(sp)
100037a4:	8809883a 	mov	r4,r17
100037a8:	d9811b04 	addi	r6,sp,1132
100037ac:	000231c0 	call	1000231c <__sprint_r>
100037b0:	103c2d1e 	bne	r2,zero,10002868 <__alt_data_end+0xf8002868>
100037b4:	da011d17 	ldw	r8,1140(sp)
100037b8:	d8c11c17 	ldw	r3,1136(sp)
100037bc:	da400404 	addi	r9,sp,16
100037c0:	003d9806 	br	10002e24 <__alt_data_end+0xf8002e24>
100037c4:	8080100c 	andi	r2,r16,64
100037c8:	10011626 	beq	r2,zero,10003c24 <___vfprintf_internal_r+0x18d4>
100037cc:	d8c12d17 	ldw	r3,1204(sp)
100037d0:	002d883a 	mov	r22,zero
100037d4:	1dc0000b 	ldhu	r23,0(r3)
100037d8:	18c00104 	addi	r3,r3,4
100037dc:	d8c12d15 	stw	r3,1204(sp)
100037e0:	003cc106 	br	10002ae8 <__alt_data_end+0xf8002ae8>
100037e4:	4d000015 	stw	r20,0(r9)
100037e8:	4c800115 	stw	r18,4(r9)
100037ec:	4491883a 	add	r8,r8,r18
100037f0:	003dc006 	br	10002ef4 <__alt_data_end+0xf8002ef4>
100037f4:	8080100c 	andi	r2,r16,64
100037f8:	10010126 	beq	r2,zero,10003c00 <___vfprintf_internal_r+0x18b0>
100037fc:	d8c12d17 	ldw	r3,1204(sp)
10003800:	002d883a 	mov	r22,zero
10003804:	1dc0000b 	ldhu	r23,0(r3)
10003808:	18c00104 	addi	r3,r3,4
1000380c:	d8c12d15 	stw	r3,1204(sp)
10003810:	b805883a 	mov	r2,r23
10003814:	00c00044 	movi	r3,1
10003818:	d8012585 	stb	zero,1174(sp)
1000381c:	003c4506 	br	10002934 <__alt_data_end+0xf8002934>
10003820:	8080100c 	andi	r2,r16,64
10003824:	10010526 	beq	r2,zero,10003c3c <___vfprintf_internal_r+0x18ec>
10003828:	d9012d17 	ldw	r4,1204(sp)
1000382c:	002d883a 	mov	r22,zero
10003830:	0007883a 	mov	r3,zero
10003834:	25c0000b 	ldhu	r23,0(r4)
10003838:	21000104 	addi	r4,r4,4
1000383c:	d9012d15 	stw	r4,1204(sp)
10003840:	b805883a 	mov	r2,r23
10003844:	d8012585 	stb	zero,1174(sp)
10003848:	003c3a06 	br	10002934 <__alt_data_end+0xf8002934>
1000384c:	d8812d17 	ldw	r2,1204(sp)
10003850:	15800017 	ldw	r22,0(r2)
10003854:	15000117 	ldw	r20,4(r2)
10003858:	10800204 	addi	r2,r2,8
1000385c:	d8812d15 	stw	r2,1204(sp)
10003860:	dd813315 	stw	r22,1228(sp)
10003864:	dd013415 	stw	r20,1232(sp)
10003868:	003c5906 	br	100029d0 <__alt_data_end+0xf80029d0>
1000386c:	00c00084 	movi	r3,2
10003870:	d8012585 	stb	zero,1174(sp)
10003874:	003c2f06 	br	10002934 <__alt_data_end+0xf8002934>
10003878:	ac800007 	ldb	r18,0(r21)
1000387c:	003b1006 	br	100024c0 <__alt_data_end+0xf80024c0>
10003880:	8080040c 	andi	r2,r16,16
10003884:	1000091e 	bne	r2,zero,100038ac <___vfprintf_internal_r+0x155c>
10003888:	8400100c 	andi	r16,r16,64
1000388c:	80000726 	beq	r16,zero,100038ac <___vfprintf_internal_r+0x155c>
10003890:	d8c12d17 	ldw	r3,1204(sp)
10003894:	d9012c17 	ldw	r4,1200(sp)
10003898:	18800017 	ldw	r2,0(r3)
1000389c:	18c00104 	addi	r3,r3,4
100038a0:	d8c12d15 	stw	r3,1204(sp)
100038a4:	1100000d 	sth	r4,0(r2)
100038a8:	003adf06 	br	10002428 <__alt_data_end+0xf8002428>
100038ac:	d8c12d17 	ldw	r3,1204(sp)
100038b0:	d9012c17 	ldw	r4,1200(sp)
100038b4:	18800017 	ldw	r2,0(r3)
100038b8:	18c00104 	addi	r3,r3,4
100038bc:	d8c12d15 	stw	r3,1204(sp)
100038c0:	11000015 	stw	r4,0(r2)
100038c4:	003ad806 	br	10002428 <__alt_data_end+0xf8002428>
100038c8:	8080100c 	andi	r2,r16,64
100038cc:	1000c526 	beq	r2,zero,10003be4 <___vfprintf_internal_r+0x1894>
100038d0:	d8812d17 	ldw	r2,1204(sp)
100038d4:	15c0000f 	ldh	r23,0(r2)
100038d8:	10800104 	addi	r2,r2,4
100038dc:	d8812d15 	stw	r2,1204(sp)
100038e0:	b82dd7fa 	srai	r22,r23,31
100038e4:	b005883a 	mov	r2,r22
100038e8:	003c0906 	br	10002910 <__alt_data_end+0xf8002910>
100038ec:	4c800115 	stw	r18,4(r9)
100038f0:	9211883a 	add	r8,r18,r8
100038f4:	18c00044 	addi	r3,r3,1
100038f8:	da011d15 	stw	r8,1140(sp)
100038fc:	d8c11c15 	stw	r3,1136(sp)
10003900:	008001c4 	movi	r2,7
10003904:	10c14016 	blt	r2,r3,10003e08 <___vfprintf_internal_r+0x1ab8>
10003908:	4a400204 	addi	r9,r9,8
1000390c:	d8813717 	ldw	r2,1244(sp)
10003910:	9ca7883a 	add	r19,r19,r18
10003914:	48800015 	stw	r2,0(r9)
10003918:	00800044 	movi	r2,1
1000391c:	48800115 	stw	r2,4(r9)
10003920:	4091883a 	add	r8,r8,r2
10003924:	1887883a 	add	r3,r3,r2
10003928:	da011d15 	stw	r8,1140(sp)
1000392c:	d8c11c15 	stw	r3,1136(sp)
10003930:	008001c4 	movi	r2,7
10003934:	10c12c16 	blt	r2,r3,10003de8 <___vfprintf_internal_r+0x1a98>
10003938:	4a400204 	addi	r9,r9,8
1000393c:	d9013217 	ldw	r4,1224(sp)
10003940:	da011d17 	ldw	r8,1140(sp)
10003944:	d8c11c17 	ldw	r3,1136(sp)
10003948:	24a5c83a 	sub	r18,r4,r18
1000394c:	4cc00015 	stw	r19,0(r9)
10003950:	003fa506 	br	100037e8 <__alt_data_end+0xf80037e8>
10003954:	04c40074 	movhi	r19,4097
10003958:	9cfa0b04 	addi	r19,r19,-6100
1000395c:	003c2e06 	br	10002a18 <__alt_data_end+0xf8002a18>
10003960:	d9412917 	ldw	r5,1188(sp)
10003964:	8809883a 	mov	r4,r17
10003968:	d9811b04 	addi	r6,sp,1132
1000396c:	000231c0 	call	1000231c <__sprint_r>
10003970:	103bbd1e 	bne	r2,zero,10002868 <__alt_data_end+0xf8002868>
10003974:	da011d17 	ldw	r8,1140(sp)
10003978:	da400404 	addi	r9,sp,16
1000397c:	003df606 	br	10003158 <__alt_data_end+0xf8003158>
10003980:	00840074 	movhi	r2,4097
10003984:	10ba1a04 	addi	r2,r2,-6040
10003988:	48800015 	stw	r2,0(r9)
1000398c:	00800044 	movi	r2,1
10003990:	48800115 	stw	r2,4(r9)
10003994:	4091883a 	add	r8,r8,r2
10003998:	1887883a 	add	r3,r3,r2
1000399c:	da011d15 	stw	r8,1140(sp)
100039a0:	d8c11c15 	stw	r3,1136(sp)
100039a4:	008001c4 	movi	r2,7
100039a8:	10c0bc16 	blt	r2,r3,10003c9c <___vfprintf_internal_r+0x194c>
100039ac:	4a400204 	addi	r9,r9,8
100039b0:	9000041e 	bne	r18,zero,100039c4 <___vfprintf_internal_r+0x1674>
100039b4:	d8c13217 	ldw	r3,1224(sp)
100039b8:	1800021e 	bne	r3,zero,100039c4 <___vfprintf_internal_r+0x1674>
100039bc:	8080004c 	andi	r2,r16,1
100039c0:	103d5226 	beq	r2,zero,10002f0c <__alt_data_end+0xf8002f0c>
100039c4:	d8c11c17 	ldw	r3,1136(sp)
100039c8:	d9013717 	ldw	r4,1244(sp)
100039cc:	00800044 	movi	r2,1
100039d0:	48800115 	stw	r2,4(r9)
100039d4:	49000015 	stw	r4,0(r9)
100039d8:	4091883a 	add	r8,r8,r2
100039dc:	1887883a 	add	r3,r3,r2
100039e0:	da011d15 	stw	r8,1140(sp)
100039e4:	d8c11c15 	stw	r3,1136(sp)
100039e8:	008001c4 	movi	r2,7
100039ec:	10c14516 	blt	r2,r3,10003f04 <___vfprintf_internal_r+0x1bb4>
100039f0:	4a400204 	addi	r9,r9,8
100039f4:	04a5c83a 	sub	r18,zero,r18
100039f8:	0480d70e 	bge	zero,r18,10003d58 <___vfprintf_internal_r+0x1a08>
100039fc:	05800404 	movi	r22,16
10003a00:	05040074 	movhi	r20,4097
10003a04:	a53a1e84 	addi	r20,r20,-6022
10003a08:	b480db0e 	bge	r22,r18,10003d78 <___vfprintf_internal_r+0x1a28>
10003a0c:	05c001c4 	movi	r23,7
10003a10:	df012917 	ldw	fp,1188(sp)
10003a14:	00000306 	br	10003a24 <___vfprintf_internal_r+0x16d4>
10003a18:	4a400204 	addi	r9,r9,8
10003a1c:	94bffc04 	addi	r18,r18,-16
10003a20:	b480d50e 	bge	r22,r18,10003d78 <___vfprintf_internal_r+0x1a28>
10003a24:	4d000015 	stw	r20,0(r9)
10003a28:	4d800115 	stw	r22,4(r9)
10003a2c:	42000404 	addi	r8,r8,16
10003a30:	18c00044 	addi	r3,r3,1
10003a34:	da011d15 	stw	r8,1140(sp)
10003a38:	d8c11c15 	stw	r3,1136(sp)
10003a3c:	b8fff60e 	bge	r23,r3,10003a18 <__alt_data_end+0xf8003a18>
10003a40:	8809883a 	mov	r4,r17
10003a44:	e00b883a 	mov	r5,fp
10003a48:	d9811b04 	addi	r6,sp,1132
10003a4c:	000231c0 	call	1000231c <__sprint_r>
10003a50:	103b851e 	bne	r2,zero,10002868 <__alt_data_end+0xf8002868>
10003a54:	da011d17 	ldw	r8,1140(sp)
10003a58:	d8c11c17 	ldw	r3,1136(sp)
10003a5c:	da400404 	addi	r9,sp,16
10003a60:	003fee06 	br	10003a1c <__alt_data_end+0xf8003a1c>
10003a64:	da413c15 	stw	r9,1264(sp)
10003a68:	000903c0 	call	1000903c <__isnand>
10003a6c:	da413c17 	ldw	r9,1264(sp)
10003a70:	10007e1e 	bne	r2,zero,10003c6c <___vfprintf_internal_r+0x191c>
10003a74:	00bfffc4 	movi	r2,-1
10003a78:	e0816a26 	beq	fp,r2,10004024 <___vfprintf_internal_r+0x1cd4>
10003a7c:	008019c4 	movi	r2,103
10003a80:	90816526 	beq	r18,r2,10004018 <___vfprintf_internal_r+0x1cc8>
10003a84:	008011c4 	movi	r2,71
10003a88:	90816326 	beq	r18,r2,10004018 <___vfprintf_internal_r+0x1cc8>
10003a8c:	80c04014 	ori	r3,r16,256
10003a90:	d8c12a15 	stw	r3,1192(sp)
10003a94:	a0016516 	blt	r20,zero,1000402c <___vfprintf_internal_r+0x1cdc>
10003a98:	d8012f05 	stb	zero,1212(sp)
10003a9c:	00801984 	movi	r2,102
10003aa0:	9080f226 	beq	r18,r2,10003e6c <___vfprintf_internal_r+0x1b1c>
10003aa4:	00801184 	movi	r2,70
10003aa8:	9080f026 	beq	r18,r2,10003e6c <___vfprintf_internal_r+0x1b1c>
10003aac:	00801944 	movi	r2,101
10003ab0:	90818d26 	beq	r18,r2,100040e8 <___vfprintf_internal_r+0x1d98>
10003ab4:	00801144 	movi	r2,69
10003ab8:	90818b26 	beq	r18,r2,100040e8 <___vfprintf_internal_r+0x1d98>
10003abc:	e02f883a 	mov	r23,fp
10003ac0:	d8812404 	addi	r2,sp,1168
10003ac4:	d8800115 	stw	r2,4(sp)
10003ac8:	d8812304 	addi	r2,sp,1164
10003acc:	d8800215 	stw	r2,8(sp)
10003ad0:	d8812204 	addi	r2,sp,1160
10003ad4:	ddc00015 	stw	r23,0(sp)
10003ad8:	d8800315 	stw	r2,12(sp)
10003adc:	8809883a 	mov	r4,r17
10003ae0:	b00b883a 	mov	r5,r22
10003ae4:	a00d883a 	mov	r6,r20
10003ae8:	01c00084 	movi	r7,2
10003aec:	da413c15 	stw	r9,1264(sp)
10003af0:	00045a00 	call	100045a0 <_dtoa_r>
10003af4:	1027883a 	mov	r19,r2
10003af8:	008019c4 	movi	r2,103
10003afc:	da413c17 	ldw	r9,1264(sp)
10003b00:	9081951e 	bne	r18,r2,10004158 <___vfprintf_internal_r+0x1e08>
10003b04:	8080004c 	andi	r2,r16,1
10003b08:	10017926 	beq	r2,zero,100040f0 <___vfprintf_internal_r+0x1da0>
10003b0c:	00801184 	movi	r2,70
10003b10:	9dc7883a 	add	r3,r19,r23
10003b14:	9080e626 	beq	r18,r2,10003eb0 <___vfprintf_internal_r+0x1b60>
10003b18:	b009883a 	mov	r4,r22
10003b1c:	a00b883a 	mov	r5,r20
10003b20:	000d883a 	mov	r6,zero
10003b24:	000f883a 	mov	r7,zero
10003b28:	d8c13b15 	stw	r3,1260(sp)
10003b2c:	da413c15 	stw	r9,1264(sp)
10003b30:	000ac580 	call	1000ac58 <__eqdf2>
10003b34:	d8c13b17 	ldw	r3,1260(sp)
10003b38:	da413c17 	ldw	r9,1264(sp)
10003b3c:	10000726 	beq	r2,zero,10003b5c <___vfprintf_internal_r+0x180c>
10003b40:	d8812217 	ldw	r2,1160(sp)
10003b44:	10c18a2e 	bgeu	r2,r3,10004170 <___vfprintf_internal_r+0x1e20>
10003b48:	01000c04 	movi	r4,48
10003b4c:	11000005 	stb	r4,0(r2)
10003b50:	10800044 	addi	r2,r2,1
10003b54:	d8812215 	stw	r2,1160(sp)
10003b58:	10fffc1e 	bne	r2,r3,10003b4c <__alt_data_end+0xf8003b4c>
10003b5c:	1cc7c83a 	sub	r3,r3,r19
10003b60:	d8c13215 	stw	r3,1224(sp)
10003b64:	008019c4 	movi	r2,103
10003b68:	9080fa26 	beq	r18,r2,10003f54 <___vfprintf_internal_r+0x1c04>
10003b6c:	008011c4 	movi	r2,71
10003b70:	9080f826 	beq	r18,r2,10003f54 <___vfprintf_internal_r+0x1c04>
10003b74:	00801984 	movi	r2,102
10003b78:	90818e1e 	bne	r18,r2,100041b4 <___vfprintf_internal_r+0x1e64>
10003b7c:	d8812417 	ldw	r2,1168(sp)
10003b80:	d8812b15 	stw	r2,1196(sp)
10003b84:	00817c0e 	bge	zero,r2,10004178 <___vfprintf_internal_r+0x1e28>
10003b88:	e000021e 	bne	fp,zero,10003b94 <___vfprintf_internal_r+0x1844>
10003b8c:	8400004c 	andi	r16,r16,1
10003b90:	80000426 	beq	r16,zero,10003ba4 <___vfprintf_internal_r+0x1854>
10003b94:	d8812b17 	ldw	r2,1196(sp)
10003b98:	e2000044 	addi	r8,fp,1
10003b9c:	1205883a 	add	r2,r2,r8
10003ba0:	d8812b15 	stw	r2,1196(sp)
10003ba4:	d8812815 	stw	r2,1184(sp)
10003ba8:	10010b16 	blt	r2,zero,10003fd8 <___vfprintf_internal_r+0x1c88>
10003bac:	ddc12f07 	ldb	r23,1212(sp)
10003bb0:	b800e426 	beq	r23,zero,10003f44 <___vfprintf_internal_r+0x1bf4>
10003bb4:	00800b44 	movi	r2,45
10003bb8:	d8812585 	stb	r2,1174(sp)
10003bbc:	dc012a17 	ldw	r16,1192(sp)
10003bc0:	d8013115 	stw	zero,1220(sp)
10003bc4:	003b7306 	br	10002994 <__alt_data_end+0xf8002994>
10003bc8:	d8812b17 	ldw	r2,1196(sp)
10003bcc:	d8812815 	stw	r2,1184(sp)
10003bd0:	10005716 	blt	r2,zero,10003d30 <___vfprintf_internal_r+0x19e0>
10003bd4:	d8812583 	ldbu	r2,1174(sp)
10003bd8:	ddc12d15 	stw	r23,1204(sp)
10003bdc:	d8013115 	stw	zero,1220(sp)
10003be0:	003b6806 	br	10002984 <__alt_data_end+0xf8002984>
10003be4:	d8c12d17 	ldw	r3,1204(sp)
10003be8:	1dc00017 	ldw	r23,0(r3)
10003bec:	18c00104 	addi	r3,r3,4
10003bf0:	d8c12d15 	stw	r3,1204(sp)
10003bf4:	b82dd7fa 	srai	r22,r23,31
10003bf8:	b005883a 	mov	r2,r22
10003bfc:	003b4406 	br	10002910 <__alt_data_end+0xf8002910>
10003c00:	d9012d17 	ldw	r4,1204(sp)
10003c04:	002d883a 	mov	r22,zero
10003c08:	00c00044 	movi	r3,1
10003c0c:	25c00017 	ldw	r23,0(r4)
10003c10:	21000104 	addi	r4,r4,4
10003c14:	d9012d15 	stw	r4,1204(sp)
10003c18:	b805883a 	mov	r2,r23
10003c1c:	d8012585 	stb	zero,1174(sp)
10003c20:	003b4406 	br	10002934 <__alt_data_end+0xf8002934>
10003c24:	d9012d17 	ldw	r4,1204(sp)
10003c28:	002d883a 	mov	r22,zero
10003c2c:	25c00017 	ldw	r23,0(r4)
10003c30:	21000104 	addi	r4,r4,4
10003c34:	d9012d15 	stw	r4,1204(sp)
10003c38:	003bab06 	br	10002ae8 <__alt_data_end+0xf8002ae8>
10003c3c:	d8812d17 	ldw	r2,1204(sp)
10003c40:	002d883a 	mov	r22,zero
10003c44:	0007883a 	mov	r3,zero
10003c48:	15c00017 	ldw	r23,0(r2)
10003c4c:	10800104 	addi	r2,r2,4
10003c50:	d8812d15 	stw	r2,1204(sp)
10003c54:	d8012585 	stb	zero,1174(sp)
10003c58:	b805883a 	mov	r2,r23
10003c5c:	003b3506 	br	10002934 <__alt_data_end+0xf8002934>
10003c60:	00ffffc4 	movi	r3,-1
10003c64:	b82b883a 	mov	r21,r23
10003c68:	003a1606 	br	100024c4 <__alt_data_end+0xf80024c4>
10003c6c:	008011c4 	movi	r2,71
10003c70:	1480b116 	blt	r2,r18,10003f38 <___vfprintf_internal_r+0x1be8>
10003c74:	04c40074 	movhi	r19,4097
10003c78:	9cfa0c04 	addi	r19,r19,-6096
10003c7c:	00c000c4 	movi	r3,3
10003c80:	00bfdfc4 	movi	r2,-129
10003c84:	80a0703a 	and	r16,r16,r2
10003c88:	d8c12815 	stw	r3,1184(sp)
10003c8c:	d8812583 	ldbu	r2,1174(sp)
10003c90:	d8c12b15 	stw	r3,1196(sp)
10003c94:	d8013115 	stw	zero,1220(sp)
10003c98:	003b3a06 	br	10002984 <__alt_data_end+0xf8002984>
10003c9c:	d9412917 	ldw	r5,1188(sp)
10003ca0:	8809883a 	mov	r4,r17
10003ca4:	d9811b04 	addi	r6,sp,1132
10003ca8:	000231c0 	call	1000231c <__sprint_r>
10003cac:	103aee1e 	bne	r2,zero,10002868 <__alt_data_end+0xf8002868>
10003cb0:	dc812417 	ldw	r18,1168(sp)
10003cb4:	da011d17 	ldw	r8,1140(sp)
10003cb8:	da400404 	addi	r9,sp,16
10003cbc:	003f3c06 	br	100039b0 <__alt_data_end+0xf80039b0>
10003cc0:	ad400044 	addi	r21,r21,1
10003cc4:	84000814 	ori	r16,r16,32
10003cc8:	14800047 	ldb	r18,1(r2)
10003ccc:	0039fc06 	br	100024c0 <__alt_data_end+0xf80024c0>
10003cd0:	d9412917 	ldw	r5,1188(sp)
10003cd4:	8809883a 	mov	r4,r17
10003cd8:	d9811b04 	addi	r6,sp,1132
10003cdc:	000231c0 	call	1000231c <__sprint_r>
10003ce0:	103ae11e 	bne	r2,zero,10002868 <__alt_data_end+0xf8002868>
10003ce4:	da011d17 	ldw	r8,1140(sp)
10003ce8:	da400404 	addi	r9,sp,16
10003cec:	003d2b06 	br	1000319c <__alt_data_end+0xf800319c>
10003cf0:	4d000015 	stw	r20,0(r9)
10003cf4:	4c800115 	stw	r18,4(r9)
10003cf8:	4491883a 	add	r8,r8,r18
10003cfc:	18c00044 	addi	r3,r3,1
10003d00:	da011d15 	stw	r8,1140(sp)
10003d04:	d8c11c15 	stw	r3,1136(sp)
10003d08:	008001c4 	movi	r2,7
10003d0c:	10fcbd16 	blt	r2,r3,10003004 <__alt_data_end+0xf8003004>
10003d10:	4a400204 	addi	r9,r9,8
10003d14:	003cc206 	br	10003020 <__alt_data_end+0xf8003020>
10003d18:	da413c15 	stw	r9,1264(sp)
10003d1c:	00022900 	call	10002290 <strlen>
10003d20:	d8812b15 	stw	r2,1196(sp)
10003d24:	d8812815 	stw	r2,1184(sp)
10003d28:	da413c17 	ldw	r9,1264(sp)
10003d2c:	103fa90e 	bge	r2,zero,10003bd4 <__alt_data_end+0xf8003bd4>
10003d30:	d8012815 	stw	zero,1184(sp)
10003d34:	003fa706 	br	10003bd4 <__alt_data_end+0xf8003bd4>
10003d38:	d9412917 	ldw	r5,1188(sp)
10003d3c:	8809883a 	mov	r4,r17
10003d40:	d9811b04 	addi	r6,sp,1132
10003d44:	000231c0 	call	1000231c <__sprint_r>
10003d48:	103ac71e 	bne	r2,zero,10002868 <__alt_data_end+0xf8002868>
10003d4c:	da011d17 	ldw	r8,1140(sp)
10003d50:	d8c11c17 	ldw	r3,1136(sp)
10003d54:	da400404 	addi	r9,sp,16
10003d58:	d8813217 	ldw	r2,1224(sp)
10003d5c:	4cc00015 	stw	r19,0(r9)
10003d60:	48800115 	stw	r2,4(r9)
10003d64:	4091883a 	add	r8,r8,r2
10003d68:	003c6206 	br	10002ef4 <__alt_data_end+0xf8002ef4>
10003d6c:	00800b44 	movi	r2,45
10003d70:	d8812585 	stb	r2,1174(sp)
10003d74:	003b2406 	br	10002a08 <__alt_data_end+0xf8002a08>
10003d78:	4d000015 	stw	r20,0(r9)
10003d7c:	4c800115 	stw	r18,4(r9)
10003d80:	4491883a 	add	r8,r8,r18
10003d84:	18c00044 	addi	r3,r3,1
10003d88:	da011d15 	stw	r8,1140(sp)
10003d8c:	d8c11c15 	stw	r3,1136(sp)
10003d90:	008001c4 	movi	r2,7
10003d94:	10ffe816 	blt	r2,r3,10003d38 <__alt_data_end+0xf8003d38>
10003d98:	4a400204 	addi	r9,r9,8
10003d9c:	003fee06 	br	10003d58 <__alt_data_end+0xf8003d58>
10003da0:	d8c12b15 	stw	r3,1196(sp)
10003da4:	00800184 	movi	r2,6
10003da8:	10c0062e 	bgeu	r2,r3,10003dc4 <___vfprintf_internal_r+0x1a74>
10003dac:	d8812b15 	stw	r2,1196(sp)
10003db0:	d8812815 	stw	r2,1184(sp)
10003db4:	ddc12d15 	stw	r23,1204(sp)
10003db8:	04c40074 	movhi	r19,4097
10003dbc:	9cfa1804 	addi	r19,r19,-6048
10003dc0:	0039ca06 	br	100024ec <__alt_data_end+0xf80024ec>
10003dc4:	d8812b17 	ldw	r2,1196(sp)
10003dc8:	d8812815 	stw	r2,1184(sp)
10003dcc:	103ff90e 	bge	r2,zero,10003db4 <__alt_data_end+0xf8003db4>
10003dd0:	d8012815 	stw	zero,1184(sp)
10003dd4:	003ff706 	br	10003db4 <__alt_data_end+0xf8003db4>
10003dd8:	00800244 	movi	r2,9
10003ddc:	15fdaa36 	bltu	r2,r23,10003488 <__alt_data_end+0xf8003488>
10003de0:	dd010e04 	addi	r20,sp,1080
10003de4:	003dc606 	br	10003500 <__alt_data_end+0xf8003500>
10003de8:	d9412917 	ldw	r5,1188(sp)
10003dec:	8809883a 	mov	r4,r17
10003df0:	d9811b04 	addi	r6,sp,1132
10003df4:	000231c0 	call	1000231c <__sprint_r>
10003df8:	103a9b1e 	bne	r2,zero,10002868 <__alt_data_end+0xf8002868>
10003dfc:	dc812417 	ldw	r18,1168(sp)
10003e00:	da400404 	addi	r9,sp,16
10003e04:	003ecd06 	br	1000393c <__alt_data_end+0xf800393c>
10003e08:	d9412917 	ldw	r5,1188(sp)
10003e0c:	8809883a 	mov	r4,r17
10003e10:	d9811b04 	addi	r6,sp,1132
10003e14:	000231c0 	call	1000231c <__sprint_r>
10003e18:	103a931e 	bne	r2,zero,10002868 <__alt_data_end+0xf8002868>
10003e1c:	dc812417 	ldw	r18,1168(sp)
10003e20:	da011d17 	ldw	r8,1140(sp)
10003e24:	d8c11c17 	ldw	r3,1136(sp)
10003e28:	da400404 	addi	r9,sp,16
10003e2c:	003eb706 	br	1000390c <__alt_data_end+0xf800390c>
10003e30:	d9412917 	ldw	r5,1188(sp)
10003e34:	8809883a 	mov	r4,r17
10003e38:	d9811b04 	addi	r6,sp,1132
10003e3c:	000231c0 	call	1000231c <__sprint_r>
10003e40:	103a891e 	bne	r2,zero,10002868 <__alt_data_end+0xf8002868>
10003e44:	dc812417 	ldw	r18,1168(sp)
10003e48:	da011d17 	ldw	r8,1140(sp)
10003e4c:	da400404 	addi	r9,sp,16
10003e50:	003dc206 	br	1000355c <__alt_data_end+0xf800355c>
10003e54:	df012815 	stw	fp,1184(sp)
10003e58:	d8812583 	ldbu	r2,1174(sp)
10003e5c:	df012b15 	stw	fp,1196(sp)
10003e60:	ddc12d15 	stw	r23,1204(sp)
10003e64:	d8013115 	stw	zero,1220(sp)
10003e68:	003ac606 	br	10002984 <__alt_data_end+0xf8002984>
10003e6c:	d8812404 	addi	r2,sp,1168
10003e70:	d8800115 	stw	r2,4(sp)
10003e74:	d8812304 	addi	r2,sp,1164
10003e78:	d8800215 	stw	r2,8(sp)
10003e7c:	d8812204 	addi	r2,sp,1160
10003e80:	df000015 	stw	fp,0(sp)
10003e84:	d8800315 	stw	r2,12(sp)
10003e88:	8809883a 	mov	r4,r17
10003e8c:	b00b883a 	mov	r5,r22
10003e90:	a00d883a 	mov	r6,r20
10003e94:	01c000c4 	movi	r7,3
10003e98:	da413c15 	stw	r9,1264(sp)
10003e9c:	00045a00 	call	100045a0 <_dtoa_r>
10003ea0:	da413c17 	ldw	r9,1264(sp)
10003ea4:	1027883a 	mov	r19,r2
10003ea8:	1707883a 	add	r3,r2,fp
10003eac:	e02f883a 	mov	r23,fp
10003eb0:	99000007 	ldb	r4,0(r19)
10003eb4:	00800c04 	movi	r2,48
10003eb8:	20800326 	beq	r4,r2,10003ec8 <___vfprintf_internal_r+0x1b78>
10003ebc:	da812417 	ldw	r10,1168(sp)
10003ec0:	1a87883a 	add	r3,r3,r10
10003ec4:	003f1406 	br	10003b18 <__alt_data_end+0xf8003b18>
10003ec8:	b009883a 	mov	r4,r22
10003ecc:	a00b883a 	mov	r5,r20
10003ed0:	000d883a 	mov	r6,zero
10003ed4:	000f883a 	mov	r7,zero
10003ed8:	d8c13b15 	stw	r3,1260(sp)
10003edc:	da413c15 	stw	r9,1264(sp)
10003ee0:	000acb40 	call	1000acb4 <__nedf2>
10003ee4:	d8c13b17 	ldw	r3,1260(sp)
10003ee8:	da413c17 	ldw	r9,1264(sp)
10003eec:	103ff326 	beq	r2,zero,10003ebc <__alt_data_end+0xf8003ebc>
10003ef0:	00800044 	movi	r2,1
10003ef4:	15d5c83a 	sub	r10,r2,r23
10003ef8:	da812415 	stw	r10,1168(sp)
10003efc:	1a87883a 	add	r3,r3,r10
10003f00:	003f0506 	br	10003b18 <__alt_data_end+0xf8003b18>
10003f04:	d9412917 	ldw	r5,1188(sp)
10003f08:	8809883a 	mov	r4,r17
10003f0c:	d9811b04 	addi	r6,sp,1132
10003f10:	000231c0 	call	1000231c <__sprint_r>
10003f14:	103a541e 	bne	r2,zero,10002868 <__alt_data_end+0xf8002868>
10003f18:	dc812417 	ldw	r18,1168(sp)
10003f1c:	da011d17 	ldw	r8,1140(sp)
10003f20:	d8c11c17 	ldw	r3,1136(sp)
10003f24:	da400404 	addi	r9,sp,16
10003f28:	003eb206 	br	100039f4 <__alt_data_end+0xf80039f4>
10003f2c:	b82b883a 	mov	r21,r23
10003f30:	0007883a 	mov	r3,zero
10003f34:	00396306 	br	100024c4 <__alt_data_end+0xf80024c4>
10003f38:	04c40074 	movhi	r19,4097
10003f3c:	9cfa0d04 	addi	r19,r19,-6092
10003f40:	003f4e06 	br	10003c7c <__alt_data_end+0xf8003c7c>
10003f44:	d8812583 	ldbu	r2,1174(sp)
10003f48:	dc012a17 	ldw	r16,1192(sp)
10003f4c:	d8013115 	stw	zero,1220(sp)
10003f50:	003a8c06 	br	10002984 <__alt_data_end+0xf8002984>
10003f54:	d8812417 	ldw	r2,1168(sp)
10003f58:	d8812b15 	stw	r2,1196(sp)
10003f5c:	1029883a 	mov	r20,r2
10003f60:	00bfff44 	movi	r2,-3
10003f64:	a0800116 	blt	r20,r2,10003f6c <___vfprintf_internal_r+0x1c1c>
10003f68:	e5001d0e 	bge	fp,r20,10003fe0 <___vfprintf_internal_r+0x1c90>
10003f6c:	94bfff84 	addi	r18,r18,-2
10003f70:	a53fffc4 	addi	r20,r20,-1
10003f74:	dd012415 	stw	r20,1168(sp)
10003f78:	dc811fc5 	stb	r18,1151(sp)
10003f7c:	a0007216 	blt	r20,zero,10004148 <___vfprintf_internal_r+0x1df8>
10003f80:	00800ac4 	movi	r2,43
10003f84:	d8812005 	stb	r2,1152(sp)
10003f88:	00800244 	movi	r2,9
10003f8c:	15003516 	blt	r2,r20,10004064 <___vfprintf_internal_r+0x1d14>
10003f90:	00800c04 	movi	r2,48
10003f94:	a5000c04 	addi	r20,r20,48
10003f98:	d8812045 	stb	r2,1153(sp)
10003f9c:	dd012085 	stb	r20,1154(sp)
10003fa0:	d8c120c4 	addi	r3,sp,1155
10003fa4:	d8811fc4 	addi	r2,sp,1151
10003fa8:	1885c83a 	sub	r2,r3,r2
10003fac:	d8c13217 	ldw	r3,1224(sp)
10003fb0:	d8813515 	stw	r2,1236(sp)
10003fb4:	1885883a 	add	r2,r3,r2
10003fb8:	d8812b15 	stw	r2,1196(sp)
10003fbc:	00800044 	movi	r2,1
10003fc0:	10c0580e 	bge	r2,r3,10004124 <___vfprintf_internal_r+0x1dd4>
10003fc4:	d8812b17 	ldw	r2,1196(sp)
10003fc8:	10800044 	addi	r2,r2,1
10003fcc:	d8812b15 	stw	r2,1196(sp)
10003fd0:	d8812815 	stw	r2,1184(sp)
10003fd4:	103ef50e 	bge	r2,zero,10003bac <__alt_data_end+0xf8003bac>
10003fd8:	d8012815 	stw	zero,1184(sp)
10003fdc:	003ef306 	br	10003bac <__alt_data_end+0xf8003bac>
10003fe0:	d8812b17 	ldw	r2,1196(sp)
10003fe4:	d8c13217 	ldw	r3,1224(sp)
10003fe8:	10c01416 	blt	r2,r3,1000403c <___vfprintf_internal_r+0x1cec>
10003fec:	8400004c 	andi	r16,r16,1
10003ff0:	80000326 	beq	r16,zero,10004000 <___vfprintf_internal_r+0x1cb0>
10003ff4:	d8812b17 	ldw	r2,1196(sp)
10003ff8:	10800044 	addi	r2,r2,1
10003ffc:	d8812b15 	stw	r2,1196(sp)
10004000:	d8812815 	stw	r2,1184(sp)
10004004:	10001416 	blt	r2,zero,10004058 <___vfprintf_internal_r+0x1d08>
10004008:	048019c4 	movi	r18,103
1000400c:	003ee706 	br	10003bac <__alt_data_end+0xf8003bac>
10004010:	d8012815 	stw	zero,1184(sp)
10004014:	003b1a06 	br	10002c80 <__alt_data_end+0xf8002c80>
10004018:	e03e9c1e 	bne	fp,zero,10003a8c <__alt_data_end+0xf8003a8c>
1000401c:	07000044 	movi	fp,1
10004020:	003e9a06 	br	10003a8c <__alt_data_end+0xf8003a8c>
10004024:	07000184 	movi	fp,6
10004028:	003e9806 	br	10003a8c <__alt_data_end+0xf8003a8c>
1000402c:	00c00b44 	movi	r3,45
10004030:	a520003c 	xorhi	r20,r20,32768
10004034:	d8c12f05 	stb	r3,1212(sp)
10004038:	003e9806 	br	10003a9c <__alt_data_end+0xf8003a9c>
1000403c:	05003f0e 	bge	zero,r20,1000413c <___vfprintf_internal_r+0x1dec>
10004040:	05000044 	movi	r20,1
10004044:	d8c13217 	ldw	r3,1224(sp)
10004048:	a0e9883a 	add	r20,r20,r3
1000404c:	dd012b15 	stw	r20,1196(sp)
10004050:	dd012815 	stw	r20,1184(sp)
10004054:	a03fec0e 	bge	r20,zero,10004008 <__alt_data_end+0xf8004008>
10004058:	d8012815 	stw	zero,1184(sp)
1000405c:	048019c4 	movi	r18,103
10004060:	003ed206 	br	10003bac <__alt_data_end+0xf8003bac>
10004064:	d8c11f84 	addi	r3,sp,1150
10004068:	102f883a 	mov	r23,r2
1000406c:	4839883a 	mov	fp,r9
10004070:	a009883a 	mov	r4,r20
10004074:	01400284 	movi	r5,10
10004078:	182d883a 	mov	r22,r3
1000407c:	000b1ac0 	call	1000b1ac <__modsi3>
10004080:	10800c04 	addi	r2,r2,48
10004084:	a009883a 	mov	r4,r20
10004088:	b0800005 	stb	r2,0(r22)
1000408c:	01400284 	movi	r5,10
10004090:	000b15c0 	call	1000b15c <__divsi3>
10004094:	1029883a 	mov	r20,r2
10004098:	b0ffffc4 	addi	r3,r22,-1
1000409c:	b8bff416 	blt	r23,r2,10004070 <__alt_data_end+0xf8004070>
100040a0:	11400c04 	addi	r5,r2,48
100040a4:	b17fffc5 	stb	r5,-1(r22)
100040a8:	d8811fc4 	addi	r2,sp,1151
100040ac:	e013883a 	mov	r9,fp
100040b0:	18803e2e 	bgeu	r3,r2,100041ac <___vfprintf_internal_r+0x1e5c>
100040b4:	b007883a 	mov	r3,r22
100040b8:	d9012044 	addi	r4,sp,1153
100040bc:	00000206 	br	100040c8 <___vfprintf_internal_r+0x1d78>
100040c0:	19400003 	ldbu	r5,0(r3)
100040c4:	18c00044 	addi	r3,r3,1
100040c8:	21400005 	stb	r5,0(r4)
100040cc:	21000044 	addi	r4,r4,1
100040d0:	10fffb1e 	bne	r2,r3,100040c0 <__alt_data_end+0xf80040c0>
100040d4:	d8c12004 	addi	r3,sp,1152
100040d8:	1d87c83a 	sub	r3,r3,r22
100040dc:	d9012044 	addi	r4,sp,1153
100040e0:	20c7883a 	add	r3,r4,r3
100040e4:	003fb006 	br	10003fa8 <__alt_data_end+0xf8003fa8>
100040e8:	e5c00044 	addi	r23,fp,1
100040ec:	003e7406 	br	10003ac0 <__alt_data_end+0xf8003ac0>
100040f0:	d8c12217 	ldw	r3,1160(sp)
100040f4:	003e9906 	br	10003b5c <__alt_data_end+0xf8003b5c>
100040f8:	d9012d17 	ldw	r4,1204(sp)
100040fc:	ac800043 	ldbu	r18,1(r21)
10004100:	b82b883a 	mov	r21,r23
10004104:	20c00017 	ldw	r3,0(r4)
10004108:	20800104 	addi	r2,r4,4
1000410c:	d8812d15 	stw	r2,1204(sp)
10004110:	18002116 	blt	r3,zero,10004198 <___vfprintf_internal_r+0x1e48>
10004114:	94803fcc 	andi	r18,r18,255
10004118:	9480201c 	xori	r18,r18,128
1000411c:	94bfe004 	addi	r18,r18,-128
10004120:	0038e706 	br	100024c0 <__alt_data_end+0xf80024c0>
10004124:	80a0703a 	and	r16,r16,r2
10004128:	803fa61e 	bne	r16,zero,10003fc4 <__alt_data_end+0xf8003fc4>
1000412c:	d8812b17 	ldw	r2,1196(sp)
10004130:	d8812815 	stw	r2,1184(sp)
10004134:	103e9d0e 	bge	r2,zero,10003bac <__alt_data_end+0xf8003bac>
10004138:	003fa706 	br	10003fd8 <__alt_data_end+0xf8003fd8>
1000413c:	00800084 	movi	r2,2
10004140:	1529c83a 	sub	r20,r2,r20
10004144:	003fbf06 	br	10004044 <__alt_data_end+0xf8004044>
10004148:	00800b44 	movi	r2,45
1000414c:	0529c83a 	sub	r20,zero,r20
10004150:	d8812005 	stb	r2,1152(sp)
10004154:	003f8c06 	br	10003f88 <__alt_data_end+0xf8003f88>
10004158:	008011c4 	movi	r2,71
1000415c:	90be6926 	beq	r18,r2,10003b04 <__alt_data_end+0xf8003b04>
10004160:	003e6a06 	br	10003b0c <__alt_data_end+0xf8003b0c>
10004164:	00bfffc4 	movi	r2,-1
10004168:	d8812c15 	stw	r2,1200(sp)
1000416c:	0039ad06 	br	10002824 <__alt_data_end+0xf8002824>
10004170:	1007883a 	mov	r3,r2
10004174:	003e7906 	br	10003b5c <__alt_data_end+0xf8003b5c>
10004178:	e000021e 	bne	fp,zero,10004184 <___vfprintf_internal_r+0x1e34>
1000417c:	8400004c 	andi	r16,r16,1
10004180:	80000e26 	beq	r16,zero,100041bc <___vfprintf_internal_r+0x1e6c>
10004184:	e7000084 	addi	fp,fp,2
10004188:	df012b15 	stw	fp,1196(sp)
1000418c:	df012815 	stw	fp,1184(sp)
10004190:	e03e860e 	bge	fp,zero,10003bac <__alt_data_end+0xf8003bac>
10004194:	003f9006 	br	10003fd8 <__alt_data_end+0xf8003fd8>
10004198:	94803fcc 	andi	r18,r18,255
1000419c:	9480201c 	xori	r18,r18,128
100041a0:	00ffffc4 	movi	r3,-1
100041a4:	94bfe004 	addi	r18,r18,-128
100041a8:	0038c506 	br	100024c0 <__alt_data_end+0xf80024c0>
100041ac:	d8c12044 	addi	r3,sp,1153
100041b0:	003f7d06 	br	10003fa8 <__alt_data_end+0xf8003fa8>
100041b4:	dd012417 	ldw	r20,1168(sp)
100041b8:	003f6d06 	br	10003f70 <__alt_data_end+0xf8003f70>
100041bc:	00c00044 	movi	r3,1
100041c0:	d8c12815 	stw	r3,1184(sp)
100041c4:	d8c12b15 	stw	r3,1196(sp)
100041c8:	003e7806 	br	10003bac <__alt_data_end+0xf8003bac>

100041cc <__vfprintf_internal>:
100041cc:	00840074 	movhi	r2,4097
100041d0:	10815b04 	addi	r2,r2,1388
100041d4:	2007883a 	mov	r3,r4
100041d8:	11000017 	ldw	r4,0(r2)
100041dc:	2805883a 	mov	r2,r5
100041e0:	300f883a 	mov	r7,r6
100041e4:	180b883a 	mov	r5,r3
100041e8:	100d883a 	mov	r6,r2
100041ec:	00023501 	jmpi	10002350 <___vfprintf_internal_r>

100041f0 <__swsetup_r>:
100041f0:	00840074 	movhi	r2,4097
100041f4:	10815b04 	addi	r2,r2,1388
100041f8:	10800017 	ldw	r2,0(r2)
100041fc:	defffd04 	addi	sp,sp,-12
10004200:	dc400115 	stw	r17,4(sp)
10004204:	dc000015 	stw	r16,0(sp)
10004208:	dfc00215 	stw	ra,8(sp)
1000420c:	2023883a 	mov	r17,r4
10004210:	2821883a 	mov	r16,r5
10004214:	10000226 	beq	r2,zero,10004220 <__swsetup_r+0x30>
10004218:	10c00e17 	ldw	r3,56(r2)
1000421c:	18003d26 	beq	r3,zero,10004314 <__swsetup_r+0x124>
10004220:	8080030b 	ldhu	r2,12(r16)
10004224:	10c0020c 	andi	r3,r2,8
10004228:	18ffffcc 	andi	r3,r3,65535
1000422c:	18e0001c 	xori	r3,r3,32768
10004230:	18e00004 	addi	r3,r3,-32768
10004234:	18001226 	beq	r3,zero,10004280 <__swsetup_r+0x90>
10004238:	80c00417 	ldw	r3,16(r16)
1000423c:	18001f26 	beq	r3,zero,100042bc <__swsetup_r+0xcc>
10004240:	1100004c 	andi	r4,r2,1
10004244:	2000261e 	bne	r4,zero,100042e0 <__swsetup_r+0xf0>
10004248:	1080008c 	andi	r2,r2,2
1000424c:	10bfffcc 	andi	r2,r2,65535
10004250:	10a0001c 	xori	r2,r2,32768
10004254:	10a00004 	addi	r2,r2,-32768
10004258:	1000311e 	bne	r2,zero,10004320 <__swsetup_r+0x130>
1000425c:	80800517 	ldw	r2,20(r16)
10004260:	80800215 	stw	r2,8(r16)
10004264:	18002326 	beq	r3,zero,100042f4 <__swsetup_r+0x104>
10004268:	0005883a 	mov	r2,zero
1000426c:	dfc00217 	ldw	ra,8(sp)
10004270:	dc400117 	ldw	r17,4(sp)
10004274:	dc000017 	ldw	r16,0(sp)
10004278:	dec00304 	addi	sp,sp,12
1000427c:	f800283a 	ret
10004280:	10c0040c 	andi	r3,r2,16
10004284:	18ffffcc 	andi	r3,r3,65535
10004288:	18e0001c 	xori	r3,r3,32768
1000428c:	18e00004 	addi	r3,r3,-32768
10004290:	18001e26 	beq	r3,zero,1000430c <__swsetup_r+0x11c>
10004294:	10c0010c 	andi	r3,r2,4
10004298:	18ffffcc 	andi	r3,r3,65535
1000429c:	18e0001c 	xori	r3,r3,32768
100042a0:	18e00004 	addi	r3,r3,-32768
100042a4:	1800211e 	bne	r3,zero,1000432c <__swsetup_r+0x13c>
100042a8:	80c00417 	ldw	r3,16(r16)
100042ac:	11400214 	ori	r5,r2,8
100042b0:	8140030d 	sth	r5,12(r16)
100042b4:	2805883a 	mov	r2,r5
100042b8:	183fe11e 	bne	r3,zero,10004240 <__alt_data_end+0xf8004240>
100042bc:	1140a00c 	andi	r5,r2,640
100042c0:	01008004 	movi	r4,512
100042c4:	293fde26 	beq	r5,r4,10004240 <__alt_data_end+0xf8004240>
100042c8:	8809883a 	mov	r4,r17
100042cc:	800b883a 	mov	r5,r16
100042d0:	0006bec0 	call	10006bec <__smakebuf_r>
100042d4:	8080030b 	ldhu	r2,12(r16)
100042d8:	80c00417 	ldw	r3,16(r16)
100042dc:	003fd806 	br	10004240 <__alt_data_end+0xf8004240>
100042e0:	80800517 	ldw	r2,20(r16)
100042e4:	80000215 	stw	zero,8(r16)
100042e8:	0085c83a 	sub	r2,zero,r2
100042ec:	80800615 	stw	r2,24(r16)
100042f0:	183fdd1e 	bne	r3,zero,10004268 <__alt_data_end+0xf8004268>
100042f4:	8080030b 	ldhu	r2,12(r16)
100042f8:	1080200c 	andi	r2,r2,128
100042fc:	10bfffcc 	andi	r2,r2,65535
10004300:	10a0001c 	xori	r2,r2,32768
10004304:	10a00004 	addi	r2,r2,-32768
10004308:	103fd826 	beq	r2,zero,1000426c <__alt_data_end+0xf800426c>
1000430c:	00bfffc4 	movi	r2,-1
10004310:	003fd606 	br	1000426c <__alt_data_end+0xf800426c>
10004314:	1009883a 	mov	r4,r2
10004318:	0005e780 	call	10005e78 <__sinit>
1000431c:	003fc006 	br	10004220 <__alt_data_end+0xf8004220>
10004320:	0005883a 	mov	r2,zero
10004324:	80800215 	stw	r2,8(r16)
10004328:	003fce06 	br	10004264 <__alt_data_end+0xf8004264>
1000432c:	81400c17 	ldw	r5,48(r16)
10004330:	28000626 	beq	r5,zero,1000434c <__swsetup_r+0x15c>
10004334:	80c01004 	addi	r3,r16,64
10004338:	28c00326 	beq	r5,r3,10004348 <__swsetup_r+0x158>
1000433c:	8809883a 	mov	r4,r17
10004340:	00061fc0 	call	100061fc <_free_r>
10004344:	8080030b 	ldhu	r2,12(r16)
10004348:	80000c15 	stw	zero,48(r16)
1000434c:	80c00417 	ldw	r3,16(r16)
10004350:	013ff6c4 	movi	r4,-37
10004354:	2084703a 	and	r2,r4,r2
10004358:	80000115 	stw	zero,4(r16)
1000435c:	80c00015 	stw	r3,0(r16)
10004360:	003fd206 	br	100042ac <__alt_data_end+0xf80042ac>

10004364 <quorem>:
10004364:	defff204 	addi	sp,sp,-56
10004368:	dd000815 	stw	r20,32(sp)
1000436c:	20800417 	ldw	r2,16(r4)
10004370:	2d000417 	ldw	r20,16(r5)
10004374:	dcc00715 	stw	r19,28(sp)
10004378:	dfc00d15 	stw	ra,52(sp)
1000437c:	df000c15 	stw	fp,48(sp)
10004380:	ddc00b15 	stw	r23,44(sp)
10004384:	dd800a15 	stw	r22,40(sp)
10004388:	dd400915 	stw	r21,36(sp)
1000438c:	dc800615 	stw	r18,24(sp)
10004390:	dc400515 	stw	r17,20(sp)
10004394:	dc000415 	stw	r16,16(sp)
10004398:	d9400015 	stw	r5,0(sp)
1000439c:	2027883a 	mov	r19,r4
100043a0:	15007d16 	blt	r2,r20,10004598 <quorem+0x234>
100043a4:	a0800104 	addi	r2,r20,4
100043a8:	1085883a 	add	r2,r2,r2
100043ac:	1085883a 	add	r2,r2,r2
100043b0:	28ad883a 	add	r22,r5,r2
100043b4:	2085883a 	add	r2,r4,r2
100043b8:	10800017 	ldw	r2,0(r2)
100043bc:	b1400017 	ldw	r5,0(r22)
100043c0:	a53fffc4 	addi	r20,r20,-1
100043c4:	1009883a 	mov	r4,r2
100043c8:	29400044 	addi	r5,r5,1
100043cc:	d8800115 	stw	r2,4(sp)
100043d0:	000b2080 	call	1000b208 <__udivsi3>
100043d4:	1025883a 	mov	r18,r2
100043d8:	d8800017 	ldw	r2,0(sp)
100043dc:	9f000504 	addi	fp,r19,20
100043e0:	14000504 	addi	r16,r2,20
100043e4:	90003626 	beq	r18,zero,100044c0 <quorem+0x15c>
100043e8:	802b883a 	mov	r21,r16
100043ec:	e023883a 	mov	r17,fp
100043f0:	0007883a 	mov	r3,zero
100043f4:	002f883a 	mov	r23,zero
100043f8:	a9800017 	ldw	r6,0(r21)
100043fc:	900b883a 	mov	r5,r18
10004400:	d8c00315 	stw	r3,12(sp)
10004404:	313fffcc 	andi	r4,r6,65535
10004408:	d9800215 	stw	r6,8(sp)
1000440c:	000b2180 	call	1000b218 <__mulsi3>
10004410:	d9800217 	ldw	r6,8(sp)
10004414:	d8c00317 	ldw	r3,12(sp)
10004418:	900b883a 	mov	r5,r18
1000441c:	3008d43a 	srli	r4,r6,16
10004420:	1887883a 	add	r3,r3,r2
10004424:	d8c00315 	stw	r3,12(sp)
10004428:	000b2180 	call	1000b218 <__mulsi3>
1000442c:	89400017 	ldw	r5,0(r17)
10004430:	d8c00317 	ldw	r3,12(sp)
10004434:	ad400104 	addi	r21,r21,4
10004438:	293fffcc 	andi	r4,r5,65535
1000443c:	1810d43a 	srli	r8,r3,16
10004440:	25c9883a 	add	r4,r4,r23
10004444:	18ffffcc 	andi	r3,r3,65535
10004448:	20c9c83a 	sub	r4,r4,r3
1000444c:	280cd43a 	srli	r6,r5,16
10004450:	4085883a 	add	r2,r8,r2
10004454:	2007d43a 	srai	r3,r4,16
10004458:	117fffcc 	andi	r5,r2,65535
1000445c:	314bc83a 	sub	r5,r6,r5
10004460:	28cb883a 	add	r5,r5,r3
10004464:	8940008d 	sth	r5,2(r17)
10004468:	8900000d 	sth	r4,0(r17)
1000446c:	1006d43a 	srli	r3,r2,16
10004470:	282fd43a 	srai	r23,r5,16
10004474:	8c400104 	addi	r17,r17,4
10004478:	b57fdf2e 	bgeu	r22,r21,100043f8 <__alt_data_end+0xf80043f8>
1000447c:	d8c00117 	ldw	r3,4(sp)
10004480:	18000f1e 	bne	r3,zero,100044c0 <quorem+0x15c>
10004484:	a0800144 	addi	r2,r20,5
10004488:	1085883a 	add	r2,r2,r2
1000448c:	1085883a 	add	r2,r2,r2
10004490:	9887883a 	add	r3,r19,r2
10004494:	18bfff04 	addi	r2,r3,-4
10004498:	e080082e 	bgeu	fp,r2,100044bc <quorem+0x158>
1000449c:	18ffff17 	ldw	r3,-4(r3)
100044a0:	18000326 	beq	r3,zero,100044b0 <quorem+0x14c>
100044a4:	00000506 	br	100044bc <quorem+0x158>
100044a8:	10c00017 	ldw	r3,0(r2)
100044ac:	1800031e 	bne	r3,zero,100044bc <quorem+0x158>
100044b0:	10bfff04 	addi	r2,r2,-4
100044b4:	a53fffc4 	addi	r20,r20,-1
100044b8:	e0bffb36 	bltu	fp,r2,100044a8 <__alt_data_end+0xf80044a8>
100044bc:	9d000415 	stw	r20,16(r19)
100044c0:	d9400017 	ldw	r5,0(sp)
100044c4:	9809883a 	mov	r4,r19
100044c8:	00083040 	call	10008304 <__mcmp>
100044cc:	10002516 	blt	r2,zero,10004564 <quorem+0x200>
100044d0:	94800044 	addi	r18,r18,1
100044d4:	e007883a 	mov	r3,fp
100044d8:	000d883a 	mov	r6,zero
100044dc:	18800017 	ldw	r2,0(r3)
100044e0:	82000017 	ldw	r8,0(r16)
100044e4:	84000104 	addi	r16,r16,4
100044e8:	11ffffcc 	andi	r7,r2,65535
100044ec:	413fffcc 	andi	r4,r8,65535
100044f0:	398d883a 	add	r6,r7,r6
100044f4:	310fc83a 	sub	r7,r6,r4
100044f8:	4010d43a 	srli	r8,r8,16
100044fc:	100cd43a 	srli	r6,r2,16
10004500:	3809d43a 	srai	r4,r7,16
10004504:	19c0000d 	sth	r7,0(r3)
10004508:	320dc83a 	sub	r6,r6,r8
1000450c:	310d883a 	add	r6,r6,r4
10004510:	1980008d 	sth	r6,2(r3)
10004514:	300dd43a 	srai	r6,r6,16
10004518:	18c00104 	addi	r3,r3,4
1000451c:	b43fef2e 	bgeu	r22,r16,100044dc <__alt_data_end+0xf80044dc>
10004520:	a0800144 	addi	r2,r20,5
10004524:	1085883a 	add	r2,r2,r2
10004528:	1085883a 	add	r2,r2,r2
1000452c:	9885883a 	add	r2,r19,r2
10004530:	10c00017 	ldw	r3,0(r2)
10004534:	18000b1e 	bne	r3,zero,10004564 <quorem+0x200>
10004538:	10ffff04 	addi	r3,r2,-4
1000453c:	e0c0082e 	bgeu	fp,r3,10004560 <quorem+0x1fc>
10004540:	10bfff17 	ldw	r2,-4(r2)
10004544:	10000326 	beq	r2,zero,10004554 <quorem+0x1f0>
10004548:	00000506 	br	10004560 <quorem+0x1fc>
1000454c:	18800017 	ldw	r2,0(r3)
10004550:	1000031e 	bne	r2,zero,10004560 <quorem+0x1fc>
10004554:	18ffff04 	addi	r3,r3,-4
10004558:	a53fffc4 	addi	r20,r20,-1
1000455c:	e0fffb36 	bltu	fp,r3,1000454c <__alt_data_end+0xf800454c>
10004560:	9d000415 	stw	r20,16(r19)
10004564:	9005883a 	mov	r2,r18
10004568:	dfc00d17 	ldw	ra,52(sp)
1000456c:	df000c17 	ldw	fp,48(sp)
10004570:	ddc00b17 	ldw	r23,44(sp)
10004574:	dd800a17 	ldw	r22,40(sp)
10004578:	dd400917 	ldw	r21,36(sp)
1000457c:	dd000817 	ldw	r20,32(sp)
10004580:	dcc00717 	ldw	r19,28(sp)
10004584:	dc800617 	ldw	r18,24(sp)
10004588:	dc400517 	ldw	r17,20(sp)
1000458c:	dc000417 	ldw	r16,16(sp)
10004590:	dec00e04 	addi	sp,sp,56
10004594:	f800283a 	ret
10004598:	0005883a 	mov	r2,zero
1000459c:	003ff206 	br	10004568 <__alt_data_end+0xf8004568>

100045a0 <_dtoa_r>:
100045a0:	20801017 	ldw	r2,64(r4)
100045a4:	deffdf04 	addi	sp,sp,-132
100045a8:	dcc01a15 	stw	r19,104(sp)
100045ac:	dc801915 	stw	r18,100(sp)
100045b0:	dc401815 	stw	r17,96(sp)
100045b4:	dc001715 	stw	r16,92(sp)
100045b8:	dfc02015 	stw	ra,128(sp)
100045bc:	df001f15 	stw	fp,124(sp)
100045c0:	ddc01e15 	stw	r23,120(sp)
100045c4:	dd801d15 	stw	r22,116(sp)
100045c8:	dd401c15 	stw	r21,112(sp)
100045cc:	dd001b15 	stw	r20,108(sp)
100045d0:	d9400315 	stw	r5,12(sp)
100045d4:	d9c00415 	stw	r7,16(sp)
100045d8:	2021883a 	mov	r16,r4
100045dc:	3025883a 	mov	r18,r6
100045e0:	dcc02317 	ldw	r19,140(sp)
100045e4:	3023883a 	mov	r17,r6
100045e8:	10000826 	beq	r2,zero,1000460c <_dtoa_r+0x6c>
100045ec:	20c01117 	ldw	r3,68(r4)
100045f0:	01800044 	movi	r6,1
100045f4:	100b883a 	mov	r5,r2
100045f8:	30cc983a 	sll	r6,r6,r3
100045fc:	10c00115 	stw	r3,4(r2)
10004600:	11800215 	stw	r6,8(r2)
10004604:	0007a600 	call	10007a60 <_Bfree>
10004608:	80001015 	stw	zero,64(r16)
1000460c:	90002f16 	blt	r18,zero,100046cc <_dtoa_r+0x12c>
10004610:	98000015 	stw	zero,0(r19)
10004614:	90dffc2c 	andhi	r3,r18,32752
10004618:	009ffc34 	movhi	r2,32752
1000461c:	18801c26 	beq	r3,r2,10004690 <_dtoa_r+0xf0>
10004620:	d9000317 	ldw	r4,12(sp)
10004624:	880b883a 	mov	r5,r17
10004628:	000d883a 	mov	r6,zero
1000462c:	000f883a 	mov	r7,zero
10004630:	000acb40 	call	1000acb4 <__nedf2>
10004634:	10002c1e 	bne	r2,zero,100046e8 <_dtoa_r+0x148>
10004638:	d9002217 	ldw	r4,136(sp)
1000463c:	d9c02417 	ldw	r7,144(sp)
10004640:	00800044 	movi	r2,1
10004644:	20800015 	stw	r2,0(r4)
10004648:	38019426 	beq	r7,zero,10004c9c <_dtoa_r+0x6fc>
1000464c:	00840074 	movhi	r2,4097
10004650:	10ba1a44 	addi	r2,r2,-6039
10004654:	38800015 	stw	r2,0(r7)
10004658:	15ffffc4 	addi	r23,r2,-1
1000465c:	b805883a 	mov	r2,r23
10004660:	dfc02017 	ldw	ra,128(sp)
10004664:	df001f17 	ldw	fp,124(sp)
10004668:	ddc01e17 	ldw	r23,120(sp)
1000466c:	dd801d17 	ldw	r22,116(sp)
10004670:	dd401c17 	ldw	r21,112(sp)
10004674:	dd001b17 	ldw	r20,108(sp)
10004678:	dcc01a17 	ldw	r19,104(sp)
1000467c:	dc801917 	ldw	r18,100(sp)
10004680:	dc401817 	ldw	r17,96(sp)
10004684:	dc001717 	ldw	r16,92(sp)
10004688:	dec02104 	addi	sp,sp,132
1000468c:	f800283a 	ret
10004690:	d8c02217 	ldw	r3,136(sp)
10004694:	d9000317 	ldw	r4,12(sp)
10004698:	0089c3c4 	movi	r2,9999
1000469c:	18800015 	stw	r2,0(r3)
100046a0:	20016c26 	beq	r4,zero,10004c54 <_dtoa_r+0x6b4>
100046a4:	05c40074 	movhi	r23,4097
100046a8:	bdfa2604 	addi	r23,r23,-5992
100046ac:	d9c02417 	ldw	r7,144(sp)
100046b0:	383fea26 	beq	r7,zero,1000465c <__alt_data_end+0xf800465c>
100046b4:	b88000c7 	ldb	r2,3(r23)
100046b8:	10016d1e 	bne	r2,zero,10004c70 <_dtoa_r+0x6d0>
100046bc:	b88000c4 	addi	r2,r23,3
100046c0:	d8c02417 	ldw	r3,144(sp)
100046c4:	18800015 	stw	r2,0(r3)
100046c8:	003fe406 	br	1000465c <__alt_data_end+0xf800465c>
100046cc:	04600034 	movhi	r17,32768
100046d0:	8c7fffc4 	addi	r17,r17,-1
100046d4:	9462703a 	and	r17,r18,r17
100046d8:	00800044 	movi	r2,1
100046dc:	98800015 	stw	r2,0(r19)
100046e0:	8825883a 	mov	r18,r17
100046e4:	003fcb06 	br	10004614 <__alt_data_end+0xf8004614>
100046e8:	d9400317 	ldw	r5,12(sp)
100046ec:	9028d53a 	srli	r20,r18,20
100046f0:	d8800204 	addi	r2,sp,8
100046f4:	d8800015 	stw	r2,0(sp)
100046f8:	8009883a 	mov	r4,r16
100046fc:	880d883a 	mov	r6,r17
10004700:	d9c00104 	addi	r7,sp,4
10004704:	00086ac0 	call	100086ac <__d2b>
10004708:	a501ffcc 	andi	r20,r20,2047
1000470c:	1039883a 	mov	fp,r2
10004710:	a001591e 	bne	r20,zero,10004c78 <_dtoa_r+0x6d8>
10004714:	dd400217 	ldw	r21,8(sp)
10004718:	dd000117 	ldw	r20,4(sp)
1000471c:	00befbc4 	movi	r2,-1041
10004720:	ad29883a 	add	r20,r21,r20
10004724:	a082d216 	blt	r20,r2,10005270 <_dtoa_r+0xcd0>
10004728:	d8c00317 	ldw	r3,12(sp)
1000472c:	013f0384 	movi	r4,-1010
10004730:	2509c83a 	sub	r4,r4,r20
10004734:	a0810484 	addi	r2,r20,1042
10004738:	9124983a 	sll	r18,r18,r4
1000473c:	1884d83a 	srl	r2,r3,r2
10004740:	9088b03a 	or	r4,r18,r2
10004744:	000afcc0 	call	1000afcc <__floatunsidf>
10004748:	1009883a 	mov	r4,r2
1000474c:	017f8434 	movhi	r5,65040
10004750:	00800044 	movi	r2,1
10004754:	194b883a 	add	r5,r3,r5
10004758:	a53fffc4 	addi	r20,r20,-1
1000475c:	d8800f15 	stw	r2,60(sp)
10004760:	000d883a 	mov	r6,zero
10004764:	01cffe34 	movhi	r7,16376
10004768:	000a7600 	call	1000a760 <__subdf3>
1000476c:	1009883a 	mov	r4,r2
10004770:	180b883a 	mov	r5,r3
10004774:	0198dbf4 	movhi	r6,25455
10004778:	3190d844 	addi	r6,r6,17249
1000477c:	01cff4f4 	movhi	r7,16339
10004780:	39e1e9c4 	addi	r7,r7,-30809
10004784:	000a7c00 	call	1000a7c0 <__muldf3>
10004788:	180b883a 	mov	r5,r3
1000478c:	01a2d874 	movhi	r6,35681
10004790:	31b22cc4 	addi	r6,r6,-14157
10004794:	01cff1f4 	movhi	r7,16327
10004798:	39e28a04 	addi	r7,r7,-30168
1000479c:	1009883a 	mov	r4,r2
100047a0:	000a70c0 	call	1000a70c <__adddf3>
100047a4:	a009883a 	mov	r4,r20
100047a8:	1027883a 	mov	r19,r2
100047ac:	1825883a 	mov	r18,r3
100047b0:	000ae340 	call	1000ae34 <__floatsidf>
100047b4:	1009883a 	mov	r4,r2
100047b8:	180b883a 	mov	r5,r3
100047bc:	019427f4 	movhi	r6,20639
100047c0:	319e7ec4 	addi	r6,r6,31227
100047c4:	01cff4f4 	movhi	r7,16339
100047c8:	39d104c4 	addi	r7,r7,17427
100047cc:	000a7c00 	call	1000a7c0 <__muldf3>
100047d0:	9809883a 	mov	r4,r19
100047d4:	900b883a 	mov	r5,r18
100047d8:	100d883a 	mov	r6,r2
100047dc:	180f883a 	mov	r7,r3
100047e0:	000a70c0 	call	1000a70c <__adddf3>
100047e4:	1009883a 	mov	r4,r2
100047e8:	180b883a 	mov	r5,r3
100047ec:	1027883a 	mov	r19,r2
100047f0:	1825883a 	mov	r18,r3
100047f4:	000af080 	call	1000af08 <__fixdfsi>
100047f8:	9809883a 	mov	r4,r19
100047fc:	900b883a 	mov	r5,r18
10004800:	000d883a 	mov	r6,zero
10004804:	000f883a 	mov	r7,zero
10004808:	d8800615 	stw	r2,24(sp)
1000480c:	000add80 	call	1000add8 <__ltdf2>
10004810:	10027e16 	blt	r2,zero,1000520c <_dtoa_r+0xc6c>
10004814:	d8c00617 	ldw	r3,24(sp)
10004818:	00800584 	movi	r2,22
1000481c:	10c26c36 	bltu	r2,r3,100051d0 <_dtoa_r+0xc30>
10004820:	180490fa 	slli	r2,r3,3
10004824:	00c40074 	movhi	r3,4097
10004828:	18fa4c04 	addi	r3,r3,-5840
1000482c:	d9800317 	ldw	r6,12(sp)
10004830:	1885883a 	add	r2,r3,r2
10004834:	11000017 	ldw	r4,0(r2)
10004838:	11400117 	ldw	r5,4(r2)
1000483c:	880f883a 	mov	r7,r17
10004840:	000ad100 	call	1000ad10 <__gtdf2>
10004844:	00828f0e 	bge	zero,r2,10005284 <_dtoa_r+0xce4>
10004848:	d8800617 	ldw	r2,24(sp)
1000484c:	d8000d15 	stw	zero,52(sp)
10004850:	10bfffc4 	addi	r2,r2,-1
10004854:	d8800615 	stw	r2,24(sp)
10004858:	ad29c83a 	sub	r20,r21,r20
1000485c:	a53fffc4 	addi	r20,r20,-1
10004860:	a0026616 	blt	r20,zero,100051fc <_dtoa_r+0xc5c>
10004864:	dd000715 	stw	r20,28(sp)
10004868:	d8000815 	stw	zero,32(sp)
1000486c:	d8800617 	ldw	r2,24(sp)
10004870:	10025a16 	blt	r2,zero,100051dc <_dtoa_r+0xc3c>
10004874:	d8c00717 	ldw	r3,28(sp)
10004878:	d8800b15 	stw	r2,44(sp)
1000487c:	d8000a15 	stw	zero,40(sp)
10004880:	1887883a 	add	r3,r3,r2
10004884:	d8c00715 	stw	r3,28(sp)
10004888:	d9c00417 	ldw	r7,16(sp)
1000488c:	00800244 	movi	r2,9
10004890:	11c10536 	bltu	r2,r7,10004ca8 <_dtoa_r+0x708>
10004894:	00800144 	movi	r2,5
10004898:	11c4c60e 	bge	r2,r7,10005bb4 <_dtoa_r+0x1614>
1000489c:	39ffff04 	addi	r7,r7,-4
100048a0:	d9c00415 	stw	r7,16(sp)
100048a4:	0027883a 	mov	r19,zero
100048a8:	d9c00417 	ldw	r7,16(sp)
100048ac:	008000c4 	movi	r2,3
100048b0:	3883a226 	beq	r7,r2,1000573c <_dtoa_r+0x119c>
100048b4:	11c2bc16 	blt	r2,r7,100053a8 <_dtoa_r+0xe08>
100048b8:	00800084 	movi	r2,2
100048bc:	3880fb1e 	bne	r7,r2,10004cac <_dtoa_r+0x70c>
100048c0:	d8000c15 	stw	zero,48(sp)
100048c4:	d9002117 	ldw	r4,132(sp)
100048c8:	0103ae0e 	bge	zero,r4,10005784 <_dtoa_r+0x11e4>
100048cc:	2025883a 	mov	r18,r4
100048d0:	d9000e15 	stw	r4,56(sp)
100048d4:	d9000915 	stw	r4,36(sp)
100048d8:	80001115 	stw	zero,68(r16)
100048dc:	008005c4 	movi	r2,23
100048e0:	1484b22e 	bgeu	r2,r18,10005bac <_dtoa_r+0x160c>
100048e4:	00c00044 	movi	r3,1
100048e8:	00800104 	movi	r2,4
100048ec:	1085883a 	add	r2,r2,r2
100048f0:	11000504 	addi	r4,r2,20
100048f4:	180b883a 	mov	r5,r3
100048f8:	18c00044 	addi	r3,r3,1
100048fc:	913ffb2e 	bgeu	r18,r4,100048ec <__alt_data_end+0xf80048ec>
10004900:	81401115 	stw	r5,68(r16)
10004904:	8009883a 	mov	r4,r16
10004908:	00079b80 	call	100079b8 <_Balloc>
1000490c:	102f883a 	mov	r23,r2
10004910:	80801015 	stw	r2,64(r16)
10004914:	00800384 	movi	r2,14
10004918:	1480f036 	bltu	r2,r18,10004cdc <_dtoa_r+0x73c>
1000491c:	9800ef26 	beq	r19,zero,10004cdc <_dtoa_r+0x73c>
10004920:	d8800617 	ldw	r2,24(sp)
10004924:	00839c0e 	bge	zero,r2,10005798 <_dtoa_r+0x11f8>
10004928:	d8c00617 	ldw	r3,24(sp)
1000492c:	108003cc 	andi	r2,r2,15
10004930:	100490fa 	slli	r2,r2,3
10004934:	182bd13a 	srai	r21,r3,4
10004938:	00c40074 	movhi	r3,4097
1000493c:	18fa4c04 	addi	r3,r3,-5840
10004940:	1885883a 	add	r2,r3,r2
10004944:	a8c0040c 	andi	r3,r21,16
10004948:	12800017 	ldw	r10,0(r2)
1000494c:	15800117 	ldw	r22,4(r2)
10004950:	18038726 	beq	r3,zero,10005770 <_dtoa_r+0x11d0>
10004954:	00840074 	movhi	r2,4097
10004958:	10ba4204 	addi	r2,r2,-5880
1000495c:	11800817 	ldw	r6,32(r2)
10004960:	11c00917 	ldw	r7,36(r2)
10004964:	d9000317 	ldw	r4,12(sp)
10004968:	880b883a 	mov	r5,r17
1000496c:	da801515 	stw	r10,84(sp)
10004970:	000aaa40 	call	1000aaa4 <__divdf3>
10004974:	da801517 	ldw	r10,84(sp)
10004978:	d8801015 	stw	r2,64(sp)
1000497c:	1829883a 	mov	r20,r3
10004980:	ad4003cc 	andi	r21,r21,15
10004984:	048000c4 	movi	r18,3
10004988:	a8001126 	beq	r21,zero,100049d0 <_dtoa_r+0x430>
1000498c:	04c40074 	movhi	r19,4097
10004990:	9cfa4204 	addi	r19,r19,-5880
10004994:	5005883a 	mov	r2,r10
10004998:	b007883a 	mov	r3,r22
1000499c:	a980004c 	andi	r6,r21,1
100049a0:	1009883a 	mov	r4,r2
100049a4:	a82bd07a 	srai	r21,r21,1
100049a8:	180b883a 	mov	r5,r3
100049ac:	30000426 	beq	r6,zero,100049c0 <_dtoa_r+0x420>
100049b0:	99800017 	ldw	r6,0(r19)
100049b4:	99c00117 	ldw	r7,4(r19)
100049b8:	94800044 	addi	r18,r18,1
100049bc:	000a7c00 	call	1000a7c0 <__muldf3>
100049c0:	9cc00204 	addi	r19,r19,8
100049c4:	a83ff51e 	bne	r21,zero,1000499c <__alt_data_end+0xf800499c>
100049c8:	1015883a 	mov	r10,r2
100049cc:	182d883a 	mov	r22,r3
100049d0:	d9001017 	ldw	r4,64(sp)
100049d4:	a00b883a 	mov	r5,r20
100049d8:	500d883a 	mov	r6,r10
100049dc:	b00f883a 	mov	r7,r22
100049e0:	000aaa40 	call	1000aaa4 <__divdf3>
100049e4:	1027883a 	mov	r19,r2
100049e8:	1829883a 	mov	r20,r3
100049ec:	d8c00d17 	ldw	r3,52(sp)
100049f0:	18000626 	beq	r3,zero,10004a0c <_dtoa_r+0x46c>
100049f4:	9809883a 	mov	r4,r19
100049f8:	a00b883a 	mov	r5,r20
100049fc:	000d883a 	mov	r6,zero
10004a00:	01cffc34 	movhi	r7,16368
10004a04:	000add80 	call	1000add8 <__ltdf2>
10004a08:	10040e16 	blt	r2,zero,10005a44 <_dtoa_r+0x14a4>
10004a0c:	9009883a 	mov	r4,r18
10004a10:	000ae340 	call	1000ae34 <__floatsidf>
10004a14:	1009883a 	mov	r4,r2
10004a18:	180b883a 	mov	r5,r3
10004a1c:	980d883a 	mov	r6,r19
10004a20:	a00f883a 	mov	r7,r20
10004a24:	000a7c00 	call	1000a7c0 <__muldf3>
10004a28:	1009883a 	mov	r4,r2
10004a2c:	180b883a 	mov	r5,r3
10004a30:	000d883a 	mov	r6,zero
10004a34:	01d00734 	movhi	r7,16412
10004a38:	000a70c0 	call	1000a70c <__adddf3>
10004a3c:	057f3034 	movhi	r21,64704
10004a40:	1d6b883a 	add	r21,r3,r21
10004a44:	d8c00917 	ldw	r3,36(sp)
10004a48:	1025883a 	mov	r18,r2
10004a4c:	18031f26 	beq	r3,zero,100056cc <_dtoa_r+0x112c>
10004a50:	d8800617 	ldw	r2,24(sp)
10004a54:	dac00917 	ldw	r11,36(sp)
10004a58:	d8801315 	stw	r2,76(sp)
10004a5c:	d8c00c17 	ldw	r3,48(sp)
10004a60:	18039026 	beq	r3,zero,100058a4 <_dtoa_r+0x1304>
10004a64:	58bfffc4 	addi	r2,r11,-1
10004a68:	100490fa 	slli	r2,r2,3
10004a6c:	00c40074 	movhi	r3,4097
10004a70:	18fa4c04 	addi	r3,r3,-5840
10004a74:	0009883a 	mov	r4,zero
10004a78:	1885883a 	add	r2,r3,r2
10004a7c:	11800017 	ldw	r6,0(r2)
10004a80:	11c00117 	ldw	r7,4(r2)
10004a84:	014ff834 	movhi	r5,16352
10004a88:	dac01615 	stw	r11,88(sp)
10004a8c:	000aaa40 	call	1000aaa4 <__divdf3>
10004a90:	900d883a 	mov	r6,r18
10004a94:	a80f883a 	mov	r7,r21
10004a98:	1009883a 	mov	r4,r2
10004a9c:	180b883a 	mov	r5,r3
10004aa0:	000a7600 	call	1000a760 <__subdf3>
10004aa4:	a00b883a 	mov	r5,r20
10004aa8:	9809883a 	mov	r4,r19
10004aac:	182b883a 	mov	r21,r3
10004ab0:	d8801015 	stw	r2,64(sp)
10004ab4:	000af080 	call	1000af08 <__fixdfsi>
10004ab8:	1009883a 	mov	r4,r2
10004abc:	d8801515 	stw	r2,84(sp)
10004ac0:	000ae340 	call	1000ae34 <__floatsidf>
10004ac4:	9809883a 	mov	r4,r19
10004ac8:	a00b883a 	mov	r5,r20
10004acc:	100d883a 	mov	r6,r2
10004ad0:	180f883a 	mov	r7,r3
10004ad4:	000a7600 	call	1000a760 <__subdf3>
10004ad8:	da401517 	ldw	r9,84(sp)
10004adc:	d9001017 	ldw	r4,64(sp)
10004ae0:	a80b883a 	mov	r5,r21
10004ae4:	4d000c04 	addi	r20,r9,48
10004ae8:	bd000005 	stb	r20,0(r23)
10004aec:	100d883a 	mov	r6,r2
10004af0:	180f883a 	mov	r7,r3
10004af4:	bd800044 	addi	r22,r23,1
10004af8:	1025883a 	mov	r18,r2
10004afc:	1827883a 	mov	r19,r3
10004b00:	000ad100 	call	1000ad10 <__gtdf2>
10004b04:	00842216 	blt	zero,r2,10005b90 <_dtoa_r+0x15f0>
10004b08:	0009883a 	mov	r4,zero
10004b0c:	014ffc34 	movhi	r5,16368
10004b10:	900d883a 	mov	r6,r18
10004b14:	980f883a 	mov	r7,r19
10004b18:	000a7600 	call	1000a760 <__subdf3>
10004b1c:	d9001017 	ldw	r4,64(sp)
10004b20:	a80b883a 	mov	r5,r21
10004b24:	100d883a 	mov	r6,r2
10004b28:	180f883a 	mov	r7,r3
10004b2c:	000ad100 	call	1000ad10 <__gtdf2>
10004b30:	dac01617 	ldw	r11,88(sp)
10004b34:	00841316 	blt	zero,r2,10005b84 <_dtoa_r+0x15e4>
10004b38:	00800044 	movi	r2,1
10004b3c:	12c0670e 	bge	r2,r11,10004cdc <_dtoa_r+0x73c>
10004b40:	bad7883a 	add	r11,r23,r11
10004b44:	df001115 	stw	fp,68(sp)
10004b48:	dc401215 	stw	r17,72(sp)
10004b4c:	5839883a 	mov	fp,r11
10004b50:	dc401017 	ldw	r17,64(sp)
10004b54:	00000806 	br	10004b78 <_dtoa_r+0x5d8>
10004b58:	000a7600 	call	1000a760 <__subdf3>
10004b5c:	1009883a 	mov	r4,r2
10004b60:	180b883a 	mov	r5,r3
10004b64:	880d883a 	mov	r6,r17
10004b68:	a80f883a 	mov	r7,r21
10004b6c:	000add80 	call	1000add8 <__ltdf2>
10004b70:	1003ee16 	blt	r2,zero,10005b2c <_dtoa_r+0x158c>
10004b74:	b703f126 	beq	r22,fp,10005b3c <_dtoa_r+0x159c>
10004b78:	8809883a 	mov	r4,r17
10004b7c:	a80b883a 	mov	r5,r21
10004b80:	000d883a 	mov	r6,zero
10004b84:	01d00934 	movhi	r7,16420
10004b88:	000a7c00 	call	1000a7c0 <__muldf3>
10004b8c:	000d883a 	mov	r6,zero
10004b90:	01d00934 	movhi	r7,16420
10004b94:	9009883a 	mov	r4,r18
10004b98:	980b883a 	mov	r5,r19
10004b9c:	1023883a 	mov	r17,r2
10004ba0:	182b883a 	mov	r21,r3
10004ba4:	000a7c00 	call	1000a7c0 <__muldf3>
10004ba8:	180b883a 	mov	r5,r3
10004bac:	1009883a 	mov	r4,r2
10004bb0:	1825883a 	mov	r18,r3
10004bb4:	1027883a 	mov	r19,r2
10004bb8:	000af080 	call	1000af08 <__fixdfsi>
10004bbc:	1009883a 	mov	r4,r2
10004bc0:	1029883a 	mov	r20,r2
10004bc4:	000ae340 	call	1000ae34 <__floatsidf>
10004bc8:	9809883a 	mov	r4,r19
10004bcc:	900b883a 	mov	r5,r18
10004bd0:	100d883a 	mov	r6,r2
10004bd4:	180f883a 	mov	r7,r3
10004bd8:	000a7600 	call	1000a760 <__subdf3>
10004bdc:	a5000c04 	addi	r20,r20,48
10004be0:	b5000005 	stb	r20,0(r22)
10004be4:	1009883a 	mov	r4,r2
10004be8:	180b883a 	mov	r5,r3
10004bec:	880d883a 	mov	r6,r17
10004bf0:	a80f883a 	mov	r7,r21
10004bf4:	1025883a 	mov	r18,r2
10004bf8:	1827883a 	mov	r19,r3
10004bfc:	000add80 	call	1000add8 <__ltdf2>
10004c00:	b5800044 	addi	r22,r22,1
10004c04:	0009883a 	mov	r4,zero
10004c08:	014ffc34 	movhi	r5,16368
10004c0c:	900d883a 	mov	r6,r18
10004c10:	980f883a 	mov	r7,r19
10004c14:	103fd00e 	bge	r2,zero,10004b58 <__alt_data_end+0xf8004b58>
10004c18:	d9001317 	ldw	r4,76(sp)
10004c1c:	df001117 	ldw	fp,68(sp)
10004c20:	d9000615 	stw	r4,24(sp)
10004c24:	8009883a 	mov	r4,r16
10004c28:	e00b883a 	mov	r5,fp
10004c2c:	0007a600 	call	10007a60 <_Bfree>
10004c30:	d9c00617 	ldw	r7,24(sp)
10004c34:	d8c02217 	ldw	r3,136(sp)
10004c38:	d9002417 	ldw	r4,144(sp)
10004c3c:	b0000005 	stb	zero,0(r22)
10004c40:	38800044 	addi	r2,r7,1
10004c44:	18800015 	stw	r2,0(r3)
10004c48:	203e8426 	beq	r4,zero,1000465c <__alt_data_end+0xf800465c>
10004c4c:	25800015 	stw	r22,0(r4)
10004c50:	003e8206 	br	1000465c <__alt_data_end+0xf800465c>
10004c54:	00800434 	movhi	r2,16
10004c58:	10bfffc4 	addi	r2,r2,-1
10004c5c:	90a4703a 	and	r18,r18,r2
10004c60:	903e901e 	bne	r18,zero,100046a4 <__alt_data_end+0xf80046a4>
10004c64:	05c40074 	movhi	r23,4097
10004c68:	bdfa2304 	addi	r23,r23,-6004
10004c6c:	003e8f06 	br	100046ac <__alt_data_end+0xf80046ac>
10004c70:	b8800204 	addi	r2,r23,8
10004c74:	003e9206 	br	100046c0 <__alt_data_end+0xf80046c0>
10004c78:	01400434 	movhi	r5,16
10004c7c:	297fffc4 	addi	r5,r5,-1
10004c80:	894a703a 	and	r5,r17,r5
10004c84:	d9000317 	ldw	r4,12(sp)
10004c88:	294ffc34 	orhi	r5,r5,16368
10004c8c:	a53f0044 	addi	r20,r20,-1023
10004c90:	dd400217 	ldw	r21,8(sp)
10004c94:	d8000f15 	stw	zero,60(sp)
10004c98:	003eb106 	br	10004760 <__alt_data_end+0xf8004760>
10004c9c:	05c40074 	movhi	r23,4097
10004ca0:	bdfa1a04 	addi	r23,r23,-6040
10004ca4:	003e6d06 	br	1000465c <__alt_data_end+0xf800465c>
10004ca8:	d8000415 	stw	zero,16(sp)
10004cac:	80001115 	stw	zero,68(r16)
10004cb0:	8009883a 	mov	r4,r16
10004cb4:	000b883a 	mov	r5,zero
10004cb8:	00079b80 	call	100079b8 <_Balloc>
10004cbc:	01ffffc4 	movi	r7,-1
10004cc0:	102f883a 	mov	r23,r2
10004cc4:	80801015 	stw	r2,64(r16)
10004cc8:	00800044 	movi	r2,1
10004ccc:	d9c00915 	stw	r7,36(sp)
10004cd0:	d8002115 	stw	zero,132(sp)
10004cd4:	d9c00e15 	stw	r7,56(sp)
10004cd8:	d8800c15 	stw	r2,48(sp)
10004cdc:	d8800117 	ldw	r2,4(sp)
10004ce0:	10008b16 	blt	r2,zero,10004f10 <_dtoa_r+0x970>
10004ce4:	d9000617 	ldw	r4,24(sp)
10004ce8:	00c00384 	movi	r3,14
10004cec:	19008816 	blt	r3,r4,10004f10 <_dtoa_r+0x970>
10004cf0:	200490fa 	slli	r2,r4,3
10004cf4:	d9c02117 	ldw	r7,132(sp)
10004cf8:	00c40074 	movhi	r3,4097
10004cfc:	18fa4c04 	addi	r3,r3,-5840
10004d00:	1885883a 	add	r2,r3,r2
10004d04:	14800017 	ldw	r18,0(r2)
10004d08:	14c00117 	ldw	r19,4(r2)
10004d0c:	3801c916 	blt	r7,zero,10005434 <_dtoa_r+0xe94>
10004d10:	d9000317 	ldw	r4,12(sp)
10004d14:	900d883a 	mov	r6,r18
10004d18:	980f883a 	mov	r7,r19
10004d1c:	880b883a 	mov	r5,r17
10004d20:	000aaa40 	call	1000aaa4 <__divdf3>
10004d24:	180b883a 	mov	r5,r3
10004d28:	1009883a 	mov	r4,r2
10004d2c:	000af080 	call	1000af08 <__fixdfsi>
10004d30:	1009883a 	mov	r4,r2
10004d34:	102b883a 	mov	r21,r2
10004d38:	000ae340 	call	1000ae34 <__floatsidf>
10004d3c:	1009883a 	mov	r4,r2
10004d40:	180b883a 	mov	r5,r3
10004d44:	900d883a 	mov	r6,r18
10004d48:	980f883a 	mov	r7,r19
10004d4c:	000a7c00 	call	1000a7c0 <__muldf3>
10004d50:	d9000317 	ldw	r4,12(sp)
10004d54:	880b883a 	mov	r5,r17
10004d58:	100d883a 	mov	r6,r2
10004d5c:	180f883a 	mov	r7,r3
10004d60:	000a7600 	call	1000a760 <__subdf3>
10004d64:	d9c00917 	ldw	r7,36(sp)
10004d68:	1009883a 	mov	r4,r2
10004d6c:	a8800c04 	addi	r2,r21,48
10004d70:	b8800005 	stb	r2,0(r23)
10004d74:	01800044 	movi	r6,1
10004d78:	180b883a 	mov	r5,r3
10004d7c:	2005883a 	mov	r2,r4
10004d80:	bd800044 	addi	r22,r23,1
10004d84:	39803726 	beq	r7,r6,10004e64 <_dtoa_r+0x8c4>
10004d88:	000d883a 	mov	r6,zero
10004d8c:	01d00934 	movhi	r7,16420
10004d90:	000a7c00 	call	1000a7c0 <__muldf3>
10004d94:	1009883a 	mov	r4,r2
10004d98:	180b883a 	mov	r5,r3
10004d9c:	000d883a 	mov	r6,zero
10004da0:	000f883a 	mov	r7,zero
10004da4:	1029883a 	mov	r20,r2
10004da8:	1823883a 	mov	r17,r3
10004dac:	000ac580 	call	1000ac58 <__eqdf2>
10004db0:	103f9c26 	beq	r2,zero,10004c24 <__alt_data_end+0xf8004c24>
10004db4:	dd400917 	ldw	r21,36(sp)
10004db8:	dc000415 	stw	r16,16(sp)
10004dbc:	00000906 	br	10004de4 <_dtoa_r+0x844>
10004dc0:	000a7c00 	call	1000a7c0 <__muldf3>
10004dc4:	1009883a 	mov	r4,r2
10004dc8:	180b883a 	mov	r5,r3
10004dcc:	000d883a 	mov	r6,zero
10004dd0:	000f883a 	mov	r7,zero
10004dd4:	1029883a 	mov	r20,r2
10004dd8:	1823883a 	mov	r17,r3
10004ddc:	000ac580 	call	1000ac58 <__eqdf2>
10004de0:	10022926 	beq	r2,zero,10005688 <_dtoa_r+0x10e8>
10004de4:	900d883a 	mov	r6,r18
10004de8:	980f883a 	mov	r7,r19
10004dec:	a009883a 	mov	r4,r20
10004df0:	880b883a 	mov	r5,r17
10004df4:	000aaa40 	call	1000aaa4 <__divdf3>
10004df8:	180b883a 	mov	r5,r3
10004dfc:	1009883a 	mov	r4,r2
10004e00:	000af080 	call	1000af08 <__fixdfsi>
10004e04:	1009883a 	mov	r4,r2
10004e08:	1021883a 	mov	r16,r2
10004e0c:	000ae340 	call	1000ae34 <__floatsidf>
10004e10:	1009883a 	mov	r4,r2
10004e14:	180b883a 	mov	r5,r3
10004e18:	900d883a 	mov	r6,r18
10004e1c:	980f883a 	mov	r7,r19
10004e20:	000a7c00 	call	1000a7c0 <__muldf3>
10004e24:	a009883a 	mov	r4,r20
10004e28:	880b883a 	mov	r5,r17
10004e2c:	100d883a 	mov	r6,r2
10004e30:	180f883a 	mov	r7,r3
10004e34:	000a7600 	call	1000a760 <__subdf3>
10004e38:	82400c04 	addi	r9,r16,48
10004e3c:	b2400005 	stb	r9,0(r22)
10004e40:	b5800044 	addi	r22,r22,1
10004e44:	b5d3c83a 	sub	r9,r22,r23
10004e48:	000d883a 	mov	r6,zero
10004e4c:	01d00934 	movhi	r7,16420
10004e50:	1009883a 	mov	r4,r2
10004e54:	180b883a 	mov	r5,r3
10004e58:	aa7fd91e 	bne	r21,r9,10004dc0 <__alt_data_end+0xf8004dc0>
10004e5c:	802b883a 	mov	r21,r16
10004e60:	dc000417 	ldw	r16,16(sp)
10004e64:	1009883a 	mov	r4,r2
10004e68:	180b883a 	mov	r5,r3
10004e6c:	100d883a 	mov	r6,r2
10004e70:	180f883a 	mov	r7,r3
10004e74:	000a70c0 	call	1000a70c <__adddf3>
10004e78:	9009883a 	mov	r4,r18
10004e7c:	980b883a 	mov	r5,r19
10004e80:	100d883a 	mov	r6,r2
10004e84:	180f883a 	mov	r7,r3
10004e88:	1023883a 	mov	r17,r2
10004e8c:	1829883a 	mov	r20,r3
10004e90:	000add80 	call	1000add8 <__ltdf2>
10004e94:	10000816 	blt	r2,zero,10004eb8 <_dtoa_r+0x918>
10004e98:	9009883a 	mov	r4,r18
10004e9c:	980b883a 	mov	r5,r19
10004ea0:	880d883a 	mov	r6,r17
10004ea4:	a00f883a 	mov	r7,r20
10004ea8:	000acb40 	call	1000acb4 <__nedf2>
10004eac:	103f5d1e 	bne	r2,zero,10004c24 <__alt_data_end+0xf8004c24>
10004eb0:	ad40004c 	andi	r21,r21,1
10004eb4:	a83f5b26 	beq	r21,zero,10004c24 <__alt_data_end+0xf8004c24>
10004eb8:	b53fffc3 	ldbu	r20,-1(r22)
10004ebc:	b0ffff84 	addi	r3,r22,-2
10004ec0:	01400e44 	movi	r5,57
10004ec4:	00000306 	br	10004ed4 <_dtoa_r+0x934>
10004ec8:	1d000003 	ldbu	r20,0(r3)
10004ecc:	102d883a 	mov	r22,r2
10004ed0:	18ffffc4 	addi	r3,r3,-1
10004ed4:	a1003fcc 	andi	r4,r20,255
10004ed8:	2100201c 	xori	r4,r4,128
10004edc:	213fe004 	addi	r4,r4,-128
10004ee0:	b0bfffc4 	addi	r2,r22,-1
10004ee4:	2142ca1e 	bne	r4,r5,10005a10 <_dtoa_r+0x1470>
10004ee8:	b8bff71e 	bne	r23,r2,10004ec8 <__alt_data_end+0xf8004ec8>
10004eec:	d8800617 	ldw	r2,24(sp)
10004ef0:	05000c44 	movi	r20,49
10004ef4:	10800044 	addi	r2,r2,1
10004ef8:	d8800615 	stw	r2,24(sp)
10004efc:	00800c04 	movi	r2,48
10004f00:	b8800005 	stb	r2,0(r23)
10004f04:	b805883a 	mov	r2,r23
10004f08:	15000005 	stb	r20,0(r2)
10004f0c:	003f4506 	br	10004c24 <__alt_data_end+0xf8004c24>
10004f10:	d9c00c17 	ldw	r7,48(sp)
10004f14:	3800c926 	beq	r7,zero,1000523c <_dtoa_r+0xc9c>
10004f18:	d9c00417 	ldw	r7,16(sp)
10004f1c:	00c00044 	movi	r3,1
10004f20:	19c16c0e 	bge	r3,r7,100054d4 <_dtoa_r+0xf34>
10004f24:	d9000917 	ldw	r4,36(sp)
10004f28:	d9c00a17 	ldw	r7,40(sp)
10004f2c:	24ffffc4 	addi	r19,r4,-1
10004f30:	3cc20716 	blt	r7,r19,10005750 <_dtoa_r+0x11b0>
10004f34:	3ce7c83a 	sub	r19,r7,r19
10004f38:	d9c00917 	ldw	r7,36(sp)
10004f3c:	3802ae16 	blt	r7,zero,100059f8 <_dtoa_r+0x1458>
10004f40:	dc800817 	ldw	r18,32(sp)
10004f44:	d8800917 	ldw	r2,36(sp)
10004f48:	d8c00817 	ldw	r3,32(sp)
10004f4c:	d9c00717 	ldw	r7,28(sp)
10004f50:	8009883a 	mov	r4,r16
10004f54:	1887883a 	add	r3,r3,r2
10004f58:	388f883a 	add	r7,r7,r2
10004f5c:	01400044 	movi	r5,1
10004f60:	d8c00815 	stw	r3,32(sp)
10004f64:	d9c00715 	stw	r7,28(sp)
10004f68:	0007de80 	call	10007de8 <__i2b>
10004f6c:	102b883a 	mov	r21,r2
10004f70:	90000a26 	beq	r18,zero,10004f9c <_dtoa_r+0x9fc>
10004f74:	d8800717 	ldw	r2,28(sp)
10004f78:	0080080e 	bge	zero,r2,10004f9c <_dtoa_r+0x9fc>
10004f7c:	90812b16 	blt	r18,r2,1000542c <_dtoa_r+0xe8c>
10004f80:	d8c00817 	ldw	r3,32(sp)
10004f84:	d9000717 	ldw	r4,28(sp)
10004f88:	90a5c83a 	sub	r18,r18,r2
10004f8c:	1887c83a 	sub	r3,r3,r2
10004f90:	2089c83a 	sub	r4,r4,r2
10004f94:	d8c00815 	stw	r3,32(sp)
10004f98:	d9000715 	stw	r4,28(sp)
10004f9c:	d9c00a17 	ldw	r7,40(sp)
10004fa0:	01c0140e 	bge	zero,r7,10004ff4 <_dtoa_r+0xa54>
10004fa4:	d8800c17 	ldw	r2,48(sp)
10004fa8:	1001de26 	beq	r2,zero,10005724 <_dtoa_r+0x1184>
10004fac:	04c00e0e 	bge	zero,r19,10004fe8 <_dtoa_r+0xa48>
10004fb0:	a80b883a 	mov	r5,r21
10004fb4:	8009883a 	mov	r4,r16
10004fb8:	980d883a 	mov	r6,r19
10004fbc:	000807c0 	call	1000807c <__pow5mult>
10004fc0:	e00d883a 	mov	r6,fp
10004fc4:	8009883a 	mov	r4,r16
10004fc8:	100b883a 	mov	r5,r2
10004fcc:	102b883a 	mov	r21,r2
10004fd0:	0007e240 	call	10007e24 <__multiply>
10004fd4:	1029883a 	mov	r20,r2
10004fd8:	e00b883a 	mov	r5,fp
10004fdc:	8009883a 	mov	r4,r16
10004fe0:	0007a600 	call	10007a60 <_Bfree>
10004fe4:	a039883a 	mov	fp,r20
10004fe8:	d8c00a17 	ldw	r3,40(sp)
10004fec:	1ccdc83a 	sub	r6,r3,r19
10004ff0:	3001291e 	bne	r6,zero,10005498 <_dtoa_r+0xef8>
10004ff4:	8009883a 	mov	r4,r16
10004ff8:	01400044 	movi	r5,1
10004ffc:	0007de80 	call	10007de8 <__i2b>
10005000:	d9000b17 	ldw	r4,44(sp)
10005004:	1029883a 	mov	r20,r2
10005008:	0100050e 	bge	zero,r4,10005020 <_dtoa_r+0xa80>
1000500c:	d9800b17 	ldw	r6,44(sp)
10005010:	8009883a 	mov	r4,r16
10005014:	100b883a 	mov	r5,r2
10005018:	000807c0 	call	1000807c <__pow5mult>
1000501c:	1029883a 	mov	r20,r2
10005020:	d9c00417 	ldw	r7,16(sp)
10005024:	00800044 	movi	r2,1
10005028:	11c0f00e 	bge	r2,r7,100053ec <_dtoa_r+0xe4c>
1000502c:	0023883a 	mov	r17,zero
10005030:	d8800b17 	ldw	r2,44(sp)
10005034:	1001741e 	bne	r2,zero,10005608 <_dtoa_r+0x1068>
10005038:	00800044 	movi	r2,1
1000503c:	d8c00717 	ldw	r3,28(sp)
10005040:	10c5883a 	add	r2,r2,r3
10005044:	108007cc 	andi	r2,r2,31
10005048:	10008026 	beq	r2,zero,1000524c <_dtoa_r+0xcac>
1000504c:	01000804 	movi	r4,32
10005050:	2089c83a 	sub	r4,r4,r2
10005054:	00c00104 	movi	r3,4
10005058:	1902d00e 	bge	r3,r4,10005b9c <_dtoa_r+0x15fc>
1000505c:	d9000817 	ldw	r4,32(sp)
10005060:	d9c00717 	ldw	r7,28(sp)
10005064:	00c00704 	movi	r3,28
10005068:	1885c83a 	sub	r2,r3,r2
1000506c:	2089883a 	add	r4,r4,r2
10005070:	388f883a 	add	r7,r7,r2
10005074:	d9000815 	stw	r4,32(sp)
10005078:	90a5883a 	add	r18,r18,r2
1000507c:	d9c00715 	stw	r7,28(sp)
10005080:	d9c00817 	ldw	r7,32(sp)
10005084:	01c0050e 	bge	zero,r7,1000509c <_dtoa_r+0xafc>
10005088:	e00b883a 	mov	r5,fp
1000508c:	8009883a 	mov	r4,r16
10005090:	380d883a 	mov	r6,r7
10005094:	00081a80 	call	100081a8 <__lshift>
10005098:	1039883a 	mov	fp,r2
1000509c:	d8800717 	ldw	r2,28(sp)
100050a0:	0080050e 	bge	zero,r2,100050b8 <_dtoa_r+0xb18>
100050a4:	a00b883a 	mov	r5,r20
100050a8:	8009883a 	mov	r4,r16
100050ac:	100d883a 	mov	r6,r2
100050b0:	00081a80 	call	100081a8 <__lshift>
100050b4:	1029883a 	mov	r20,r2
100050b8:	d8c00d17 	ldw	r3,52(sp)
100050bc:	1801401e 	bne	r3,zero,100055c0 <_dtoa_r+0x1020>
100050c0:	d8800917 	ldw	r2,36(sp)
100050c4:	00815a0e 	bge	zero,r2,10005630 <_dtoa_r+0x1090>
100050c8:	d8c00c17 	ldw	r3,48(sp)
100050cc:	18006f1e 	bne	r3,zero,1000528c <_dtoa_r+0xcec>
100050d0:	b823883a 	mov	r17,r23
100050d4:	dc800917 	ldw	r18,36(sp)
100050d8:	00000206 	br	100050e4 <_dtoa_r+0xb44>
100050dc:	0007a880 	call	10007a88 <__multadd>
100050e0:	1039883a 	mov	fp,r2
100050e4:	e009883a 	mov	r4,fp
100050e8:	a00b883a 	mov	r5,r20
100050ec:	00043640 	call	10004364 <quorem>
100050f0:	10800c04 	addi	r2,r2,48
100050f4:	88800005 	stb	r2,0(r17)
100050f8:	8c400044 	addi	r17,r17,1
100050fc:	8dc7c83a 	sub	r3,r17,r23
10005100:	8009883a 	mov	r4,r16
10005104:	e00b883a 	mov	r5,fp
10005108:	01800284 	movi	r6,10
1000510c:	000f883a 	mov	r7,zero
10005110:	1cbff216 	blt	r3,r18,100050dc <__alt_data_end+0xf80050dc>
10005114:	dd800917 	ldw	r22,36(sp)
10005118:	1007883a 	mov	r3,r2
1000511c:	05823a0e 	bge	zero,r22,10005a08 <_dtoa_r+0x1468>
10005120:	bdad883a 	add	r22,r23,r22
10005124:	0023883a 	mov	r17,zero
10005128:	e00b883a 	mov	r5,fp
1000512c:	01800044 	movi	r6,1
10005130:	8009883a 	mov	r4,r16
10005134:	d8c01515 	stw	r3,84(sp)
10005138:	00081a80 	call	100081a8 <__lshift>
1000513c:	1009883a 	mov	r4,r2
10005140:	a00b883a 	mov	r5,r20
10005144:	1039883a 	mov	fp,r2
10005148:	00083040 	call	10008304 <__mcmp>
1000514c:	d8c01517 	ldw	r3,84(sp)
10005150:	0080d60e 	bge	zero,r2,100054ac <_dtoa_r+0xf0c>
10005154:	b13fffc3 	ldbu	r4,-1(r22)
10005158:	b0ffff84 	addi	r3,r22,-2
1000515c:	01800e44 	movi	r6,57
10005160:	00000306 	br	10005170 <_dtoa_r+0xbd0>
10005164:	19000003 	ldbu	r4,0(r3)
10005168:	102d883a 	mov	r22,r2
1000516c:	18ffffc4 	addi	r3,r3,-1
10005170:	21403fcc 	andi	r5,r4,255
10005174:	2940201c 	xori	r5,r5,128
10005178:	297fe004 	addi	r5,r5,-128
1000517c:	b0bfffc4 	addi	r2,r22,-1
10005180:	2981a71e 	bne	r5,r6,10005820 <_dtoa_r+0x1280>
10005184:	b8bff71e 	bne	r23,r2,10005164 <__alt_data_end+0xf8005164>
10005188:	d8800617 	ldw	r2,24(sp)
1000518c:	10800044 	addi	r2,r2,1
10005190:	d8800615 	stw	r2,24(sp)
10005194:	00800c44 	movi	r2,49
10005198:	b8800005 	stb	r2,0(r23)
1000519c:	8009883a 	mov	r4,r16
100051a0:	a00b883a 	mov	r5,r20
100051a4:	0007a600 	call	10007a60 <_Bfree>
100051a8:	a83e9e26 	beq	r21,zero,10004c24 <__alt_data_end+0xf8004c24>
100051ac:	88000426 	beq	r17,zero,100051c0 <_dtoa_r+0xc20>
100051b0:	8d400326 	beq	r17,r21,100051c0 <_dtoa_r+0xc20>
100051b4:	8009883a 	mov	r4,r16
100051b8:	880b883a 	mov	r5,r17
100051bc:	0007a600 	call	10007a60 <_Bfree>
100051c0:	8009883a 	mov	r4,r16
100051c4:	a80b883a 	mov	r5,r21
100051c8:	0007a600 	call	10007a60 <_Bfree>
100051cc:	003e9506 	br	10004c24 <__alt_data_end+0xf8004c24>
100051d0:	00c00044 	movi	r3,1
100051d4:	d8c00d15 	stw	r3,52(sp)
100051d8:	003d9f06 	br	10004858 <__alt_data_end+0xf8004858>
100051dc:	d9000817 	ldw	r4,32(sp)
100051e0:	d8800617 	ldw	r2,24(sp)
100051e4:	d8000b15 	stw	zero,44(sp)
100051e8:	2089c83a 	sub	r4,r4,r2
100051ec:	0087c83a 	sub	r3,zero,r2
100051f0:	d9000815 	stw	r4,32(sp)
100051f4:	d8c00a15 	stw	r3,40(sp)
100051f8:	003da306 	br	10004888 <__alt_data_end+0xf8004888>
100051fc:	0529c83a 	sub	r20,zero,r20
10005200:	dd000815 	stw	r20,32(sp)
10005204:	d8000715 	stw	zero,28(sp)
10005208:	003d9806 	br	1000486c <__alt_data_end+0xf800486c>
1000520c:	d9000617 	ldw	r4,24(sp)
10005210:	000ae340 	call	1000ae34 <__floatsidf>
10005214:	1009883a 	mov	r4,r2
10005218:	180b883a 	mov	r5,r3
1000521c:	980d883a 	mov	r6,r19
10005220:	900f883a 	mov	r7,r18
10005224:	000ac580 	call	1000ac58 <__eqdf2>
10005228:	103d7a26 	beq	r2,zero,10004814 <__alt_data_end+0xf8004814>
1000522c:	d8800617 	ldw	r2,24(sp)
10005230:	10bfffc4 	addi	r2,r2,-1
10005234:	d8800615 	stw	r2,24(sp)
10005238:	003d7606 	br	10004814 <__alt_data_end+0xf8004814>
1000523c:	dcc00a17 	ldw	r19,40(sp)
10005240:	dc800817 	ldw	r18,32(sp)
10005244:	002b883a 	mov	r21,zero
10005248:	003f4906 	br	10004f70 <__alt_data_end+0xf8004f70>
1000524c:	00800704 	movi	r2,28
10005250:	d8c00817 	ldw	r3,32(sp)
10005254:	d9000717 	ldw	r4,28(sp)
10005258:	90a5883a 	add	r18,r18,r2
1000525c:	1887883a 	add	r3,r3,r2
10005260:	2089883a 	add	r4,r4,r2
10005264:	d8c00815 	stw	r3,32(sp)
10005268:	d9000715 	stw	r4,28(sp)
1000526c:	003f8406 	br	10005080 <__alt_data_end+0xf8005080>
10005270:	d9c00317 	ldw	r7,12(sp)
10005274:	013efb84 	movi	r4,-1042
10005278:	2509c83a 	sub	r4,r4,r20
1000527c:	3908983a 	sll	r4,r7,r4
10005280:	003d3006 	br	10004744 <__alt_data_end+0xf8004744>
10005284:	d8000d15 	stw	zero,52(sp)
10005288:	003d7306 	br	10004858 <__alt_data_end+0xf8004858>
1000528c:	0480050e 	bge	zero,r18,100052a4 <_dtoa_r+0xd04>
10005290:	a80b883a 	mov	r5,r21
10005294:	8009883a 	mov	r4,r16
10005298:	900d883a 	mov	r6,r18
1000529c:	00081a80 	call	100081a8 <__lshift>
100052a0:	102b883a 	mov	r21,r2
100052a4:	8801611e 	bne	r17,zero,1000582c <_dtoa_r+0x128c>
100052a8:	a827883a 	mov	r19,r21
100052ac:	d8c00317 	ldw	r3,12(sp)
100052b0:	d9000917 	ldw	r4,36(sp)
100052b4:	b8bfffc4 	addi	r2,r23,-1
100052b8:	18c0004c 	andi	r3,r3,1
100052bc:	1105883a 	add	r2,r2,r4
100052c0:	b825883a 	mov	r18,r23
100052c4:	d8800515 	stw	r2,20(sp)
100052c8:	a823883a 	mov	r17,r21
100052cc:	d8c00315 	stw	r3,12(sp)
100052d0:	ddc00715 	stw	r23,28(sp)
100052d4:	e009883a 	mov	r4,fp
100052d8:	a00b883a 	mov	r5,r20
100052dc:	00043640 	call	10004364 <quorem>
100052e0:	e009883a 	mov	r4,fp
100052e4:	880b883a 	mov	r5,r17
100052e8:	102d883a 	mov	r22,r2
100052ec:	00083040 	call	10008304 <__mcmp>
100052f0:	980d883a 	mov	r6,r19
100052f4:	8009883a 	mov	r4,r16
100052f8:	a00b883a 	mov	r5,r20
100052fc:	102b883a 	mov	r21,r2
10005300:	000835c0 	call	1000835c <__mdiff>
10005304:	100d883a 	mov	r6,r2
10005308:	10800317 	ldw	r2,12(r2)
1000530c:	b5c00c04 	addi	r23,r22,48
10005310:	10008c26 	beq	r2,zero,10005544 <_dtoa_r+0xfa4>
10005314:	8009883a 	mov	r4,r16
10005318:	300b883a 	mov	r5,r6
1000531c:	0007a600 	call	10007a60 <_Bfree>
10005320:	00800044 	movi	r2,1
10005324:	a8007116 	blt	r21,zero,100054ec <_dtoa_r+0xf4c>
10005328:	a800041e 	bne	r21,zero,1000533c <_dtoa_r+0xd9c>
1000532c:	d9c00417 	ldw	r7,16(sp)
10005330:	3800021e 	bne	r7,zero,1000533c <_dtoa_r+0xd9c>
10005334:	d8c00317 	ldw	r3,12(sp)
10005338:	18006c26 	beq	r3,zero,100054ec <_dtoa_r+0xf4c>
1000533c:	00814c16 	blt	zero,r2,10005870 <_dtoa_r+0x12d0>
10005340:	d8c00517 	ldw	r3,20(sp)
10005344:	95400044 	addi	r21,r18,1
10005348:	95c00005 	stb	r23,0(r18)
1000534c:	a82d883a 	mov	r22,r21
10005350:	90c14d26 	beq	r18,r3,10005888 <_dtoa_r+0x12e8>
10005354:	e00b883a 	mov	r5,fp
10005358:	8009883a 	mov	r4,r16
1000535c:	01800284 	movi	r6,10
10005360:	000f883a 	mov	r7,zero
10005364:	0007a880 	call	10007a88 <__multadd>
10005368:	1039883a 	mov	fp,r2
1000536c:	8cc08b26 	beq	r17,r19,1000559c <_dtoa_r+0xffc>
10005370:	880b883a 	mov	r5,r17
10005374:	01800284 	movi	r6,10
10005378:	000f883a 	mov	r7,zero
1000537c:	8009883a 	mov	r4,r16
10005380:	0007a880 	call	10007a88 <__multadd>
10005384:	980b883a 	mov	r5,r19
10005388:	8009883a 	mov	r4,r16
1000538c:	01800284 	movi	r6,10
10005390:	000f883a 	mov	r7,zero
10005394:	1023883a 	mov	r17,r2
10005398:	0007a880 	call	10007a88 <__multadd>
1000539c:	1027883a 	mov	r19,r2
100053a0:	a825883a 	mov	r18,r21
100053a4:	003fcb06 	br	100052d4 <__alt_data_end+0xf80052d4>
100053a8:	d9c00417 	ldw	r7,16(sp)
100053ac:	00800104 	movi	r2,4
100053b0:	3880e426 	beq	r7,r2,10005744 <_dtoa_r+0x11a4>
100053b4:	00800144 	movi	r2,5
100053b8:	38be3c1e 	bne	r7,r2,10004cac <__alt_data_end+0xf8004cac>
100053bc:	00c00044 	movi	r3,1
100053c0:	d8c00c15 	stw	r3,48(sp)
100053c4:	d9c02117 	ldw	r7,132(sp)
100053c8:	d8800617 	ldw	r2,24(sp)
100053cc:	388f883a 	add	r7,r7,r2
100053d0:	3c800044 	addi	r18,r7,1
100053d4:	d9c00e15 	stw	r7,56(sp)
100053d8:	dc800915 	stw	r18,36(sp)
100053dc:	04bd3e16 	blt	zero,r18,100048d8 <__alt_data_end+0xf80048d8>
100053e0:	80001115 	stw	zero,68(r16)
100053e4:	000b883a 	mov	r5,zero
100053e8:	003d4606 	br	10004904 <__alt_data_end+0xf8004904>
100053ec:	d8c00317 	ldw	r3,12(sp)
100053f0:	183f0e1e 	bne	r3,zero,1000502c <__alt_data_end+0xf800502c>
100053f4:	00c00434 	movhi	r3,16
100053f8:	18ffffc4 	addi	r3,r3,-1
100053fc:	88c6703a 	and	r3,r17,r3
10005400:	183f0a1e 	bne	r3,zero,1000502c <__alt_data_end+0xf800502c>
10005404:	8c5ffc2c 	andhi	r17,r17,32752
10005408:	883f0826 	beq	r17,zero,1000502c <__alt_data_end+0xf800502c>
1000540c:	d9000817 	ldw	r4,32(sp)
10005410:	d9c00717 	ldw	r7,28(sp)
10005414:	1023883a 	mov	r17,r2
10005418:	2089883a 	add	r4,r4,r2
1000541c:	388f883a 	add	r7,r7,r2
10005420:	d9000815 	stw	r4,32(sp)
10005424:	d9c00715 	stw	r7,28(sp)
10005428:	003f0106 	br	10005030 <__alt_data_end+0xf8005030>
1000542c:	9005883a 	mov	r2,r18
10005430:	003ed306 	br	10004f80 <__alt_data_end+0xf8004f80>
10005434:	d8800917 	ldw	r2,36(sp)
10005438:	00be3516 	blt	zero,r2,10004d10 <__alt_data_end+0xf8004d10>
1000543c:	1000b61e 	bne	r2,zero,10005718 <_dtoa_r+0x1178>
10005440:	9009883a 	mov	r4,r18
10005444:	980b883a 	mov	r5,r19
10005448:	000d883a 	mov	r6,zero
1000544c:	01d00534 	movhi	r7,16404
10005450:	000a7c00 	call	1000a7c0 <__muldf3>
10005454:	d9800317 	ldw	r6,12(sp)
10005458:	1009883a 	mov	r4,r2
1000545c:	180b883a 	mov	r5,r3
10005460:	880f883a 	mov	r7,r17
10005464:	000ad740 	call	1000ad74 <__gedf2>
10005468:	0029883a 	mov	r20,zero
1000546c:	002b883a 	mov	r21,zero
10005470:	10007e16 	blt	r2,zero,1000566c <_dtoa_r+0x10cc>
10005474:	d8802117 	ldw	r2,132(sp)
10005478:	b82d883a 	mov	r22,r23
1000547c:	0084303a 	nor	r2,zero,r2
10005480:	d8800615 	stw	r2,24(sp)
10005484:	8009883a 	mov	r4,r16
10005488:	a00b883a 	mov	r5,r20
1000548c:	0007a600 	call	10007a60 <_Bfree>
10005490:	a83f4b1e 	bne	r21,zero,100051c0 <__alt_data_end+0xf80051c0>
10005494:	003de306 	br	10004c24 <__alt_data_end+0xf8004c24>
10005498:	e00b883a 	mov	r5,fp
1000549c:	8009883a 	mov	r4,r16
100054a0:	000807c0 	call	1000807c <__pow5mult>
100054a4:	1039883a 	mov	fp,r2
100054a8:	003ed206 	br	10004ff4 <__alt_data_end+0xf8004ff4>
100054ac:	1000021e 	bne	r2,zero,100054b8 <_dtoa_r+0xf18>
100054b0:	18c0004c 	andi	r3,r3,1
100054b4:	183f271e 	bne	r3,zero,10005154 <__alt_data_end+0xf8005154>
100054b8:	01000c04 	movi	r4,48
100054bc:	00000106 	br	100054c4 <_dtoa_r+0xf24>
100054c0:	102d883a 	mov	r22,r2
100054c4:	b0bfffc4 	addi	r2,r22,-1
100054c8:	10c00007 	ldb	r3,0(r2)
100054cc:	193ffc26 	beq	r3,r4,100054c0 <__alt_data_end+0xf80054c0>
100054d0:	003f3206 	br	1000519c <__alt_data_end+0xf800519c>
100054d4:	d8c00f17 	ldw	r3,60(sp)
100054d8:	18015026 	beq	r3,zero,10005a1c <_dtoa_r+0x147c>
100054dc:	10810cc4 	addi	r2,r2,1075
100054e0:	dcc00a17 	ldw	r19,40(sp)
100054e4:	dc800817 	ldw	r18,32(sp)
100054e8:	003e9706 	br	10004f48 <__alt_data_end+0xf8004f48>
100054ec:	b807883a 	mov	r3,r23
100054f0:	182b883a 	mov	r21,r3
100054f4:	ddc00717 	ldw	r23,28(sp)
100054f8:	00800e0e 	bge	zero,r2,10005534 <_dtoa_r+0xf94>
100054fc:	e00b883a 	mov	r5,fp
10005500:	01800044 	movi	r6,1
10005504:	8009883a 	mov	r4,r16
10005508:	d8c01515 	stw	r3,84(sp)
1000550c:	00081a80 	call	100081a8 <__lshift>
10005510:	1009883a 	mov	r4,r2
10005514:	a00b883a 	mov	r5,r20
10005518:	1039883a 	mov	fp,r2
1000551c:	00083040 	call	10008304 <__mcmp>
10005520:	d8c01517 	ldw	r3,84(sp)
10005524:	0081880e 	bge	zero,r2,10005b48 <_dtoa_r+0x15a8>
10005528:	00800e44 	movi	r2,57
1000552c:	b0c00c44 	addi	r3,r22,49
10005530:	a8816326 	beq	r21,r2,10005ac0 <_dtoa_r+0x1520>
10005534:	90c00005 	stb	r3,0(r18)
10005538:	95800044 	addi	r22,r18,1
1000553c:	982b883a 	mov	r21,r19
10005540:	003f1606 	br	1000519c <__alt_data_end+0xf800519c>
10005544:	300b883a 	mov	r5,r6
10005548:	e009883a 	mov	r4,fp
1000554c:	d9801515 	stw	r6,84(sp)
10005550:	00083040 	call	10008304 <__mcmp>
10005554:	d9801517 	ldw	r6,84(sp)
10005558:	8009883a 	mov	r4,r16
1000555c:	d8801515 	stw	r2,84(sp)
10005560:	300b883a 	mov	r5,r6
10005564:	0007a600 	call	10007a60 <_Bfree>
10005568:	d8801517 	ldw	r2,84(sp)
1000556c:	103f6d1e 	bne	r2,zero,10005324 <__alt_data_end+0xf8005324>
10005570:	d9c00417 	ldw	r7,16(sp)
10005574:	383f6b1e 	bne	r7,zero,10005324 <__alt_data_end+0xf8005324>
10005578:	d8c00317 	ldw	r3,12(sp)
1000557c:	183f691e 	bne	r3,zero,10005324 <__alt_data_end+0xf8005324>
10005580:	b807883a 	mov	r3,r23
10005584:	00800e44 	movi	r2,57
10005588:	ddc00717 	ldw	r23,28(sp)
1000558c:	18814c26 	beq	r3,r2,10005ac0 <_dtoa_r+0x1520>
10005590:	057fe80e 	bge	zero,r21,10005534 <__alt_data_end+0xf8005534>
10005594:	b0c00c44 	addi	r3,r22,49
10005598:	003fe606 	br	10005534 <__alt_data_end+0xf8005534>
1000559c:	880b883a 	mov	r5,r17
100055a0:	8009883a 	mov	r4,r16
100055a4:	01800284 	movi	r6,10
100055a8:	000f883a 	mov	r7,zero
100055ac:	0007a880 	call	10007a88 <__multadd>
100055b0:	1023883a 	mov	r17,r2
100055b4:	1027883a 	mov	r19,r2
100055b8:	a825883a 	mov	r18,r21
100055bc:	003f4506 	br	100052d4 <__alt_data_end+0xf80052d4>
100055c0:	e009883a 	mov	r4,fp
100055c4:	a00b883a 	mov	r5,r20
100055c8:	00083040 	call	10008304 <__mcmp>
100055cc:	103ebc0e 	bge	r2,zero,100050c0 <__alt_data_end+0xf80050c0>
100055d0:	e00b883a 	mov	r5,fp
100055d4:	8009883a 	mov	r4,r16
100055d8:	01800284 	movi	r6,10
100055dc:	000f883a 	mov	r7,zero
100055e0:	0007a880 	call	10007a88 <__multadd>
100055e4:	1039883a 	mov	fp,r2
100055e8:	d8800617 	ldw	r2,24(sp)
100055ec:	d8c00c17 	ldw	r3,48(sp)
100055f0:	10bfffc4 	addi	r2,r2,-1
100055f4:	d8800615 	stw	r2,24(sp)
100055f8:	1801571e 	bne	r3,zero,10005b58 <_dtoa_r+0x15b8>
100055fc:	d9c00e17 	ldw	r7,56(sp)
10005600:	d9c00915 	stw	r7,36(sp)
10005604:	003eae06 	br	100050c0 <__alt_data_end+0xf80050c0>
10005608:	a0800417 	ldw	r2,16(r20)
1000560c:	10800104 	addi	r2,r2,4
10005610:	1085883a 	add	r2,r2,r2
10005614:	1085883a 	add	r2,r2,r2
10005618:	a085883a 	add	r2,r20,r2
1000561c:	11000017 	ldw	r4,0(r2)
10005620:	0007cd00 	call	10007cd0 <__hi0bits>
10005624:	00c00804 	movi	r3,32
10005628:	1885c83a 	sub	r2,r3,r2
1000562c:	003e8306 	br	1000503c <__alt_data_end+0xf800503c>
10005630:	d9c00417 	ldw	r7,16(sp)
10005634:	00800084 	movi	r2,2
10005638:	11fea30e 	bge	r2,r7,100050c8 <__alt_data_end+0xf80050c8>
1000563c:	d8800917 	ldw	r2,36(sp)
10005640:	103f8c1e 	bne	r2,zero,10005474 <__alt_data_end+0xf8005474>
10005644:	a00b883a 	mov	r5,r20
10005648:	8009883a 	mov	r4,r16
1000564c:	01800144 	movi	r6,5
10005650:	000f883a 	mov	r7,zero
10005654:	0007a880 	call	10007a88 <__multadd>
10005658:	e009883a 	mov	r4,fp
1000565c:	100b883a 	mov	r5,r2
10005660:	1029883a 	mov	r20,r2
10005664:	00083040 	call	10008304 <__mcmp>
10005668:	00bf820e 	bge	zero,r2,10005474 <__alt_data_end+0xf8005474>
1000566c:	00800c44 	movi	r2,49
10005670:	b8800005 	stb	r2,0(r23)
10005674:	d8800617 	ldw	r2,24(sp)
10005678:	bd800044 	addi	r22,r23,1
1000567c:	10800044 	addi	r2,r2,1
10005680:	d8800615 	stw	r2,24(sp)
10005684:	003f7f06 	br	10005484 <__alt_data_end+0xf8005484>
10005688:	dc000417 	ldw	r16,16(sp)
1000568c:	003d6506 	br	10004c24 <__alt_data_end+0xf8004c24>
10005690:	9009883a 	mov	r4,r18
10005694:	000ae340 	call	1000ae34 <__floatsidf>
10005698:	1009883a 	mov	r4,r2
1000569c:	180b883a 	mov	r5,r3
100056a0:	980d883a 	mov	r6,r19
100056a4:	a00f883a 	mov	r7,r20
100056a8:	000a7c00 	call	1000a7c0 <__muldf3>
100056ac:	1009883a 	mov	r4,r2
100056b0:	180b883a 	mov	r5,r3
100056b4:	000d883a 	mov	r6,zero
100056b8:	01d00734 	movhi	r7,16412
100056bc:	000a70c0 	call	1000a70c <__adddf3>
100056c0:	057f3034 	movhi	r21,64704
100056c4:	1025883a 	mov	r18,r2
100056c8:	1d6b883a 	add	r21,r3,r21
100056cc:	9809883a 	mov	r4,r19
100056d0:	a00b883a 	mov	r5,r20
100056d4:	000d883a 	mov	r6,zero
100056d8:	01d00534 	movhi	r7,16404
100056dc:	000a7600 	call	1000a760 <__subdf3>
100056e0:	1009883a 	mov	r4,r2
100056e4:	180b883a 	mov	r5,r3
100056e8:	900d883a 	mov	r6,r18
100056ec:	a80f883a 	mov	r7,r21
100056f0:	1027883a 	mov	r19,r2
100056f4:	1829883a 	mov	r20,r3
100056f8:	000ad100 	call	1000ad10 <__gtdf2>
100056fc:	00806616 	blt	zero,r2,10005898 <_dtoa_r+0x12f8>
10005700:	a9e0003c 	xorhi	r7,r21,32768
10005704:	9809883a 	mov	r4,r19
10005708:	a00b883a 	mov	r5,r20
1000570c:	900d883a 	mov	r6,r18
10005710:	000add80 	call	1000add8 <__ltdf2>
10005714:	103d710e 	bge	r2,zero,10004cdc <__alt_data_end+0xf8004cdc>
10005718:	0029883a 	mov	r20,zero
1000571c:	002b883a 	mov	r21,zero
10005720:	003f5406 	br	10005474 <__alt_data_end+0xf8005474>
10005724:	d9800a17 	ldw	r6,40(sp)
10005728:	e00b883a 	mov	r5,fp
1000572c:	8009883a 	mov	r4,r16
10005730:	000807c0 	call	1000807c <__pow5mult>
10005734:	1039883a 	mov	fp,r2
10005738:	003e2e06 	br	10004ff4 <__alt_data_end+0xf8004ff4>
1000573c:	d8000c15 	stw	zero,48(sp)
10005740:	003f2006 	br	100053c4 <__alt_data_end+0xf80053c4>
10005744:	00800044 	movi	r2,1
10005748:	d8800c15 	stw	r2,48(sp)
1000574c:	003c5d06 	br	100048c4 <__alt_data_end+0xf80048c4>
10005750:	d8c00a17 	ldw	r3,40(sp)
10005754:	d9000b17 	ldw	r4,44(sp)
10005758:	dcc00a15 	stw	r19,40(sp)
1000575c:	98c5c83a 	sub	r2,r19,r3
10005760:	2089883a 	add	r4,r4,r2
10005764:	d9000b15 	stw	r4,44(sp)
10005768:	0027883a 	mov	r19,zero
1000576c:	003df206 	br	10004f38 <__alt_data_end+0xf8004f38>
10005770:	d9000317 	ldw	r4,12(sp)
10005774:	8829883a 	mov	r20,r17
10005778:	04800084 	movi	r18,2
1000577c:	d9001015 	stw	r4,64(sp)
10005780:	003c8106 	br	10004988 <__alt_data_end+0xf8004988>
10005784:	04800044 	movi	r18,1
10005788:	dc800e15 	stw	r18,56(sp)
1000578c:	dc800915 	stw	r18,36(sp)
10005790:	dc802115 	stw	r18,132(sp)
10005794:	003f1206 	br	100053e0 <__alt_data_end+0xf80053e0>
10005798:	d8800617 	ldw	r2,24(sp)
1000579c:	00abc83a 	sub	r21,zero,r2
100057a0:	a800a426 	beq	r21,zero,10005a34 <_dtoa_r+0x1494>
100057a4:	a88003cc 	andi	r2,r21,15
100057a8:	100490fa 	slli	r2,r2,3
100057ac:	00c40074 	movhi	r3,4097
100057b0:	18fa4c04 	addi	r3,r3,-5840
100057b4:	d9000317 	ldw	r4,12(sp)
100057b8:	1885883a 	add	r2,r3,r2
100057bc:	11800017 	ldw	r6,0(r2)
100057c0:	11c00117 	ldw	r7,4(r2)
100057c4:	a82bd13a 	srai	r21,r21,4
100057c8:	880b883a 	mov	r5,r17
100057cc:	000a7c00 	call	1000a7c0 <__muldf3>
100057d0:	1027883a 	mov	r19,r2
100057d4:	1829883a 	mov	r20,r3
100057d8:	a800e826 	beq	r21,zero,10005b7c <_dtoa_r+0x15dc>
100057dc:	05840074 	movhi	r22,4097
100057e0:	b5ba4204 	addi	r22,r22,-5880
100057e4:	04800084 	movi	r18,2
100057e8:	a980004c 	andi	r6,r21,1
100057ec:	1009883a 	mov	r4,r2
100057f0:	a82bd07a 	srai	r21,r21,1
100057f4:	180b883a 	mov	r5,r3
100057f8:	30000426 	beq	r6,zero,1000580c <_dtoa_r+0x126c>
100057fc:	b1800017 	ldw	r6,0(r22)
10005800:	b1c00117 	ldw	r7,4(r22)
10005804:	94800044 	addi	r18,r18,1
10005808:	000a7c00 	call	1000a7c0 <__muldf3>
1000580c:	b5800204 	addi	r22,r22,8
10005810:	a83ff51e 	bne	r21,zero,100057e8 <__alt_data_end+0xf80057e8>
10005814:	1027883a 	mov	r19,r2
10005818:	1829883a 	mov	r20,r3
1000581c:	003c7306 	br	100049ec <__alt_data_end+0xf80049ec>
10005820:	21000044 	addi	r4,r4,1
10005824:	11000005 	stb	r4,0(r2)
10005828:	003e5c06 	br	1000519c <__alt_data_end+0xf800519c>
1000582c:	a9400117 	ldw	r5,4(r21)
10005830:	8009883a 	mov	r4,r16
10005834:	00079b80 	call	100079b8 <_Balloc>
10005838:	a9800417 	ldw	r6,16(r21)
1000583c:	11000304 	addi	r4,r2,12
10005840:	a9400304 	addi	r5,r21,12
10005844:	31800084 	addi	r6,r6,2
10005848:	318d883a 	add	r6,r6,r6
1000584c:	318d883a 	add	r6,r6,r6
10005850:	1023883a 	mov	r17,r2
10005854:	00076100 	call	10007610 <memcpy>
10005858:	8009883a 	mov	r4,r16
1000585c:	880b883a 	mov	r5,r17
10005860:	01800044 	movi	r6,1
10005864:	00081a80 	call	100081a8 <__lshift>
10005868:	1027883a 	mov	r19,r2
1000586c:	003e8f06 	br	100052ac <__alt_data_end+0xf80052ac>
10005870:	b807883a 	mov	r3,r23
10005874:	00800e44 	movi	r2,57
10005878:	ddc00717 	ldw	r23,28(sp)
1000587c:	18809026 	beq	r3,r2,10005ac0 <_dtoa_r+0x1520>
10005880:	18c00044 	addi	r3,r3,1
10005884:	003f2b06 	br	10005534 <__alt_data_end+0xf8005534>
10005888:	b807883a 	mov	r3,r23
1000588c:	982b883a 	mov	r21,r19
10005890:	ddc00717 	ldw	r23,28(sp)
10005894:	003e2406 	br	10005128 <__alt_data_end+0xf8005128>
10005898:	0029883a 	mov	r20,zero
1000589c:	002b883a 	mov	r21,zero
100058a0:	003f7206 	br	1000566c <__alt_data_end+0xf800566c>
100058a4:	593fffc4 	addi	r4,r11,-1
100058a8:	200490fa 	slli	r2,r4,3
100058ac:	00c40074 	movhi	r3,4097
100058b0:	18fa4c04 	addi	r3,r3,-5840
100058b4:	d9001015 	stw	r4,64(sp)
100058b8:	1885883a 	add	r2,r3,r2
100058bc:	11000017 	ldw	r4,0(r2)
100058c0:	11400117 	ldw	r5,4(r2)
100058c4:	900d883a 	mov	r6,r18
100058c8:	a80f883a 	mov	r7,r21
100058cc:	dac01615 	stw	r11,88(sp)
100058d0:	000a7c00 	call	1000a7c0 <__muldf3>
100058d4:	a00b883a 	mov	r5,r20
100058d8:	9809883a 	mov	r4,r19
100058dc:	d8c01215 	stw	r3,72(sp)
100058e0:	d8801115 	stw	r2,68(sp)
100058e4:	000af080 	call	1000af08 <__fixdfsi>
100058e8:	1009883a 	mov	r4,r2
100058ec:	1025883a 	mov	r18,r2
100058f0:	000ae340 	call	1000ae34 <__floatsidf>
100058f4:	9809883a 	mov	r4,r19
100058f8:	a00b883a 	mov	r5,r20
100058fc:	100d883a 	mov	r6,r2
10005900:	180f883a 	mov	r7,r3
10005904:	94800c04 	addi	r18,r18,48
10005908:	000a7600 	call	1000a760 <__subdf3>
1000590c:	bc800005 	stb	r18,0(r23)
10005910:	dac01617 	ldw	r11,88(sp)
10005914:	102b883a 	mov	r21,r2
10005918:	00800044 	movi	r2,1
1000591c:	bd800044 	addi	r22,r23,1
10005920:	1815883a 	mov	r10,r3
10005924:	58802226 	beq	r11,r2,100059b0 <_dtoa_r+0x1410>
10005928:	bad7883a 	add	r11,r23,r11
1000592c:	dc001415 	stw	r16,80(sp)
10005930:	a805883a 	mov	r2,r21
10005934:	b027883a 	mov	r19,r22
10005938:	5821883a 	mov	r16,r11
1000593c:	882b883a 	mov	r21,r17
10005940:	000d883a 	mov	r6,zero
10005944:	01d00934 	movhi	r7,16420
10005948:	1009883a 	mov	r4,r2
1000594c:	180b883a 	mov	r5,r3
10005950:	000a7c00 	call	1000a7c0 <__muldf3>
10005954:	180b883a 	mov	r5,r3
10005958:	1009883a 	mov	r4,r2
1000595c:	1829883a 	mov	r20,r3
10005960:	1023883a 	mov	r17,r2
10005964:	000af080 	call	1000af08 <__fixdfsi>
10005968:	1009883a 	mov	r4,r2
1000596c:	1025883a 	mov	r18,r2
10005970:	000ae340 	call	1000ae34 <__floatsidf>
10005974:	8809883a 	mov	r4,r17
10005978:	a00b883a 	mov	r5,r20
1000597c:	100d883a 	mov	r6,r2
10005980:	180f883a 	mov	r7,r3
10005984:	94800c04 	addi	r18,r18,48
10005988:	000a7600 	call	1000a760 <__subdf3>
1000598c:	9cc00044 	addi	r19,r19,1
10005990:	9cbfffc5 	stb	r18,-1(r19)
10005994:	9c3fea1e 	bne	r19,r16,10005940 <__alt_data_end+0xf8005940>
10005998:	1815883a 	mov	r10,r3
1000599c:	d8c01017 	ldw	r3,64(sp)
100059a0:	dc001417 	ldw	r16,80(sp)
100059a4:	a823883a 	mov	r17,r21
100059a8:	b0ed883a 	add	r22,r22,r3
100059ac:	102b883a 	mov	r21,r2
100059b0:	d9001117 	ldw	r4,68(sp)
100059b4:	d9401217 	ldw	r5,72(sp)
100059b8:	000d883a 	mov	r6,zero
100059bc:	01cff834 	movhi	r7,16352
100059c0:	da801515 	stw	r10,84(sp)
100059c4:	000a70c0 	call	1000a70c <__adddf3>
100059c8:	da801517 	ldw	r10,84(sp)
100059cc:	1009883a 	mov	r4,r2
100059d0:	180b883a 	mov	r5,r3
100059d4:	500f883a 	mov	r7,r10
100059d8:	a80d883a 	mov	r6,r21
100059dc:	000add80 	call	1000add8 <__ltdf2>
100059e0:	da801517 	ldw	r10,84(sp)
100059e4:	10003b0e 	bge	r2,zero,10005ad4 <_dtoa_r+0x1534>
100059e8:	d9c01317 	ldw	r7,76(sp)
100059ec:	b53fffc3 	ldbu	r20,-1(r22)
100059f0:	d9c00615 	stw	r7,24(sp)
100059f4:	003d3106 	br	10004ebc <__alt_data_end+0xf8004ebc>
100059f8:	d8800817 	ldw	r2,32(sp)
100059fc:	11e5c83a 	sub	r18,r2,r7
10005a00:	0005883a 	mov	r2,zero
10005a04:	003d5006 	br	10004f48 <__alt_data_end+0xf8004f48>
10005a08:	05800044 	movi	r22,1
10005a0c:	003dc406 	br	10005120 <__alt_data_end+0xf8005120>
10005a10:	a5000044 	addi	r20,r20,1
10005a14:	15000005 	stb	r20,0(r2)
10005a18:	003c8206 	br	10004c24 <__alt_data_end+0xf8004c24>
10005a1c:	d8800217 	ldw	r2,8(sp)
10005a20:	00c00d84 	movi	r3,54
10005a24:	dcc00a17 	ldw	r19,40(sp)
10005a28:	1885c83a 	sub	r2,r3,r2
10005a2c:	dc800817 	ldw	r18,32(sp)
10005a30:	003d4506 	br	10004f48 <__alt_data_end+0xf8004f48>
10005a34:	dcc00317 	ldw	r19,12(sp)
10005a38:	8829883a 	mov	r20,r17
10005a3c:	04800084 	movi	r18,2
10005a40:	003bea06 	br	100049ec <__alt_data_end+0xf80049ec>
10005a44:	d9000917 	ldw	r4,36(sp)
10005a48:	203f1126 	beq	r4,zero,10005690 <__alt_data_end+0xf8005690>
10005a4c:	d9c00e17 	ldw	r7,56(sp)
10005a50:	01fca20e 	bge	zero,r7,10004cdc <__alt_data_end+0xf8004cdc>
10005a54:	a00b883a 	mov	r5,r20
10005a58:	9809883a 	mov	r4,r19
10005a5c:	000d883a 	mov	r6,zero
10005a60:	01d00934 	movhi	r7,16420
10005a64:	000a7c00 	call	1000a7c0 <__muldf3>
10005a68:	91000044 	addi	r4,r18,1
10005a6c:	1027883a 	mov	r19,r2
10005a70:	1829883a 	mov	r20,r3
10005a74:	000ae340 	call	1000ae34 <__floatsidf>
10005a78:	9809883a 	mov	r4,r19
10005a7c:	a00b883a 	mov	r5,r20
10005a80:	100d883a 	mov	r6,r2
10005a84:	180f883a 	mov	r7,r3
10005a88:	000a7c00 	call	1000a7c0 <__muldf3>
10005a8c:	1009883a 	mov	r4,r2
10005a90:	180b883a 	mov	r5,r3
10005a94:	000d883a 	mov	r6,zero
10005a98:	01d00734 	movhi	r7,16412
10005a9c:	000a70c0 	call	1000a70c <__adddf3>
10005aa0:	1025883a 	mov	r18,r2
10005aa4:	d8800617 	ldw	r2,24(sp)
10005aa8:	057f3034 	movhi	r21,64704
10005aac:	1d6b883a 	add	r21,r3,r21
10005ab0:	10bfffc4 	addi	r2,r2,-1
10005ab4:	d8801315 	stw	r2,76(sp)
10005ab8:	dac00e17 	ldw	r11,56(sp)
10005abc:	003be706 	br	10004a5c <__alt_data_end+0xf8004a5c>
10005ac0:	01000e44 	movi	r4,57
10005ac4:	91000005 	stb	r4,0(r18)
10005ac8:	95800044 	addi	r22,r18,1
10005acc:	982b883a 	mov	r21,r19
10005ad0:	003da106 	br	10005158 <__alt_data_end+0xf8005158>
10005ad4:	d9801117 	ldw	r6,68(sp)
10005ad8:	d9c01217 	ldw	r7,72(sp)
10005adc:	0009883a 	mov	r4,zero
10005ae0:	014ff834 	movhi	r5,16352
10005ae4:	da801515 	stw	r10,84(sp)
10005ae8:	000a7600 	call	1000a760 <__subdf3>
10005aec:	da801517 	ldw	r10,84(sp)
10005af0:	1009883a 	mov	r4,r2
10005af4:	180b883a 	mov	r5,r3
10005af8:	a80d883a 	mov	r6,r21
10005afc:	500f883a 	mov	r7,r10
10005b00:	000ad100 	call	1000ad10 <__gtdf2>
10005b04:	00bc750e 	bge	zero,r2,10004cdc <__alt_data_end+0xf8004cdc>
10005b08:	01000c04 	movi	r4,48
10005b0c:	00000106 	br	10005b14 <_dtoa_r+0x1574>
10005b10:	102d883a 	mov	r22,r2
10005b14:	b0bfffc4 	addi	r2,r22,-1
10005b18:	10c00007 	ldb	r3,0(r2)
10005b1c:	193ffc26 	beq	r3,r4,10005b10 <__alt_data_end+0xf8005b10>
10005b20:	d8801317 	ldw	r2,76(sp)
10005b24:	d8800615 	stw	r2,24(sp)
10005b28:	003c3e06 	br	10004c24 <__alt_data_end+0xf8004c24>
10005b2c:	d9001317 	ldw	r4,76(sp)
10005b30:	df001117 	ldw	fp,68(sp)
10005b34:	d9000615 	stw	r4,24(sp)
10005b38:	003ce006 	br	10004ebc <__alt_data_end+0xf8004ebc>
10005b3c:	df001117 	ldw	fp,68(sp)
10005b40:	dc401217 	ldw	r17,72(sp)
10005b44:	003c6506 	br	10004cdc <__alt_data_end+0xf8004cdc>
10005b48:	103e7a1e 	bne	r2,zero,10005534 <__alt_data_end+0xf8005534>
10005b4c:	1880004c 	andi	r2,r3,1
10005b50:	103e7826 	beq	r2,zero,10005534 <__alt_data_end+0xf8005534>
10005b54:	003e7406 	br	10005528 <__alt_data_end+0xf8005528>
10005b58:	8009883a 	mov	r4,r16
10005b5c:	a80b883a 	mov	r5,r21
10005b60:	01800284 	movi	r6,10
10005b64:	000f883a 	mov	r7,zero
10005b68:	0007a880 	call	10007a88 <__multadd>
10005b6c:	d9000e17 	ldw	r4,56(sp)
10005b70:	102b883a 	mov	r21,r2
10005b74:	d9000915 	stw	r4,36(sp)
10005b78:	003d5106 	br	100050c0 <__alt_data_end+0xf80050c0>
10005b7c:	04800084 	movi	r18,2
10005b80:	003b9a06 	br	100049ec <__alt_data_end+0xf80049ec>
10005b84:	d8c01317 	ldw	r3,76(sp)
10005b88:	d8c00615 	stw	r3,24(sp)
10005b8c:	003ccb06 	br	10004ebc <__alt_data_end+0xf8004ebc>
10005b90:	d8c01317 	ldw	r3,76(sp)
10005b94:	d8c00615 	stw	r3,24(sp)
10005b98:	003c2206 	br	10004c24 <__alt_data_end+0xf8004c24>
10005b9c:	20fd3826 	beq	r4,r3,10005080 <__alt_data_end+0xf8005080>
10005ba0:	00c00f04 	movi	r3,60
10005ba4:	1885c83a 	sub	r2,r3,r2
10005ba8:	003da906 	br	10005250 <__alt_data_end+0xf8005250>
10005bac:	000b883a 	mov	r5,zero
10005bb0:	003b5406 	br	10004904 <__alt_data_end+0xf8004904>
10005bb4:	04c00044 	movi	r19,1
10005bb8:	003b3b06 	br	100048a8 <__alt_data_end+0xf80048a8>

10005bbc <_fflush_r>:
10005bbc:	defffb04 	addi	sp,sp,-20
10005bc0:	dcc00315 	stw	r19,12(sp)
10005bc4:	dc400115 	stw	r17,4(sp)
10005bc8:	dfc00415 	stw	ra,16(sp)
10005bcc:	dc800215 	stw	r18,8(sp)
10005bd0:	dc000015 	stw	r16,0(sp)
10005bd4:	2027883a 	mov	r19,r4
10005bd8:	2823883a 	mov	r17,r5
10005bdc:	20000226 	beq	r4,zero,10005be8 <_fflush_r+0x2c>
10005be0:	20800e17 	ldw	r2,56(r4)
10005be4:	10005726 	beq	r2,zero,10005d44 <_fflush_r+0x188>
10005be8:	8880030b 	ldhu	r2,12(r17)
10005bec:	10c0020c 	andi	r3,r2,8
10005bf0:	18ffffcc 	andi	r3,r3,65535
10005bf4:	18e0001c 	xori	r3,r3,32768
10005bf8:	18e00004 	addi	r3,r3,-32768
10005bfc:	1800311e 	bne	r3,zero,10005cc4 <_fflush_r+0x108>
10005c00:	89000117 	ldw	r4,4(r17)
10005c04:	10c20014 	ori	r3,r2,2048
10005c08:	88c0030d 	sth	r3,12(r17)
10005c0c:	180b883a 	mov	r5,r3
10005c10:	0100520e 	bge	zero,r4,10005d5c <_fflush_r+0x1a0>
10005c14:	88c00a17 	ldw	r3,40(r17)
10005c18:	18002226 	beq	r3,zero,10005ca4 <_fflush_r+0xe8>
10005c1c:	1084000c 	andi	r2,r2,4096
10005c20:	10bfffcc 	andi	r2,r2,65535
10005c24:	10a0001c 	xori	r2,r2,32768
10005c28:	10a00004 	addi	r2,r2,-32768
10005c2c:	10004e26 	beq	r2,zero,10005d68 <_fflush_r+0x1ac>
10005c30:	8c001417 	ldw	r16,80(r17)
10005c34:	2940010c 	andi	r5,r5,4
10005c38:	297fffcc 	andi	r5,r5,65535
10005c3c:	2960001c 	xori	r5,r5,32768
10005c40:	29600004 	addi	r5,r5,-32768
10005c44:	28000626 	beq	r5,zero,10005c60 <_fflush_r+0xa4>
10005c48:	89000117 	ldw	r4,4(r17)
10005c4c:	88800c17 	ldw	r2,48(r17)
10005c50:	8121c83a 	sub	r16,r16,r4
10005c54:	10000226 	beq	r2,zero,10005c60 <_fflush_r+0xa4>
10005c58:	88800f17 	ldw	r2,60(r17)
10005c5c:	80a1c83a 	sub	r16,r16,r2
10005c60:	89400717 	ldw	r5,28(r17)
10005c64:	9809883a 	mov	r4,r19
10005c68:	800d883a 	mov	r6,r16
10005c6c:	000f883a 	mov	r7,zero
10005c70:	183ee83a 	callr	r3
10005c74:	8080281e 	bne	r16,r2,10005d18 <_fflush_r+0x15c>
10005c78:	8880030b 	ldhu	r2,12(r17)
10005c7c:	88c00417 	ldw	r3,16(r17)
10005c80:	88000115 	stw	zero,4(r17)
10005c84:	113dffcc 	andi	r4,r2,63487
10005c88:	1084000c 	andi	r2,r2,4096
10005c8c:	10bfffcc 	andi	r2,r2,65535
10005c90:	10a0001c 	xori	r2,r2,32768
10005c94:	8900030d 	sth	r4,12(r17)
10005c98:	88c00015 	stw	r3,0(r17)
10005c9c:	10a00004 	addi	r2,r2,-32768
10005ca0:	10002c1e 	bne	r2,zero,10005d54 <_fflush_r+0x198>
10005ca4:	0005883a 	mov	r2,zero
10005ca8:	dfc00417 	ldw	ra,16(sp)
10005cac:	dcc00317 	ldw	r19,12(sp)
10005cb0:	dc800217 	ldw	r18,8(sp)
10005cb4:	dc400117 	ldw	r17,4(sp)
10005cb8:	dc000017 	ldw	r16,0(sp)
10005cbc:	dec00504 	addi	sp,sp,20
10005cc0:	f800283a 	ret
10005cc4:	8c800417 	ldw	r18,16(r17)
10005cc8:	903ff626 	beq	r18,zero,10005ca4 <__alt_data_end+0xf8005ca4>
10005ccc:	8c000017 	ldw	r16,0(r17)
10005cd0:	108000cc 	andi	r2,r2,3
10005cd4:	8c800015 	stw	r18,0(r17)
10005cd8:	84a1c83a 	sub	r16,r16,r18
10005cdc:	10001b1e 	bne	r2,zero,10005d4c <_fflush_r+0x190>
10005ce0:	88800517 	ldw	r2,20(r17)
10005ce4:	88800215 	stw	r2,8(r17)
10005ce8:	04000316 	blt	zero,r16,10005cf8 <_fflush_r+0x13c>
10005cec:	003fed06 	br	10005ca4 <__alt_data_end+0xf8005ca4>
10005cf0:	90a5883a 	add	r18,r18,r2
10005cf4:	043feb0e 	bge	zero,r16,10005ca4 <__alt_data_end+0xf8005ca4>
10005cf8:	88800917 	ldw	r2,36(r17)
10005cfc:	89400717 	ldw	r5,28(r17)
10005d00:	800f883a 	mov	r7,r16
10005d04:	900d883a 	mov	r6,r18
10005d08:	9809883a 	mov	r4,r19
10005d0c:	103ee83a 	callr	r2
10005d10:	80a1c83a 	sub	r16,r16,r2
10005d14:	00bff616 	blt	zero,r2,10005cf0 <__alt_data_end+0xf8005cf0>
10005d18:	88c0030b 	ldhu	r3,12(r17)
10005d1c:	00bfffc4 	movi	r2,-1
10005d20:	18c01014 	ori	r3,r3,64
10005d24:	88c0030d 	sth	r3,12(r17)
10005d28:	dfc00417 	ldw	ra,16(sp)
10005d2c:	dcc00317 	ldw	r19,12(sp)
10005d30:	dc800217 	ldw	r18,8(sp)
10005d34:	dc400117 	ldw	r17,4(sp)
10005d38:	dc000017 	ldw	r16,0(sp)
10005d3c:	dec00504 	addi	sp,sp,20
10005d40:	f800283a 	ret
10005d44:	0005e780 	call	10005e78 <__sinit>
10005d48:	003fa706 	br	10005be8 <__alt_data_end+0xf8005be8>
10005d4c:	0005883a 	mov	r2,zero
10005d50:	003fe406 	br	10005ce4 <__alt_data_end+0xf8005ce4>
10005d54:	8c001415 	stw	r16,80(r17)
10005d58:	003fd206 	br	10005ca4 <__alt_data_end+0xf8005ca4>
10005d5c:	88c00f17 	ldw	r3,60(r17)
10005d60:	00ffac16 	blt	zero,r3,10005c14 <__alt_data_end+0xf8005c14>
10005d64:	003fcf06 	br	10005ca4 <__alt_data_end+0xf8005ca4>
10005d68:	89400717 	ldw	r5,28(r17)
10005d6c:	9809883a 	mov	r4,r19
10005d70:	000d883a 	mov	r6,zero
10005d74:	01c00044 	movi	r7,1
10005d78:	183ee83a 	callr	r3
10005d7c:	1021883a 	mov	r16,r2
10005d80:	00bfffc4 	movi	r2,-1
10005d84:	80800326 	beq	r16,r2,10005d94 <_fflush_r+0x1d8>
10005d88:	8940030b 	ldhu	r5,12(r17)
10005d8c:	88c00a17 	ldw	r3,40(r17)
10005d90:	003fa806 	br	10005c34 <__alt_data_end+0xf8005c34>
10005d94:	98c00017 	ldw	r3,0(r19)
10005d98:	00800744 	movi	r2,29
10005d9c:	18bfde1e 	bne	r3,r2,10005d18 <__alt_data_end+0xf8005d18>
10005da0:	003fc006 	br	10005ca4 <__alt_data_end+0xf8005ca4>

10005da4 <fflush>:
10005da4:	200b883a 	mov	r5,r4
10005da8:	20000426 	beq	r4,zero,10005dbc <fflush+0x18>
10005dac:	00840074 	movhi	r2,4097
10005db0:	10815b04 	addi	r2,r2,1388
10005db4:	11000017 	ldw	r4,0(r2)
10005db8:	0005bbc1 	jmpi	10005bbc <_fflush_r>
10005dbc:	00840074 	movhi	r2,4097
10005dc0:	10815a04 	addi	r2,r2,1384
10005dc4:	11000017 	ldw	r4,0(r2)
10005dc8:	01440034 	movhi	r5,4096
10005dcc:	2956ef04 	addi	r5,r5,23484
10005dd0:	0006a581 	jmpi	10006a58 <_fwalk_reent>

10005dd4 <__fp_lock>:
10005dd4:	0005883a 	mov	r2,zero
10005dd8:	f800283a 	ret

10005ddc <__fp_unlock>:
10005ddc:	0005883a 	mov	r2,zero
10005de0:	f800283a 	ret

10005de4 <_cleanup_r>:
10005de4:	01440074 	movhi	r5,4097
10005de8:	29656204 	addi	r5,r5,-27256
10005dec:	00069b01 	jmpi	100069b0 <_fwalk>

10005df0 <__sfmoreglue>:
10005df0:	defffc04 	addi	sp,sp,-16
10005df4:	dc800215 	stw	r18,8(sp)
10005df8:	2825883a 	mov	r18,r5
10005dfc:	dc000015 	stw	r16,0(sp)
10005e00:	01401704 	movi	r5,92
10005e04:	2021883a 	mov	r16,r4
10005e08:	9009883a 	mov	r4,r18
10005e0c:	dfc00315 	stw	ra,12(sp)
10005e10:	dc400115 	stw	r17,4(sp)
10005e14:	000b2180 	call	1000b218 <__mulsi3>
10005e18:	8009883a 	mov	r4,r16
10005e1c:	11400304 	addi	r5,r2,12
10005e20:	1023883a 	mov	r17,r2
10005e24:	0006d940 	call	10006d94 <_malloc_r>
10005e28:	1021883a 	mov	r16,r2
10005e2c:	10000726 	beq	r2,zero,10005e4c <__sfmoreglue+0x5c>
10005e30:	11000304 	addi	r4,r2,12
10005e34:	10000015 	stw	zero,0(r2)
10005e38:	14800115 	stw	r18,4(r2)
10005e3c:	11000215 	stw	r4,8(r2)
10005e40:	000b883a 	mov	r5,zero
10005e44:	880d883a 	mov	r6,r17
10005e48:	00078dc0 	call	100078dc <memset>
10005e4c:	8005883a 	mov	r2,r16
10005e50:	dfc00317 	ldw	ra,12(sp)
10005e54:	dc800217 	ldw	r18,8(sp)
10005e58:	dc400117 	ldw	r17,4(sp)
10005e5c:	dc000017 	ldw	r16,0(sp)
10005e60:	dec00404 	addi	sp,sp,16
10005e64:	f800283a 	ret

10005e68 <_cleanup>:
10005e68:	00840074 	movhi	r2,4097
10005e6c:	10815a04 	addi	r2,r2,1384
10005e70:	11000017 	ldw	r4,0(r2)
10005e74:	0005de41 	jmpi	10005de4 <_cleanup_r>

10005e78 <__sinit>:
10005e78:	20800e17 	ldw	r2,56(r4)
10005e7c:	1000401e 	bne	r2,zero,10005f80 <__sinit+0x108>
10005e80:	21400117 	ldw	r5,4(r4)
10005e84:	01840034 	movhi	r6,4096
10005e88:	31977904 	addi	r6,r6,24036
10005e8c:	20c00217 	ldw	r3,8(r4)
10005e90:	21800f15 	stw	r6,60(r4)
10005e94:	2080bb04 	addi	r2,r4,748
10005e98:	02400044 	movi	r9,1
10005e9c:	018000c4 	movi	r6,3
10005ea0:	2180b915 	stw	r6,740(r4)
10005ea4:	2080ba15 	stw	r2,744(r4)
10005ea8:	22400e15 	stw	r9,56(r4)
10005eac:	20800317 	ldw	r2,12(r4)
10005eb0:	2000b815 	stw	zero,736(r4)
10005eb4:	02040074 	movhi	r8,4097
10005eb8:	42243304 	addi	r8,r8,-28468
10005ebc:	01c40074 	movhi	r7,4097
10005ec0:	39e44804 	addi	r7,r7,-28384
10005ec4:	01840074 	movhi	r6,4097
10005ec8:	31a46a04 	addi	r6,r6,-28248
10005ecc:	01040074 	movhi	r4,4097
10005ed0:	21248104 	addi	r4,r4,-28156
10005ed4:	02800104 	movi	r10,4
10005ed8:	28000015 	stw	zero,0(r5)
10005edc:	28000115 	stw	zero,4(r5)
10005ee0:	28000215 	stw	zero,8(r5)
10005ee4:	2a80030d 	sth	r10,12(r5)
10005ee8:	2800038d 	sth	zero,14(r5)
10005eec:	28000415 	stw	zero,16(r5)
10005ef0:	28000515 	stw	zero,20(r5)
10005ef4:	28000615 	stw	zero,24(r5)
10005ef8:	29400715 	stw	r5,28(r5)
10005efc:	2a000815 	stw	r8,32(r5)
10005f00:	29c00915 	stw	r7,36(r5)
10005f04:	29800a15 	stw	r6,40(r5)
10005f08:	29000b15 	stw	r4,44(r5)
10005f0c:	01400284 	movi	r5,10
10005f10:	18000015 	stw	zero,0(r3)
10005f14:	18000115 	stw	zero,4(r3)
10005f18:	18000215 	stw	zero,8(r3)
10005f1c:	1940030d 	sth	r5,12(r3)
10005f20:	1a40038d 	sth	r9,14(r3)
10005f24:	18000415 	stw	zero,16(r3)
10005f28:	18000515 	stw	zero,20(r3)
10005f2c:	18000615 	stw	zero,24(r3)
10005f30:	18c00715 	stw	r3,28(r3)
10005f34:	1a000815 	stw	r8,32(r3)
10005f38:	19c00915 	stw	r7,36(r3)
10005f3c:	19800a15 	stw	r6,40(r3)
10005f40:	19000b15 	stw	r4,44(r3)
10005f44:	00c00484 	movi	r3,18
10005f48:	10c0030d 	sth	r3,12(r2)
10005f4c:	00c00084 	movi	r3,2
10005f50:	10000015 	stw	zero,0(r2)
10005f54:	10000115 	stw	zero,4(r2)
10005f58:	10000215 	stw	zero,8(r2)
10005f5c:	10c0038d 	sth	r3,14(r2)
10005f60:	10000415 	stw	zero,16(r2)
10005f64:	10000515 	stw	zero,20(r2)
10005f68:	10000615 	stw	zero,24(r2)
10005f6c:	10800715 	stw	r2,28(r2)
10005f70:	12000815 	stw	r8,32(r2)
10005f74:	11c00915 	stw	r7,36(r2)
10005f78:	11800a15 	stw	r6,40(r2)
10005f7c:	11000b15 	stw	r4,44(r2)
10005f80:	f800283a 	ret

10005f84 <__sfp>:
10005f84:	defffc04 	addi	sp,sp,-16
10005f88:	00840074 	movhi	r2,4097
10005f8c:	10815a04 	addi	r2,r2,1384
10005f90:	dc400115 	stw	r17,4(sp)
10005f94:	14400017 	ldw	r17,0(r2)
10005f98:	dc800215 	stw	r18,8(sp)
10005f9c:	dfc00315 	stw	ra,12(sp)
10005fa0:	88800e17 	ldw	r2,56(r17)
10005fa4:	dc000015 	stw	r16,0(sp)
10005fa8:	2025883a 	mov	r18,r4
10005fac:	10002826 	beq	r2,zero,10006050 <__sfp+0xcc>
10005fb0:	8c40b804 	addi	r17,r17,736
10005fb4:	043fffc4 	movi	r16,-1
10005fb8:	89400117 	ldw	r5,4(r17)
10005fbc:	88800217 	ldw	r2,8(r17)
10005fc0:	297fffc4 	addi	r5,r5,-1
10005fc4:	28000a16 	blt	r5,zero,10005ff0 <__sfp+0x6c>
10005fc8:	10c0030f 	ldh	r3,12(r2)
10005fcc:	18000c26 	beq	r3,zero,10006000 <__sfp+0x7c>
10005fd0:	10c01a04 	addi	r3,r2,104
10005fd4:	00000206 	br	10005fe0 <__sfp+0x5c>
10005fd8:	19bfe90f 	ldh	r6,-92(r3)
10005fdc:	30000826 	beq	r6,zero,10006000 <__sfp+0x7c>
10005fe0:	297fffc4 	addi	r5,r5,-1
10005fe4:	18bffd04 	addi	r2,r3,-12
10005fe8:	18c01704 	addi	r3,r3,92
10005fec:	2c3ffa1e 	bne	r5,r16,10005fd8 <__alt_data_end+0xf8005fd8>
10005ff0:	88800017 	ldw	r2,0(r17)
10005ff4:	10001926 	beq	r2,zero,1000605c <__sfp+0xd8>
10005ff8:	1023883a 	mov	r17,r2
10005ffc:	003fee06 	br	10005fb8 <__alt_data_end+0xf8005fb8>
10006000:	00ffffc4 	movi	r3,-1
10006004:	10c0038d 	sth	r3,14(r2)
10006008:	00c00044 	movi	r3,1
1000600c:	10c0030d 	sth	r3,12(r2)
10006010:	10000015 	stw	zero,0(r2)
10006014:	10000215 	stw	zero,8(r2)
10006018:	10000115 	stw	zero,4(r2)
1000601c:	10000415 	stw	zero,16(r2)
10006020:	10000515 	stw	zero,20(r2)
10006024:	10000615 	stw	zero,24(r2)
10006028:	10000c15 	stw	zero,48(r2)
1000602c:	10000d15 	stw	zero,52(r2)
10006030:	10001115 	stw	zero,68(r2)
10006034:	10001215 	stw	zero,72(r2)
10006038:	dfc00317 	ldw	ra,12(sp)
1000603c:	dc800217 	ldw	r18,8(sp)
10006040:	dc400117 	ldw	r17,4(sp)
10006044:	dc000017 	ldw	r16,0(sp)
10006048:	dec00404 	addi	sp,sp,16
1000604c:	f800283a 	ret
10006050:	8809883a 	mov	r4,r17
10006054:	0005e780 	call	10005e78 <__sinit>
10006058:	003fd506 	br	10005fb0 <__alt_data_end+0xf8005fb0>
1000605c:	9009883a 	mov	r4,r18
10006060:	01400104 	movi	r5,4
10006064:	0005df00 	call	10005df0 <__sfmoreglue>
10006068:	88800015 	stw	r2,0(r17)
1000606c:	103fe21e 	bne	r2,zero,10005ff8 <__alt_data_end+0xf8005ff8>
10006070:	00800304 	movi	r2,12
10006074:	90800015 	stw	r2,0(r18)
10006078:	0005883a 	mov	r2,zero
1000607c:	003fee06 	br	10006038 <__alt_data_end+0xf8006038>

10006080 <__sfp_lock_acquire>:
10006080:	f800283a 	ret

10006084 <__sfp_lock_release>:
10006084:	f800283a 	ret

10006088 <__sinit_lock_acquire>:
10006088:	f800283a 	ret

1000608c <__sinit_lock_release>:
1000608c:	f800283a 	ret

10006090 <__fp_lock_all>:
10006090:	00840074 	movhi	r2,4097
10006094:	10815b04 	addi	r2,r2,1388
10006098:	11000017 	ldw	r4,0(r2)
1000609c:	01440034 	movhi	r5,4096
100060a0:	29577504 	addi	r5,r5,24020
100060a4:	00069b01 	jmpi	100069b0 <_fwalk>

100060a8 <__fp_unlock_all>:
100060a8:	00840074 	movhi	r2,4097
100060ac:	10815b04 	addi	r2,r2,1388
100060b0:	11000017 	ldw	r4,0(r2)
100060b4:	01440034 	movhi	r5,4096
100060b8:	29577704 	addi	r5,r5,24028
100060bc:	00069b01 	jmpi	100069b0 <_fwalk>

100060c0 <_malloc_trim_r>:
100060c0:	defffb04 	addi	sp,sp,-20
100060c4:	dcc00315 	stw	r19,12(sp)
100060c8:	dc800215 	stw	r18,8(sp)
100060cc:	dc400115 	stw	r17,4(sp)
100060d0:	dc000015 	stw	r16,0(sp)
100060d4:	2827883a 	mov	r19,r5
100060d8:	dfc00415 	stw	ra,16(sp)
100060dc:	04440074 	movhi	r17,4097
100060e0:	8c7bd604 	addi	r17,r17,-4264
100060e4:	2021883a 	mov	r16,r4
100060e8:	000be400 	call	1000be40 <__malloc_lock>
100060ec:	88800217 	ldw	r2,8(r17)
100060f0:	14800117 	ldw	r18,4(r2)
100060f4:	00bfff04 	movi	r2,-4
100060f8:	90a4703a 	and	r18,r18,r2
100060fc:	9083fbc4 	addi	r2,r18,4079
10006100:	14e7c83a 	sub	r19,r2,r19
10006104:	9826d33a 	srli	r19,r19,12
10006108:	0083ffc4 	movi	r2,4095
1000610c:	9cffffc4 	addi	r19,r19,-1
10006110:	9826933a 	slli	r19,r19,12
10006114:	14c0060e 	bge	r2,r19,10006130 <_malloc_trim_r+0x70>
10006118:	8009883a 	mov	r4,r16
1000611c:	000b883a 	mov	r5,zero
10006120:	00090680 	call	10009068 <_sbrk_r>
10006124:	88c00217 	ldw	r3,8(r17)
10006128:	1c87883a 	add	r3,r3,r18
1000612c:	10c00a26 	beq	r2,r3,10006158 <_malloc_trim_r+0x98>
10006130:	8009883a 	mov	r4,r16
10006134:	000be600 	call	1000be60 <__malloc_unlock>
10006138:	0005883a 	mov	r2,zero
1000613c:	dfc00417 	ldw	ra,16(sp)
10006140:	dcc00317 	ldw	r19,12(sp)
10006144:	dc800217 	ldw	r18,8(sp)
10006148:	dc400117 	ldw	r17,4(sp)
1000614c:	dc000017 	ldw	r16,0(sp)
10006150:	dec00504 	addi	sp,sp,20
10006154:	f800283a 	ret
10006158:	8009883a 	mov	r4,r16
1000615c:	04cbc83a 	sub	r5,zero,r19
10006160:	00090680 	call	10009068 <_sbrk_r>
10006164:	00ffffc4 	movi	r3,-1
10006168:	10c01326 	beq	r2,r3,100061b8 <_malloc_trim_r+0xf8>
1000616c:	00840074 	movhi	r2,4097
10006170:	10880d04 	addi	r2,r2,8244
10006174:	11000017 	ldw	r4,0(r2)
10006178:	88c00217 	ldw	r3,8(r17)
1000617c:	94e5c83a 	sub	r18,r18,r19
10006180:	94800054 	ori	r18,r18,1
10006184:	24e7c83a 	sub	r19,r4,r19
10006188:	1c800115 	stw	r18,4(r3)
1000618c:	8009883a 	mov	r4,r16
10006190:	14c00015 	stw	r19,0(r2)
10006194:	000be600 	call	1000be60 <__malloc_unlock>
10006198:	00800044 	movi	r2,1
1000619c:	dfc00417 	ldw	ra,16(sp)
100061a0:	dcc00317 	ldw	r19,12(sp)
100061a4:	dc800217 	ldw	r18,8(sp)
100061a8:	dc400117 	ldw	r17,4(sp)
100061ac:	dc000017 	ldw	r16,0(sp)
100061b0:	dec00504 	addi	sp,sp,20
100061b4:	f800283a 	ret
100061b8:	8009883a 	mov	r4,r16
100061bc:	000b883a 	mov	r5,zero
100061c0:	00090680 	call	10009068 <_sbrk_r>
100061c4:	88c00217 	ldw	r3,8(r17)
100061c8:	014003c4 	movi	r5,15
100061cc:	10c9c83a 	sub	r4,r2,r3
100061d0:	293fd70e 	bge	r5,r4,10006130 <__alt_data_end+0xf8006130>
100061d4:	01440074 	movhi	r5,4097
100061d8:	29415d04 	addi	r5,r5,1396
100061dc:	29400017 	ldw	r5,0(r5)
100061e0:	21000054 	ori	r4,r4,1
100061e4:	19000115 	stw	r4,4(r3)
100061e8:	1145c83a 	sub	r2,r2,r5
100061ec:	01440074 	movhi	r5,4097
100061f0:	29480d04 	addi	r5,r5,8244
100061f4:	28800015 	stw	r2,0(r5)
100061f8:	003fcd06 	br	10006130 <__alt_data_end+0xf8006130>

100061fc <_free_r>:
100061fc:	defffd04 	addi	sp,sp,-12
10006200:	dc400115 	stw	r17,4(sp)
10006204:	dc000015 	stw	r16,0(sp)
10006208:	dfc00215 	stw	ra,8(sp)
1000620c:	2821883a 	mov	r16,r5
10006210:	2023883a 	mov	r17,r4
10006214:	28004b26 	beq	r5,zero,10006344 <_free_r+0x148>
10006218:	000be400 	call	1000be40 <__malloc_lock>
1000621c:	823fff17 	ldw	r8,-4(r16)
10006220:	00bfff84 	movi	r2,-2
10006224:	81bffe04 	addi	r6,r16,-8
10006228:	4084703a 	and	r2,r8,r2
1000622c:	3087883a 	add	r3,r6,r2
10006230:	01440074 	movhi	r5,4097
10006234:	297bd604 	addi	r5,r5,-4264
10006238:	1a400117 	ldw	r9,4(r3)
1000623c:	29000217 	ldw	r4,8(r5)
10006240:	01ffff04 	movi	r7,-4
10006244:	49ce703a 	and	r7,r9,r7
10006248:	20c06526 	beq	r4,r3,100063e0 <_free_r+0x1e4>
1000624c:	19c00115 	stw	r7,4(r3)
10006250:	4200004c 	andi	r8,r8,1
10006254:	40003026 	beq	r8,zero,10006318 <_free_r+0x11c>
10006258:	0009883a 	mov	r4,zero
1000625c:	19d1883a 	add	r8,r3,r7
10006260:	42000117 	ldw	r8,4(r8)
10006264:	4200004c 	andi	r8,r8,1
10006268:	4000061e 	bne	r8,zero,10006284 <_free_r+0x88>
1000626c:	11c5883a 	add	r2,r2,r7
10006270:	19c00217 	ldw	r7,8(r3)
10006274:	20004e26 	beq	r4,zero,100063b0 <_free_r+0x1b4>
10006278:	18c00317 	ldw	r3,12(r3)
1000627c:	38c00315 	stw	r3,12(r7)
10006280:	19c00215 	stw	r7,8(r3)
10006284:	11c00054 	ori	r7,r2,1
10006288:	3087883a 	add	r3,r6,r2
1000628c:	31c00115 	stw	r7,4(r6)
10006290:	18800015 	stw	r2,0(r3)
10006294:	20001a1e 	bne	r4,zero,10006300 <_free_r+0x104>
10006298:	00c07fc4 	movi	r3,511
1000629c:	18802e2e 	bgeu	r3,r2,10006358 <_free_r+0x15c>
100062a0:	1006d27a 	srli	r3,r2,9
100062a4:	01000104 	movi	r4,4
100062a8:	20c06636 	bltu	r4,r3,10006444 <_free_r+0x248>
100062ac:	1008d1ba 	srli	r4,r2,6
100062b0:	21000e04 	addi	r4,r4,56
100062b4:	210f883a 	add	r7,r4,r4
100062b8:	39cf883a 	add	r7,r7,r7
100062bc:	39cf883a 	add	r7,r7,r7
100062c0:	29cf883a 	add	r7,r5,r7
100062c4:	38c00217 	ldw	r3,8(r7)
100062c8:	01440074 	movhi	r5,4097
100062cc:	297bd604 	addi	r5,r5,-4264
100062d0:	19c06126 	beq	r3,r7,10006458 <_free_r+0x25c>
100062d4:	013fff04 	movi	r4,-4
100062d8:	19400117 	ldw	r5,4(r3)
100062dc:	290a703a 	and	r5,r5,r4
100062e0:	1140022e 	bgeu	r2,r5,100062ec <_free_r+0xf0>
100062e4:	18c00217 	ldw	r3,8(r3)
100062e8:	38fffb1e 	bne	r7,r3,100062d8 <__alt_data_end+0xf80062d8>
100062ec:	18800317 	ldw	r2,12(r3)
100062f0:	30800315 	stw	r2,12(r6)
100062f4:	30c00215 	stw	r3,8(r6)
100062f8:	11800215 	stw	r6,8(r2)
100062fc:	19800315 	stw	r6,12(r3)
10006300:	8809883a 	mov	r4,r17
10006304:	dfc00217 	ldw	ra,8(sp)
10006308:	dc400117 	ldw	r17,4(sp)
1000630c:	dc000017 	ldw	r16,0(sp)
10006310:	dec00304 	addi	sp,sp,12
10006314:	000be601 	jmpi	1000be60 <__malloc_unlock>
10006318:	813ffe17 	ldw	r4,-8(r16)
1000631c:	2a400204 	addi	r9,r5,8
10006320:	310dc83a 	sub	r6,r6,r4
10006324:	32000217 	ldw	r8,8(r6)
10006328:	1105883a 	add	r2,r2,r4
1000632c:	42404326 	beq	r8,r9,1000643c <_free_r+0x240>
10006330:	32400317 	ldw	r9,12(r6)
10006334:	0009883a 	mov	r4,zero
10006338:	42400315 	stw	r9,12(r8)
1000633c:	4a000215 	stw	r8,8(r9)
10006340:	003fc606 	br	1000625c <__alt_data_end+0xf800625c>
10006344:	dfc00217 	ldw	ra,8(sp)
10006348:	dc400117 	ldw	r17,4(sp)
1000634c:	dc000017 	ldw	r16,0(sp)
10006350:	dec00304 	addi	sp,sp,12
10006354:	f800283a 	ret
10006358:	1004d0fa 	srli	r2,r2,3
1000635c:	02000044 	movi	r8,1
10006360:	29c00117 	ldw	r7,4(r5)
10006364:	1087883a 	add	r3,r2,r2
10006368:	18c7883a 	add	r3,r3,r3
1000636c:	1005d0ba 	srai	r2,r2,2
10006370:	18c7883a 	add	r3,r3,r3
10006374:	28c7883a 	add	r3,r5,r3
10006378:	19000217 	ldw	r4,8(r3)
1000637c:	4084983a 	sll	r2,r8,r2
10006380:	30c00315 	stw	r3,12(r6)
10006384:	31000215 	stw	r4,8(r6)
10006388:	11c4b03a 	or	r2,r2,r7
1000638c:	21800315 	stw	r6,12(r4)
10006390:	8809883a 	mov	r4,r17
10006394:	28800115 	stw	r2,4(r5)
10006398:	19800215 	stw	r6,8(r3)
1000639c:	dfc00217 	ldw	ra,8(sp)
100063a0:	dc400117 	ldw	r17,4(sp)
100063a4:	dc000017 	ldw	r16,0(sp)
100063a8:	dec00304 	addi	sp,sp,12
100063ac:	000be601 	jmpi	1000be60 <__malloc_unlock>
100063b0:	02040074 	movhi	r8,4097
100063b4:	423bd804 	addi	r8,r8,-4256
100063b8:	3a3faf1e 	bne	r7,r8,10006278 <__alt_data_end+0xf8006278>
100063bc:	29800515 	stw	r6,20(r5)
100063c0:	29800415 	stw	r6,16(r5)
100063c4:	11000054 	ori	r4,r2,1
100063c8:	3087883a 	add	r3,r6,r2
100063cc:	31c00315 	stw	r7,12(r6)
100063d0:	31c00215 	stw	r7,8(r6)
100063d4:	31000115 	stw	r4,4(r6)
100063d8:	18800015 	stw	r2,0(r3)
100063dc:	003fc806 	br	10006300 <__alt_data_end+0xf8006300>
100063e0:	4200004c 	andi	r8,r8,1
100063e4:	3885883a 	add	r2,r7,r2
100063e8:	4000071e 	bne	r8,zero,10006408 <_free_r+0x20c>
100063ec:	81fffe17 	ldw	r7,-8(r16)
100063f0:	31cdc83a 	sub	r6,r6,r7
100063f4:	30c00317 	ldw	r3,12(r6)
100063f8:	31000217 	ldw	r4,8(r6)
100063fc:	11c5883a 	add	r2,r2,r7
10006400:	20c00315 	stw	r3,12(r4)
10006404:	19000215 	stw	r4,8(r3)
10006408:	00c40074 	movhi	r3,4097
1000640c:	18c15e04 	addi	r3,r3,1400
10006410:	18c00017 	ldw	r3,0(r3)
10006414:	11000054 	ori	r4,r2,1
10006418:	31000115 	stw	r4,4(r6)
1000641c:	29800215 	stw	r6,8(r5)
10006420:	10ffb736 	bltu	r2,r3,10006300 <__alt_data_end+0xf8006300>
10006424:	00840074 	movhi	r2,4097
10006428:	10880504 	addi	r2,r2,8212
1000642c:	11400017 	ldw	r5,0(r2)
10006430:	8809883a 	mov	r4,r17
10006434:	00060c00 	call	100060c0 <_malloc_trim_r>
10006438:	003fb106 	br	10006300 <__alt_data_end+0xf8006300>
1000643c:	01000044 	movi	r4,1
10006440:	003f8606 	br	1000625c <__alt_data_end+0xf800625c>
10006444:	01000504 	movi	r4,20
10006448:	20c00b36 	bltu	r4,r3,10006478 <_free_r+0x27c>
1000644c:	190016c4 	addi	r4,r3,91
10006450:	210f883a 	add	r7,r4,r4
10006454:	003f9806 	br	100062b8 <__alt_data_end+0xf80062b8>
10006458:	2009d0ba 	srai	r4,r4,2
1000645c:	00800044 	movi	r2,1
10006460:	29c00117 	ldw	r7,4(r5)
10006464:	1108983a 	sll	r4,r2,r4
10006468:	1805883a 	mov	r2,r3
1000646c:	21c8b03a 	or	r4,r4,r7
10006470:	29000115 	stw	r4,4(r5)
10006474:	003f9e06 	br	100062f0 <__alt_data_end+0xf80062f0>
10006478:	01001504 	movi	r4,84
1000647c:	20c00436 	bltu	r4,r3,10006490 <_free_r+0x294>
10006480:	1008d33a 	srli	r4,r2,12
10006484:	21001b84 	addi	r4,r4,110
10006488:	210f883a 	add	r7,r4,r4
1000648c:	003f8a06 	br	100062b8 <__alt_data_end+0xf80062b8>
10006490:	01005504 	movi	r4,340
10006494:	20c00436 	bltu	r4,r3,100064a8 <_free_r+0x2ac>
10006498:	1008d3fa 	srli	r4,r2,15
1000649c:	21001dc4 	addi	r4,r4,119
100064a0:	210f883a 	add	r7,r4,r4
100064a4:	003f8406 	br	100062b8 <__alt_data_end+0xf80062b8>
100064a8:	01015504 	movi	r4,1364
100064ac:	20c00436 	bltu	r4,r3,100064c0 <_free_r+0x2c4>
100064b0:	1008d4ba 	srli	r4,r2,18
100064b4:	21001f04 	addi	r4,r4,124
100064b8:	210f883a 	add	r7,r4,r4
100064bc:	003f7e06 	br	100062b8 <__alt_data_end+0xf80062b8>
100064c0:	01c03f04 	movi	r7,252
100064c4:	01001f84 	movi	r4,126
100064c8:	003f7b06 	br	100062b8 <__alt_data_end+0xf80062b8>

100064cc <__sfvwrite_r>:
100064cc:	30800217 	ldw	r2,8(r6)
100064d0:	defff504 	addi	sp,sp,-44
100064d4:	dd400615 	stw	r21,24(sp)
100064d8:	dd000515 	stw	r20,20(sp)
100064dc:	dc000115 	stw	r16,4(sp)
100064e0:	dfc00a15 	stw	ra,40(sp)
100064e4:	df000915 	stw	fp,36(sp)
100064e8:	ddc00815 	stw	r23,32(sp)
100064ec:	dd800715 	stw	r22,28(sp)
100064f0:	dcc00415 	stw	r19,16(sp)
100064f4:	dc800315 	stw	r18,12(sp)
100064f8:	dc400215 	stw	r17,8(sp)
100064fc:	3029883a 	mov	r20,r6
10006500:	202b883a 	mov	r21,r4
10006504:	2821883a 	mov	r16,r5
10006508:	10002126 	beq	r2,zero,10006590 <__sfvwrite_r+0xc4>
1000650c:	2880030b 	ldhu	r2,12(r5)
10006510:	10c0020c 	andi	r3,r2,8
10006514:	18ffffcc 	andi	r3,r3,65535
10006518:	18e0001c 	xori	r3,r3,32768
1000651c:	18e00004 	addi	r3,r3,-32768
10006520:	18002826 	beq	r3,zero,100065c4 <__sfvwrite_r+0xf8>
10006524:	28c00417 	ldw	r3,16(r5)
10006528:	18002626 	beq	r3,zero,100065c4 <__sfvwrite_r+0xf8>
1000652c:	10c0008c 	andi	r3,r2,2
10006530:	18ffffcc 	andi	r3,r3,65535
10006534:	18e0001c 	xori	r3,r3,32768
10006538:	18e00004 	addi	r3,r3,-32768
1000653c:	a4400017 	ldw	r17,0(r20)
10006540:	18002b26 	beq	r3,zero,100065f0 <__sfvwrite_r+0x124>
10006544:	0027883a 	mov	r19,zero
10006548:	0025883a 	mov	r18,zero
1000654c:	05810004 	movi	r22,1024
10006550:	980d883a 	mov	r6,r19
10006554:	a809883a 	mov	r4,r21
10006558:	90004f26 	beq	r18,zero,10006698 <__sfvwrite_r+0x1cc>
1000655c:	900f883a 	mov	r7,r18
10006560:	81400717 	ldw	r5,28(r16)
10006564:	b480012e 	bgeu	r22,r18,1000656c <__sfvwrite_r+0xa0>
10006568:	01c10004 	movi	r7,1024
1000656c:	80800917 	ldw	r2,36(r16)
10006570:	103ee83a 	callr	r2
10006574:	0080540e 	bge	zero,r2,100066c8 <__sfvwrite_r+0x1fc>
10006578:	a0c00217 	ldw	r3,8(r20)
1000657c:	98a7883a 	add	r19,r19,r2
10006580:	90a5c83a 	sub	r18,r18,r2
10006584:	1885c83a 	sub	r2,r3,r2
10006588:	a0800215 	stw	r2,8(r20)
1000658c:	103ff01e 	bne	r2,zero,10006550 <__alt_data_end+0xf8006550>
10006590:	0005883a 	mov	r2,zero
10006594:	dfc00a17 	ldw	ra,40(sp)
10006598:	df000917 	ldw	fp,36(sp)
1000659c:	ddc00817 	ldw	r23,32(sp)
100065a0:	dd800717 	ldw	r22,28(sp)
100065a4:	dd400617 	ldw	r21,24(sp)
100065a8:	dd000517 	ldw	r20,20(sp)
100065ac:	dcc00417 	ldw	r19,16(sp)
100065b0:	dc800317 	ldw	r18,12(sp)
100065b4:	dc400217 	ldw	r17,8(sp)
100065b8:	dc000117 	ldw	r16,4(sp)
100065bc:	dec00b04 	addi	sp,sp,44
100065c0:	f800283a 	ret
100065c4:	a809883a 	mov	r4,r21
100065c8:	800b883a 	mov	r5,r16
100065cc:	00041f00 	call	100041f0 <__swsetup_r>
100065d0:	1000f01e 	bne	r2,zero,10006994 <__sfvwrite_r+0x4c8>
100065d4:	8080030b 	ldhu	r2,12(r16)
100065d8:	a4400017 	ldw	r17,0(r20)
100065dc:	10c0008c 	andi	r3,r2,2
100065e0:	18ffffcc 	andi	r3,r3,65535
100065e4:	18e0001c 	xori	r3,r3,32768
100065e8:	18e00004 	addi	r3,r3,-32768
100065ec:	183fd51e 	bne	r3,zero,10006544 <__alt_data_end+0xf8006544>
100065f0:	10c0004c 	andi	r3,r2,1
100065f4:	002d883a 	mov	r22,zero
100065f8:	1800381e 	bne	r3,zero,100066dc <__sfvwrite_r+0x210>
100065fc:	0025883a 	mov	r18,zero
10006600:	90002126 	beq	r18,zero,10006688 <__sfvwrite_r+0x1bc>
10006604:	10c0800c 	andi	r3,r2,512
10006608:	18ffffcc 	andi	r3,r3,65535
1000660c:	18e0001c 	xori	r3,r3,32768
10006610:	18e00004 	addi	r3,r3,-32768
10006614:	84c00217 	ldw	r19,8(r16)
10006618:	18006b26 	beq	r3,zero,100067c8 <__sfvwrite_r+0x2fc>
1000661c:	980f883a 	mov	r7,r19
10006620:	94c08636 	bltu	r18,r19,1000683c <__sfvwrite_r+0x370>
10006624:	10c1200c 	andi	r3,r2,1152
10006628:	18009f1e 	bne	r3,zero,100068a8 <__sfvwrite_r+0x3dc>
1000662c:	81000017 	ldw	r4,0(r16)
10006630:	982f883a 	mov	r23,r19
10006634:	9039883a 	mov	fp,r18
10006638:	9027883a 	mov	r19,r18
1000663c:	380d883a 	mov	r6,r7
10006640:	b00b883a 	mov	r5,r22
10006644:	d9c00015 	stw	r7,0(sp)
10006648:	00077500 	call	10007750 <memmove>
1000664c:	d9c00017 	ldw	r7,0(sp)
10006650:	81000217 	ldw	r4,8(r16)
10006654:	80800017 	ldw	r2,0(r16)
10006658:	25efc83a 	sub	r23,r4,r23
1000665c:	11cf883a 	add	r7,r2,r7
10006660:	85c00215 	stw	r23,8(r16)
10006664:	81c00015 	stw	r7,0(r16)
10006668:	a0800217 	ldw	r2,8(r20)
1000666c:	b72d883a 	add	r22,r22,fp
10006670:	9725c83a 	sub	r18,r18,fp
10006674:	14e7c83a 	sub	r19,r2,r19
10006678:	a4c00215 	stw	r19,8(r20)
1000667c:	983fc426 	beq	r19,zero,10006590 <__alt_data_end+0xf8006590>
10006680:	8080030b 	ldhu	r2,12(r16)
10006684:	903fdf1e 	bne	r18,zero,10006604 <__alt_data_end+0xf8006604>
10006688:	8d800017 	ldw	r22,0(r17)
1000668c:	8c800117 	ldw	r18,4(r17)
10006690:	8c400204 	addi	r17,r17,8
10006694:	003fda06 	br	10006600 <__alt_data_end+0xf8006600>
10006698:	8cc00017 	ldw	r19,0(r17)
1000669c:	8c800117 	ldw	r18,4(r17)
100066a0:	8c400204 	addi	r17,r17,8
100066a4:	003faa06 	br	10006550 <__alt_data_end+0xf8006550>
100066a8:	0008a080 	call	10008a08 <_realloc_r>
100066ac:	102f883a 	mov	r23,r2
100066b0:	10009f1e 	bne	r2,zero,10006930 <__sfvwrite_r+0x464>
100066b4:	81400417 	ldw	r5,16(r16)
100066b8:	a809883a 	mov	r4,r21
100066bc:	00061fc0 	call	100061fc <_free_r>
100066c0:	00800304 	movi	r2,12
100066c4:	a8800015 	stw	r2,0(r21)
100066c8:	80c0030b 	ldhu	r3,12(r16)
100066cc:	00bfffc4 	movi	r2,-1
100066d0:	18c01014 	ori	r3,r3,64
100066d4:	80c0030d 	sth	r3,12(r16)
100066d8:	003fae06 	br	10006594 <__alt_data_end+0xf8006594>
100066dc:	0007883a 	mov	r3,zero
100066e0:	0039883a 	mov	fp,zero
100066e4:	0025883a 	mov	r18,zero
100066e8:	90001e26 	beq	r18,zero,10006764 <__sfvwrite_r+0x298>
100066ec:	18006526 	beq	r3,zero,10006884 <__sfvwrite_r+0x3b8>
100066f0:	b02f883a 	mov	r23,r22
100066f4:	9580012e 	bgeu	r18,r22,100066fc <__sfvwrite_r+0x230>
100066f8:	902f883a 	mov	r23,r18
100066fc:	81000017 	ldw	r4,0(r16)
10006700:	80800417 	ldw	r2,16(r16)
10006704:	84c00217 	ldw	r19,8(r16)
10006708:	81c00517 	ldw	r7,20(r16)
1000670c:	1100022e 	bgeu	r2,r4,10006718 <__sfvwrite_r+0x24c>
10006710:	99e7883a 	add	r19,r19,r7
10006714:	9dc01816 	blt	r19,r23,10006778 <__sfvwrite_r+0x2ac>
10006718:	b9c03b16 	blt	r23,r7,10006808 <__sfvwrite_r+0x33c>
1000671c:	80800917 	ldw	r2,36(r16)
10006720:	81400717 	ldw	r5,28(r16)
10006724:	a809883a 	mov	r4,r21
10006728:	d8c00015 	stw	r3,0(sp)
1000672c:	e00d883a 	mov	r6,fp
10006730:	103ee83a 	callr	r2
10006734:	1027883a 	mov	r19,r2
10006738:	d8c00017 	ldw	r3,0(sp)
1000673c:	00bfe20e 	bge	zero,r2,100066c8 <__alt_data_end+0xf80066c8>
10006740:	b4edc83a 	sub	r22,r22,r19
10006744:	b0001a26 	beq	r22,zero,100067b0 <__sfvwrite_r+0x2e4>
10006748:	a0800217 	ldw	r2,8(r20)
1000674c:	e4f9883a 	add	fp,fp,r19
10006750:	94e5c83a 	sub	r18,r18,r19
10006754:	14e7c83a 	sub	r19,r2,r19
10006758:	a4c00215 	stw	r19,8(r20)
1000675c:	983f8c26 	beq	r19,zero,10006590 <__alt_data_end+0xf8006590>
10006760:	903fe21e 	bne	r18,zero,100066ec <__alt_data_end+0xf80066ec>
10006764:	8f000017 	ldw	fp,0(r17)
10006768:	8c800117 	ldw	r18,4(r17)
1000676c:	0007883a 	mov	r3,zero
10006770:	8c400204 	addi	r17,r17,8
10006774:	003fdc06 	br	100066e8 <__alt_data_end+0xf80066e8>
10006778:	e00b883a 	mov	r5,fp
1000677c:	980d883a 	mov	r6,r19
10006780:	d8c00015 	stw	r3,0(sp)
10006784:	00077500 	call	10007750 <memmove>
10006788:	80800017 	ldw	r2,0(r16)
1000678c:	a809883a 	mov	r4,r21
10006790:	800b883a 	mov	r5,r16
10006794:	14c5883a 	add	r2,r2,r19
10006798:	80800015 	stw	r2,0(r16)
1000679c:	0005bbc0 	call	10005bbc <_fflush_r>
100067a0:	d8c00017 	ldw	r3,0(sp)
100067a4:	103fc81e 	bne	r2,zero,100066c8 <__alt_data_end+0xf80066c8>
100067a8:	b4edc83a 	sub	r22,r22,r19
100067ac:	b03fe61e 	bne	r22,zero,10006748 <__alt_data_end+0xf8006748>
100067b0:	a809883a 	mov	r4,r21
100067b4:	800b883a 	mov	r5,r16
100067b8:	0005bbc0 	call	10005bbc <_fflush_r>
100067bc:	103fc21e 	bne	r2,zero,100066c8 <__alt_data_end+0xf80066c8>
100067c0:	0007883a 	mov	r3,zero
100067c4:	003fe006 	br	10006748 <__alt_data_end+0xf8006748>
100067c8:	81000017 	ldw	r4,0(r16)
100067cc:	80800417 	ldw	r2,16(r16)
100067d0:	1100022e 	bgeu	r2,r4,100067dc <__sfvwrite_r+0x310>
100067d4:	9839883a 	mov	fp,r19
100067d8:	9c806036 	bltu	r19,r18,1000695c <__sfvwrite_r+0x490>
100067dc:	81c00517 	ldw	r7,20(r16)
100067e0:	91c01c36 	bltu	r18,r7,10006854 <__sfvwrite_r+0x388>
100067e4:	80800917 	ldw	r2,36(r16)
100067e8:	81400717 	ldw	r5,28(r16)
100067ec:	a809883a 	mov	r4,r21
100067f0:	b00d883a 	mov	r6,r22
100067f4:	103ee83a 	callr	r2
100067f8:	1027883a 	mov	r19,r2
100067fc:	00bfb20e 	bge	zero,r2,100066c8 <__alt_data_end+0xf80066c8>
10006800:	1039883a 	mov	fp,r2
10006804:	003f9806 	br	10006668 <__alt_data_end+0xf8006668>
10006808:	b80d883a 	mov	r6,r23
1000680c:	e00b883a 	mov	r5,fp
10006810:	d8c00015 	stw	r3,0(sp)
10006814:	00077500 	call	10007750 <memmove>
10006818:	80800217 	ldw	r2,8(r16)
1000681c:	81000017 	ldw	r4,0(r16)
10006820:	b827883a 	mov	r19,r23
10006824:	15c5c83a 	sub	r2,r2,r23
10006828:	25ef883a 	add	r23,r4,r23
1000682c:	80800215 	stw	r2,8(r16)
10006830:	85c00015 	stw	r23,0(r16)
10006834:	d8c00017 	ldw	r3,0(sp)
10006838:	003fc106 	br	10006740 <__alt_data_end+0xf8006740>
1000683c:	81000017 	ldw	r4,0(r16)
10006840:	902f883a 	mov	r23,r18
10006844:	9039883a 	mov	fp,r18
10006848:	9027883a 	mov	r19,r18
1000684c:	900f883a 	mov	r7,r18
10006850:	003f7a06 	br	1000663c <__alt_data_end+0xf800663c>
10006854:	b00b883a 	mov	r5,r22
10006858:	900d883a 	mov	r6,r18
1000685c:	00077500 	call	10007750 <memmove>
10006860:	80c00217 	ldw	r3,8(r16)
10006864:	80800017 	ldw	r2,0(r16)
10006868:	9027883a 	mov	r19,r18
1000686c:	1c87c83a 	sub	r3,r3,r18
10006870:	1485883a 	add	r2,r2,r18
10006874:	80c00215 	stw	r3,8(r16)
10006878:	80800015 	stw	r2,0(r16)
1000687c:	9039883a 	mov	fp,r18
10006880:	003f7906 	br	10006668 <__alt_data_end+0xf8006668>
10006884:	e009883a 	mov	r4,fp
10006888:	01400284 	movi	r5,10
1000688c:	900d883a 	mov	r6,r18
10006890:	00075180 	call	10007518 <memchr>
10006894:	10003c26 	beq	r2,zero,10006988 <__sfvwrite_r+0x4bc>
10006898:	15800044 	addi	r22,r2,1
1000689c:	b72dc83a 	sub	r22,r22,fp
100068a0:	00c00044 	movi	r3,1
100068a4:	003f9206 	br	100066f0 <__alt_data_end+0xf80066f0>
100068a8:	81000517 	ldw	r4,20(r16)
100068ac:	81400417 	ldw	r5,16(r16)
100068b0:	80c00017 	ldw	r3,0(r16)
100068b4:	210d883a 	add	r6,r4,r4
100068b8:	3109883a 	add	r4,r6,r4
100068bc:	2026d7fa 	srli	r19,r4,31
100068c0:	1979c83a 	sub	fp,r3,r5
100068c4:	e1800044 	addi	r6,fp,1
100068c8:	9909883a 	add	r4,r19,r4
100068cc:	2027d07a 	srai	r19,r4,1
100068d0:	3489883a 	add	r4,r6,r18
100068d4:	980d883a 	mov	r6,r19
100068d8:	9900022e 	bgeu	r19,r4,100068e4 <__sfvwrite_r+0x418>
100068dc:	2027883a 	mov	r19,r4
100068e0:	200d883a 	mov	r6,r4
100068e4:	1081000c 	andi	r2,r2,1024
100068e8:	10bfffcc 	andi	r2,r2,65535
100068ec:	10a0001c 	xori	r2,r2,32768
100068f0:	10a00004 	addi	r2,r2,-32768
100068f4:	a809883a 	mov	r4,r21
100068f8:	103f6b26 	beq	r2,zero,100066a8 <__alt_data_end+0xf80066a8>
100068fc:	300b883a 	mov	r5,r6
10006900:	0006d940 	call	10006d94 <_malloc_r>
10006904:	102f883a 	mov	r23,r2
10006908:	103f6d26 	beq	r2,zero,100066c0 <__alt_data_end+0xf80066c0>
1000690c:	81400417 	ldw	r5,16(r16)
10006910:	1009883a 	mov	r4,r2
10006914:	e00d883a 	mov	r6,fp
10006918:	00076100 	call	10007610 <memcpy>
1000691c:	8080030b 	ldhu	r2,12(r16)
10006920:	00fedfc4 	movi	r3,-1153
10006924:	10c4703a 	and	r2,r2,r3
10006928:	10802014 	ori	r2,r2,128
1000692c:	8080030d 	sth	r2,12(r16)
10006930:	bf09883a 	add	r4,r23,fp
10006934:	9f07c83a 	sub	r3,r19,fp
10006938:	85c00415 	stw	r23,16(r16)
1000693c:	84c00515 	stw	r19,20(r16)
10006940:	81000015 	stw	r4,0(r16)
10006944:	902f883a 	mov	r23,r18
10006948:	80c00215 	stw	r3,8(r16)
1000694c:	9039883a 	mov	fp,r18
10006950:	9027883a 	mov	r19,r18
10006954:	900f883a 	mov	r7,r18
10006958:	003f3806 	br	1000663c <__alt_data_end+0xf800663c>
1000695c:	b00b883a 	mov	r5,r22
10006960:	980d883a 	mov	r6,r19
10006964:	00077500 	call	10007750 <memmove>
10006968:	80800017 	ldw	r2,0(r16)
1000696c:	a809883a 	mov	r4,r21
10006970:	800b883a 	mov	r5,r16
10006974:	14c5883a 	add	r2,r2,r19
10006978:	80800015 	stw	r2,0(r16)
1000697c:	0005bbc0 	call	10005bbc <_fflush_r>
10006980:	103f3926 	beq	r2,zero,10006668 <__alt_data_end+0xf8006668>
10006984:	003f5006 	br	100066c8 <__alt_data_end+0xf80066c8>
10006988:	95800044 	addi	r22,r18,1
1000698c:	00c00044 	movi	r3,1
10006990:	003f5706 	br	100066f0 <__alt_data_end+0xf80066f0>
10006994:	80c0030b 	ldhu	r3,12(r16)
10006998:	00bfffc4 	movi	r2,-1
1000699c:	18c01014 	ori	r3,r3,64
100069a0:	80c0030d 	sth	r3,12(r16)
100069a4:	00c00244 	movi	r3,9
100069a8:	a8c00015 	stw	r3,0(r21)
100069ac:	003ef906 	br	10006594 <__alt_data_end+0xf8006594>

100069b0 <_fwalk>:
100069b0:	defff904 	addi	sp,sp,-28
100069b4:	dcc00315 	stw	r19,12(sp)
100069b8:	24c0b804 	addi	r19,r4,736
100069bc:	dd400515 	stw	r21,20(sp)
100069c0:	dd000415 	stw	r20,16(sp)
100069c4:	dfc00615 	stw	ra,24(sp)
100069c8:	dc800215 	stw	r18,8(sp)
100069cc:	dc400115 	stw	r17,4(sp)
100069d0:	dc000015 	stw	r16,0(sp)
100069d4:	282b883a 	mov	r21,r5
100069d8:	0029883a 	mov	r20,zero
100069dc:	00060800 	call	10006080 <__sfp_lock_acquire>
100069e0:	98001226 	beq	r19,zero,10006a2c <_fwalk+0x7c>
100069e4:	04bfffc4 	movi	r18,-1
100069e8:	9c400117 	ldw	r17,4(r19)
100069ec:	9c000217 	ldw	r16,8(r19)
100069f0:	8c7fffc4 	addi	r17,r17,-1
100069f4:	88000b16 	blt	r17,zero,10006a24 <_fwalk+0x74>
100069f8:	84000304 	addi	r16,r16,12
100069fc:	80c0000f 	ldh	r3,0(r16)
10006a00:	8c7fffc4 	addi	r17,r17,-1
10006a04:	813ffd04 	addi	r4,r16,-12
10006a08:	18000426 	beq	r3,zero,10006a1c <_fwalk+0x6c>
10006a0c:	80c0008f 	ldh	r3,2(r16)
10006a10:	1c800226 	beq	r3,r18,10006a1c <_fwalk+0x6c>
10006a14:	a83ee83a 	callr	r21
10006a18:	a0a8b03a 	or	r20,r20,r2
10006a1c:	84001704 	addi	r16,r16,92
10006a20:	8cbff61e 	bne	r17,r18,100069fc <__alt_data_end+0xf80069fc>
10006a24:	9cc00017 	ldw	r19,0(r19)
10006a28:	983fef1e 	bne	r19,zero,100069e8 <__alt_data_end+0xf80069e8>
10006a2c:	00060840 	call	10006084 <__sfp_lock_release>
10006a30:	a005883a 	mov	r2,r20
10006a34:	dfc00617 	ldw	ra,24(sp)
10006a38:	dd400517 	ldw	r21,20(sp)
10006a3c:	dd000417 	ldw	r20,16(sp)
10006a40:	dcc00317 	ldw	r19,12(sp)
10006a44:	dc800217 	ldw	r18,8(sp)
10006a48:	dc400117 	ldw	r17,4(sp)
10006a4c:	dc000017 	ldw	r16,0(sp)
10006a50:	dec00704 	addi	sp,sp,28
10006a54:	f800283a 	ret

10006a58 <_fwalk_reent>:
10006a58:	defff804 	addi	sp,sp,-32
10006a5c:	dcc00315 	stw	r19,12(sp)
10006a60:	24c0b804 	addi	r19,r4,736
10006a64:	dd800615 	stw	r22,24(sp)
10006a68:	dd400515 	stw	r21,20(sp)
10006a6c:	dd000415 	stw	r20,16(sp)
10006a70:	dfc00715 	stw	ra,28(sp)
10006a74:	dc800215 	stw	r18,8(sp)
10006a78:	dc400115 	stw	r17,4(sp)
10006a7c:	dc000015 	stw	r16,0(sp)
10006a80:	2029883a 	mov	r20,r4
10006a84:	282b883a 	mov	r21,r5
10006a88:	002d883a 	mov	r22,zero
10006a8c:	00060800 	call	10006080 <__sfp_lock_acquire>
10006a90:	98001326 	beq	r19,zero,10006ae0 <_fwalk_reent+0x88>
10006a94:	04bfffc4 	movi	r18,-1
10006a98:	9c400117 	ldw	r17,4(r19)
10006a9c:	9c000217 	ldw	r16,8(r19)
10006aa0:	8c7fffc4 	addi	r17,r17,-1
10006aa4:	88000c16 	blt	r17,zero,10006ad8 <_fwalk_reent+0x80>
10006aa8:	84000304 	addi	r16,r16,12
10006aac:	80c0000f 	ldh	r3,0(r16)
10006ab0:	8c7fffc4 	addi	r17,r17,-1
10006ab4:	817ffd04 	addi	r5,r16,-12
10006ab8:	18000526 	beq	r3,zero,10006ad0 <_fwalk_reent+0x78>
10006abc:	80c0008f 	ldh	r3,2(r16)
10006ac0:	a009883a 	mov	r4,r20
10006ac4:	1c800226 	beq	r3,r18,10006ad0 <_fwalk_reent+0x78>
10006ac8:	a83ee83a 	callr	r21
10006acc:	b0acb03a 	or	r22,r22,r2
10006ad0:	84001704 	addi	r16,r16,92
10006ad4:	8cbff51e 	bne	r17,r18,10006aac <__alt_data_end+0xf8006aac>
10006ad8:	9cc00017 	ldw	r19,0(r19)
10006adc:	983fee1e 	bne	r19,zero,10006a98 <__alt_data_end+0xf8006a98>
10006ae0:	00060840 	call	10006084 <__sfp_lock_release>
10006ae4:	b005883a 	mov	r2,r22
10006ae8:	dfc00717 	ldw	ra,28(sp)
10006aec:	dd800617 	ldw	r22,24(sp)
10006af0:	dd400517 	ldw	r21,20(sp)
10006af4:	dd000417 	ldw	r20,16(sp)
10006af8:	dcc00317 	ldw	r19,12(sp)
10006afc:	dc800217 	ldw	r18,8(sp)
10006b00:	dc400117 	ldw	r17,4(sp)
10006b04:	dc000017 	ldw	r16,0(sp)
10006b08:	dec00804 	addi	sp,sp,32
10006b0c:	f800283a 	ret

10006b10 <_setlocale_r>:
10006b10:	defffc04 	addi	sp,sp,-16
10006b14:	dc800215 	stw	r18,8(sp)
10006b18:	dc400115 	stw	r17,4(sp)
10006b1c:	dc000015 	stw	r16,0(sp)
10006b20:	dfc00315 	stw	ra,12(sp)
10006b24:	3021883a 	mov	r16,r6
10006b28:	2023883a 	mov	r17,r4
10006b2c:	2825883a 	mov	r18,r5
10006b30:	30001626 	beq	r6,zero,10006b8c <_setlocale_r+0x7c>
10006b34:	3009883a 	mov	r4,r6
10006b38:	01440074 	movhi	r5,4097
10006b3c:	297a2704 	addi	r5,r5,-5988
10006b40:	000920c0 	call	1000920c <strcmp>
10006b44:	10000a1e 	bne	r2,zero,10006b70 <_setlocale_r+0x60>
10006b48:	8c800c15 	stw	r18,48(r17)
10006b4c:	8c000d15 	stw	r16,52(r17)
10006b50:	00840074 	movhi	r2,4097
10006b54:	10ba2704 	addi	r2,r2,-5988
10006b58:	dfc00317 	ldw	ra,12(sp)
10006b5c:	dc800217 	ldw	r18,8(sp)
10006b60:	dc400117 	ldw	r17,4(sp)
10006b64:	dc000017 	ldw	r16,0(sp)
10006b68:	dec00404 	addi	sp,sp,16
10006b6c:	f800283a 	ret
10006b70:	8009883a 	mov	r4,r16
10006b74:	01440074 	movhi	r5,4097
10006b78:	297a1204 	addi	r5,r5,-6072
10006b7c:	000920c0 	call	1000920c <strcmp>
10006b80:	103ff126 	beq	r2,zero,10006b48 <__alt_data_end+0xf8006b48>
10006b84:	0005883a 	mov	r2,zero
10006b88:	003ff306 	br	10006b58 <__alt_data_end+0xf8006b58>
10006b8c:	00840074 	movhi	r2,4097
10006b90:	10ba2704 	addi	r2,r2,-5988
10006b94:	dfc00317 	ldw	ra,12(sp)
10006b98:	dc800217 	ldw	r18,8(sp)
10006b9c:	dc400117 	ldw	r17,4(sp)
10006ba0:	dc000017 	ldw	r16,0(sp)
10006ba4:	dec00404 	addi	sp,sp,16
10006ba8:	f800283a 	ret

10006bac <__locale_charset>:
10006bac:	00840074 	movhi	r2,4097
10006bb0:	10ba2804 	addi	r2,r2,-5984
10006bb4:	f800283a 	ret

10006bb8 <_localeconv_r>:
10006bb8:	00840074 	movhi	r2,4097
10006bbc:	10ba2c04 	addi	r2,r2,-5968
10006bc0:	f800283a 	ret

10006bc4 <setlocale>:
10006bc4:	00c40074 	movhi	r3,4097
10006bc8:	18c15b04 	addi	r3,r3,1388
10006bcc:	2005883a 	mov	r2,r4
10006bd0:	19000017 	ldw	r4,0(r3)
10006bd4:	280d883a 	mov	r6,r5
10006bd8:	100b883a 	mov	r5,r2
10006bdc:	0006b101 	jmpi	10006b10 <_setlocale_r>

10006be0 <localeconv>:
10006be0:	00840074 	movhi	r2,4097
10006be4:	10ba2c04 	addi	r2,r2,-5968
10006be8:	f800283a 	ret

10006bec <__smakebuf_r>:
10006bec:	2880030b 	ldhu	r2,12(r5)
10006bf0:	deffed04 	addi	sp,sp,-76
10006bf4:	dc401015 	stw	r17,64(sp)
10006bf8:	10c0008c 	andi	r3,r2,2
10006bfc:	18ffffcc 	andi	r3,r3,65535
10006c00:	18e0001c 	xori	r3,r3,32768
10006c04:	dc000f15 	stw	r16,60(sp)
10006c08:	dfc01215 	stw	ra,72(sp)
10006c0c:	dc801115 	stw	r18,68(sp)
10006c10:	18e00004 	addi	r3,r3,-32768
10006c14:	2821883a 	mov	r16,r5
10006c18:	2023883a 	mov	r17,r4
10006c1c:	1800381e 	bne	r3,zero,10006d00 <__smakebuf_r+0x114>
10006c20:	2940038f 	ldh	r5,14(r5)
10006c24:	28002d16 	blt	r5,zero,10006cdc <__smakebuf_r+0xf0>
10006c28:	d80d883a 	mov	r6,sp
10006c2c:	000959c0 	call	1000959c <_fstat_r>
10006c30:	10002916 	blt	r2,zero,10006cd8 <__smakebuf_r+0xec>
10006c34:	d8800117 	ldw	r2,4(sp)
10006c38:	00e00014 	movui	r3,32768
10006c3c:	10bc000c 	andi	r2,r2,61440
10006c40:	10c03c26 	beq	r2,r3,10006d34 <__smakebuf_r+0x148>
10006c44:	80c0030b 	ldhu	r3,12(r16)
10006c48:	18c20014 	ori	r3,r3,2048
10006c4c:	80c0030d 	sth	r3,12(r16)
10006c50:	00c80004 	movi	r3,8192
10006c54:	10c00c1e 	bne	r2,r3,10006c88 <__smakebuf_r+0x9c>
10006c58:	8140038f 	ldh	r5,14(r16)
10006c5c:	8809883a 	mov	r4,r17
10006c60:	00096040 	call	10009604 <_isatty_r>
10006c64:	10000826 	beq	r2,zero,10006c88 <__smakebuf_r+0x9c>
10006c68:	80c0030b 	ldhu	r3,12(r16)
10006c6c:	808010c4 	addi	r2,r16,67
10006c70:	80800015 	stw	r2,0(r16)
10006c74:	18c00054 	ori	r3,r3,1
10006c78:	80800415 	stw	r2,16(r16)
10006c7c:	00800044 	movi	r2,1
10006c80:	80c0030d 	sth	r3,12(r16)
10006c84:	80800515 	stw	r2,20(r16)
10006c88:	04810004 	movi	r18,1024
10006c8c:	8809883a 	mov	r4,r17
10006c90:	900b883a 	mov	r5,r18
10006c94:	0006d940 	call	10006d94 <_malloc_r>
10006c98:	10003026 	beq	r2,zero,10006d5c <__smakebuf_r+0x170>
10006c9c:	80c0030b 	ldhu	r3,12(r16)
10006ca0:	01040034 	movhi	r4,4096
10006ca4:	21177904 	addi	r4,r4,24036
10006ca8:	89000f15 	stw	r4,60(r17)
10006cac:	18c02014 	ori	r3,r3,128
10006cb0:	80c0030d 	sth	r3,12(r16)
10006cb4:	80800015 	stw	r2,0(r16)
10006cb8:	80800415 	stw	r2,16(r16)
10006cbc:	84800515 	stw	r18,20(r16)
10006cc0:	dfc01217 	ldw	ra,72(sp)
10006cc4:	dc801117 	ldw	r18,68(sp)
10006cc8:	dc401017 	ldw	r17,64(sp)
10006ccc:	dc000f17 	ldw	r16,60(sp)
10006cd0:	dec01304 	addi	sp,sp,76
10006cd4:	f800283a 	ret
10006cd8:	8080030b 	ldhu	r2,12(r16)
10006cdc:	10c0200c 	andi	r3,r2,128
10006ce0:	18ffffcc 	andi	r3,r3,65535
10006ce4:	18e0001c 	xori	r3,r3,32768
10006ce8:	18e00004 	addi	r3,r3,-32768
10006cec:	18000f1e 	bne	r3,zero,10006d2c <__smakebuf_r+0x140>
10006cf0:	04810004 	movi	r18,1024
10006cf4:	10820014 	ori	r2,r2,2048
10006cf8:	8080030d 	sth	r2,12(r16)
10006cfc:	003fe306 	br	10006c8c <__alt_data_end+0xf8006c8c>
10006d00:	288010c4 	addi	r2,r5,67
10006d04:	28800015 	stw	r2,0(r5)
10006d08:	28800415 	stw	r2,16(r5)
10006d0c:	00800044 	movi	r2,1
10006d10:	28800515 	stw	r2,20(r5)
10006d14:	dfc01217 	ldw	ra,72(sp)
10006d18:	dc801117 	ldw	r18,68(sp)
10006d1c:	dc401017 	ldw	r17,64(sp)
10006d20:	dc000f17 	ldw	r16,60(sp)
10006d24:	dec01304 	addi	sp,sp,76
10006d28:	f800283a 	ret
10006d2c:	04801004 	movi	r18,64
10006d30:	003ff006 	br	10006cf4 <__alt_data_end+0xf8006cf4>
10006d34:	81000a17 	ldw	r4,40(r16)
10006d38:	00c40074 	movhi	r3,4097
10006d3c:	18e46a04 	addi	r3,r3,-28248
10006d40:	20ffc01e 	bne	r4,r3,10006c44 <__alt_data_end+0xf8006c44>
10006d44:	8080030b 	ldhu	r2,12(r16)
10006d48:	00c10004 	movi	r3,1024
10006d4c:	80c01315 	stw	r3,76(r16)
10006d50:	10c4b03a 	or	r2,r2,r3
10006d54:	8080030d 	sth	r2,12(r16)
10006d58:	003fcb06 	br	10006c88 <__alt_data_end+0xf8006c88>
10006d5c:	8080030b 	ldhu	r2,12(r16)
10006d60:	10c0800c 	andi	r3,r2,512
10006d64:	18ffffcc 	andi	r3,r3,65535
10006d68:	18e0001c 	xori	r3,r3,32768
10006d6c:	18e00004 	addi	r3,r3,-32768
10006d70:	183fd31e 	bne	r3,zero,10006cc0 <__alt_data_end+0xf8006cc0>
10006d74:	10800094 	ori	r2,r2,2
10006d78:	80c010c4 	addi	r3,r16,67
10006d7c:	8080030d 	sth	r2,12(r16)
10006d80:	00800044 	movi	r2,1
10006d84:	80c00015 	stw	r3,0(r16)
10006d88:	80c00415 	stw	r3,16(r16)
10006d8c:	80800515 	stw	r2,20(r16)
10006d90:	003fcb06 	br	10006cc0 <__alt_data_end+0xf8006cc0>

10006d94 <_malloc_r>:
10006d94:	defff604 	addi	sp,sp,-40
10006d98:	dc800215 	stw	r18,8(sp)
10006d9c:	dfc00915 	stw	ra,36(sp)
10006da0:	df000815 	stw	fp,32(sp)
10006da4:	ddc00715 	stw	r23,28(sp)
10006da8:	dd800615 	stw	r22,24(sp)
10006dac:	dd400515 	stw	r21,20(sp)
10006db0:	dd000415 	stw	r20,16(sp)
10006db4:	dcc00315 	stw	r19,12(sp)
10006db8:	dc400115 	stw	r17,4(sp)
10006dbc:	dc000015 	stw	r16,0(sp)
10006dc0:	288002c4 	addi	r2,r5,11
10006dc4:	00c00584 	movi	r3,22
10006dc8:	2025883a 	mov	r18,r4
10006dcc:	18802b2e 	bgeu	r3,r2,10006e7c <_malloc_r+0xe8>
10006dd0:	047ffe04 	movi	r17,-8
10006dd4:	1462703a 	and	r17,r2,r17
10006dd8:	88002a16 	blt	r17,zero,10006e84 <_malloc_r+0xf0>
10006ddc:	89402936 	bltu	r17,r5,10006e84 <_malloc_r+0xf0>
10006de0:	9009883a 	mov	r4,r18
10006de4:	000be400 	call	1000be40 <__malloc_lock>
10006de8:	00807dc4 	movi	r2,503
10006dec:	14402936 	bltu	r2,r17,10006e94 <_malloc_r+0x100>
10006df0:	8808d0fa 	srli	r4,r17,3
10006df4:	04c40074 	movhi	r19,4097
10006df8:	9cfbd604 	addi	r19,r19,-4264
10006dfc:	2105883a 	add	r2,r4,r4
10006e00:	1085883a 	add	r2,r2,r2
10006e04:	1085883a 	add	r2,r2,r2
10006e08:	9885883a 	add	r2,r19,r2
10006e0c:	14000317 	ldw	r16,12(r2)
10006e10:	80815526 	beq	r16,r2,10007368 <_malloc_r+0x5d4>
10006e14:	81000117 	ldw	r4,4(r16)
10006e18:	00bfff04 	movi	r2,-4
10006e1c:	80c00317 	ldw	r3,12(r16)
10006e20:	2084703a 	and	r2,r4,r2
10006e24:	8085883a 	add	r2,r16,r2
10006e28:	11800117 	ldw	r6,4(r2)
10006e2c:	81400217 	ldw	r5,8(r16)
10006e30:	9009883a 	mov	r4,r18
10006e34:	31800054 	ori	r6,r6,1
10006e38:	11800115 	stw	r6,4(r2)
10006e3c:	28c00315 	stw	r3,12(r5)
10006e40:	19400215 	stw	r5,8(r3)
10006e44:	000be600 	call	1000be60 <__malloc_unlock>
10006e48:	80800204 	addi	r2,r16,8
10006e4c:	dfc00917 	ldw	ra,36(sp)
10006e50:	df000817 	ldw	fp,32(sp)
10006e54:	ddc00717 	ldw	r23,28(sp)
10006e58:	dd800617 	ldw	r22,24(sp)
10006e5c:	dd400517 	ldw	r21,20(sp)
10006e60:	dd000417 	ldw	r20,16(sp)
10006e64:	dcc00317 	ldw	r19,12(sp)
10006e68:	dc800217 	ldw	r18,8(sp)
10006e6c:	dc400117 	ldw	r17,4(sp)
10006e70:	dc000017 	ldw	r16,0(sp)
10006e74:	dec00a04 	addi	sp,sp,40
10006e78:	f800283a 	ret
10006e7c:	04400404 	movi	r17,16
10006e80:	897fd72e 	bgeu	r17,r5,10006de0 <__alt_data_end+0xf8006de0>
10006e84:	00800304 	movi	r2,12
10006e88:	90800015 	stw	r2,0(r18)
10006e8c:	0005883a 	mov	r2,zero
10006e90:	003fee06 	br	10006e4c <__alt_data_end+0xf8006e4c>
10006e94:	8808d27a 	srli	r4,r17,9
10006e98:	20007126 	beq	r4,zero,10007060 <_malloc_r+0x2cc>
10006e9c:	00800104 	movi	r2,4
10006ea0:	1100eb36 	bltu	r2,r4,10007250 <_malloc_r+0x4bc>
10006ea4:	8808d1ba 	srli	r4,r17,6
10006ea8:	21000e04 	addi	r4,r4,56
10006eac:	210b883a 	add	r5,r4,r4
10006eb0:	294b883a 	add	r5,r5,r5
10006eb4:	294b883a 	add	r5,r5,r5
10006eb8:	04c40074 	movhi	r19,4097
10006ebc:	9cfbd604 	addi	r19,r19,-4264
10006ec0:	994b883a 	add	r5,r19,r5
10006ec4:	2c000317 	ldw	r16,12(r5)
10006ec8:	2c000e26 	beq	r5,r16,10006f04 <_malloc_r+0x170>
10006ecc:	80c00117 	ldw	r3,4(r16)
10006ed0:	01ffff04 	movi	r7,-4
10006ed4:	018003c4 	movi	r6,15
10006ed8:	19c6703a 	and	r3,r3,r7
10006edc:	1c45c83a 	sub	r2,r3,r17
10006ee0:	30800716 	blt	r6,r2,10006f00 <_malloc_r+0x16c>
10006ee4:	1000610e 	bge	r2,zero,1000706c <_malloc_r+0x2d8>
10006ee8:	84000317 	ldw	r16,12(r16)
10006eec:	2c000526 	beq	r5,r16,10006f04 <_malloc_r+0x170>
10006ef0:	80c00117 	ldw	r3,4(r16)
10006ef4:	19c6703a 	and	r3,r3,r7
10006ef8:	1c45c83a 	sub	r2,r3,r17
10006efc:	30bff90e 	bge	r6,r2,10006ee4 <__alt_data_end+0xf8006ee4>
10006f00:	213fffc4 	addi	r4,r4,-1
10006f04:	21000044 	addi	r4,r4,1
10006f08:	9c000417 	ldw	r16,16(r19)
10006f0c:	00c40074 	movhi	r3,4097
10006f10:	18fbd604 	addi	r3,r3,-4264
10006f14:	1a400204 	addi	r9,r3,8
10006f18:	8240ff26 	beq	r16,r9,10007318 <_malloc_r+0x584>
10006f1c:	81400117 	ldw	r5,4(r16)
10006f20:	00bfff04 	movi	r2,-4
10006f24:	018003c4 	movi	r6,15
10006f28:	2884703a 	and	r2,r5,r2
10006f2c:	144bc83a 	sub	r5,r2,r17
10006f30:	3140ea16 	blt	r6,r5,100072dc <_malloc_r+0x548>
10006f34:	1a400515 	stw	r9,20(r3)
10006f38:	1a400415 	stw	r9,16(r3)
10006f3c:	2800570e 	bge	r5,zero,1000709c <_malloc_r+0x308>
10006f40:	01407fc4 	movi	r5,511
10006f44:	2880ca36 	bltu	r5,r2,10007270 <_malloc_r+0x4dc>
10006f48:	1004d0fa 	srli	r2,r2,3
10006f4c:	02000044 	movi	r8,1
10006f50:	19c00117 	ldw	r7,4(r3)
10006f54:	108b883a 	add	r5,r2,r2
10006f58:	294b883a 	add	r5,r5,r5
10006f5c:	1005d0ba 	srai	r2,r2,2
10006f60:	294b883a 	add	r5,r5,r5
10006f64:	28cb883a 	add	r5,r5,r3
10006f68:	29800217 	ldw	r6,8(r5)
10006f6c:	4084983a 	sll	r2,r8,r2
10006f70:	81400315 	stw	r5,12(r16)
10006f74:	81800215 	stw	r6,8(r16)
10006f78:	11c4b03a 	or	r2,r2,r7
10006f7c:	18800115 	stw	r2,4(r3)
10006f80:	2c000215 	stw	r16,8(r5)
10006f84:	34000315 	stw	r16,12(r6)
10006f88:	200bd0ba 	srai	r5,r4,2
10006f8c:	00c00044 	movi	r3,1
10006f90:	194a983a 	sll	r5,r3,r5
10006f94:	11404936 	bltu	r2,r5,100070bc <_malloc_r+0x328>
10006f98:	1146703a 	and	r3,r2,r5
10006f9c:	18000a1e 	bne	r3,zero,10006fc8 <_malloc_r+0x234>
10006fa0:	00ffff04 	movi	r3,-4
10006fa4:	294b883a 	add	r5,r5,r5
10006fa8:	20c8703a 	and	r4,r4,r3
10006fac:	1146703a 	and	r3,r2,r5
10006fb0:	21000104 	addi	r4,r4,4
10006fb4:	1800041e 	bne	r3,zero,10006fc8 <_malloc_r+0x234>
10006fb8:	294b883a 	add	r5,r5,r5
10006fbc:	1146703a 	and	r3,r2,r5
10006fc0:	21000104 	addi	r4,r4,4
10006fc4:	183ffc26 	beq	r3,zero,10006fb8 <__alt_data_end+0xf8006fb8>
10006fc8:	023fff04 	movi	r8,-4
10006fcc:	01c003c4 	movi	r7,15
10006fd0:	2105883a 	add	r2,r4,r4
10006fd4:	1085883a 	add	r2,r2,r2
10006fd8:	1085883a 	add	r2,r2,r2
10006fdc:	9899883a 	add	r12,r19,r2
10006fe0:	62800304 	addi	r10,r12,12
10006fe4:	2017883a 	mov	r11,r4
10006fe8:	54000017 	ldw	r16,0(r10)
10006fec:	51bffd04 	addi	r6,r10,-12
10006ff0:	8180041e 	bne	r16,r6,10007004 <_malloc_r+0x270>
10006ff4:	0000ca06 	br	10007320 <_malloc_r+0x58c>
10006ff8:	10001c0e 	bge	r2,zero,1000706c <_malloc_r+0x2d8>
10006ffc:	84000317 	ldw	r16,12(r16)
10007000:	8180c726 	beq	r16,r6,10007320 <_malloc_r+0x58c>
10007004:	80c00117 	ldw	r3,4(r16)
10007008:	1a06703a 	and	r3,r3,r8
1000700c:	1c45c83a 	sub	r2,r3,r17
10007010:	38bff90e 	bge	r7,r2,10006ff8 <__alt_data_end+0xf8006ff8>
10007014:	81000317 	ldw	r4,12(r16)
10007018:	81400217 	ldw	r5,8(r16)
1000701c:	8447883a 	add	r3,r16,r17
10007020:	8c400054 	ori	r17,r17,1
10007024:	29000315 	stw	r4,12(r5)
10007028:	21400215 	stw	r5,8(r4)
1000702c:	84400115 	stw	r17,4(r16)
10007030:	1889883a 	add	r4,r3,r2
10007034:	11400054 	ori	r5,r2,1
10007038:	98c00515 	stw	r3,20(r19)
1000703c:	98c00415 	stw	r3,16(r19)
10007040:	20800015 	stw	r2,0(r4)
10007044:	1a400315 	stw	r9,12(r3)
10007048:	1a400215 	stw	r9,8(r3)
1000704c:	19400115 	stw	r5,4(r3)
10007050:	9009883a 	mov	r4,r18
10007054:	000be600 	call	1000be60 <__malloc_unlock>
10007058:	80800204 	addi	r2,r16,8
1000705c:	003f7b06 	br	10006e4c <__alt_data_end+0xf8006e4c>
10007060:	8808d0fa 	srli	r4,r17,3
10007064:	210b883a 	add	r5,r4,r4
10007068:	003f9106 	br	10006eb0 <__alt_data_end+0xf8006eb0>
1000706c:	80c7883a 	add	r3,r16,r3
10007070:	19400117 	ldw	r5,4(r3)
10007074:	80800317 	ldw	r2,12(r16)
10007078:	81000217 	ldw	r4,8(r16)
1000707c:	29400054 	ori	r5,r5,1
10007080:	19400115 	stw	r5,4(r3)
10007084:	20800315 	stw	r2,12(r4)
10007088:	11000215 	stw	r4,8(r2)
1000708c:	9009883a 	mov	r4,r18
10007090:	000be600 	call	1000be60 <__malloc_unlock>
10007094:	80800204 	addi	r2,r16,8
10007098:	003f6c06 	br	10006e4c <__alt_data_end+0xf8006e4c>
1000709c:	8085883a 	add	r2,r16,r2
100070a0:	10c00117 	ldw	r3,4(r2)
100070a4:	9009883a 	mov	r4,r18
100070a8:	18c00054 	ori	r3,r3,1
100070ac:	10c00115 	stw	r3,4(r2)
100070b0:	000be600 	call	1000be60 <__malloc_unlock>
100070b4:	80800204 	addi	r2,r16,8
100070b8:	003f6406 	br	10006e4c <__alt_data_end+0xf8006e4c>
100070bc:	9c000217 	ldw	r16,8(r19)
100070c0:	00bfff04 	movi	r2,-4
100070c4:	85400117 	ldw	r21,4(r16)
100070c8:	a8aa703a 	and	r21,r21,r2
100070cc:	ac400336 	bltu	r21,r17,100070dc <_malloc_r+0x348>
100070d0:	ac45c83a 	sub	r2,r21,r17
100070d4:	00c003c4 	movi	r3,15
100070d8:	18805316 	blt	r3,r2,10007228 <_malloc_r+0x494>
100070dc:	d5e6ab17 	ldw	r23,-25940(gp)
100070e0:	d0e00317 	ldw	r3,-32756(gp)
100070e4:	00bfffc4 	movi	r2,-1
100070e8:	8579883a 	add	fp,r16,r21
100070ec:	8def883a 	add	r23,r17,r23
100070f0:	1880d226 	beq	r3,r2,1000743c <_malloc_r+0x6a8>
100070f4:	bdc403c4 	addi	r23,r23,4111
100070f8:	00bc0004 	movi	r2,-4096
100070fc:	b8ae703a 	and	r23,r23,r2
10007100:	9009883a 	mov	r4,r18
10007104:	b80b883a 	mov	r5,r23
10007108:	00090680 	call	10009068 <_sbrk_r>
1000710c:	1029883a 	mov	r20,r2
10007110:	00bfffc4 	movi	r2,-1
10007114:	a080d126 	beq	r20,r2,1000745c <_malloc_r+0x6c8>
10007118:	a7009f36 	bltu	r20,fp,10007398 <_malloc_r+0x604>
1000711c:	05840074 	movhi	r22,4097
10007120:	b5880d04 	addi	r22,r22,8244
10007124:	b0800017 	ldw	r2,0(r22)
10007128:	b885883a 	add	r2,r23,r2
1000712c:	b0800015 	stw	r2,0(r22)
10007130:	e500cf26 	beq	fp,r20,10007470 <_malloc_r+0x6dc>
10007134:	d1200317 	ldw	r4,-32756(gp)
10007138:	00ffffc4 	movi	r3,-1
1000713c:	20c0e026 	beq	r4,r3,100074c0 <_malloc_r+0x72c>
10007140:	a739c83a 	sub	fp,r20,fp
10007144:	1705883a 	add	r2,r2,fp
10007148:	b0800015 	stw	r2,0(r22)
1000714c:	a08001cc 	andi	r2,r20,7
10007150:	1000a526 	beq	r2,zero,100073e8 <_malloc_r+0x654>
10007154:	a0a9c83a 	sub	r20,r20,r2
10007158:	00c40204 	movi	r3,4104
1000715c:	a5000204 	addi	r20,r20,8
10007160:	1885c83a 	sub	r2,r3,r2
10007164:	a5c7883a 	add	r3,r20,r23
10007168:	18c3ffcc 	andi	r3,r3,4095
1000716c:	10efc83a 	sub	r23,r2,r3
10007170:	9009883a 	mov	r4,r18
10007174:	b80b883a 	mov	r5,r23
10007178:	00090680 	call	10009068 <_sbrk_r>
1000717c:	00ffffc4 	movi	r3,-1
10007180:	10c0cc26 	beq	r2,r3,100074b4 <_malloc_r+0x720>
10007184:	1505c83a 	sub	r2,r2,r20
10007188:	b887883a 	add	r3,r23,r2
1000718c:	18c00054 	ori	r3,r3,1
10007190:	b0800017 	ldw	r2,0(r22)
10007194:	9d000215 	stw	r20,8(r19)
10007198:	a0c00115 	stw	r3,4(r20)
1000719c:	b885883a 	add	r2,r23,r2
100071a0:	b0800015 	stw	r2,0(r22)
100071a4:	84c00e26 	beq	r16,r19,100071e0 <_malloc_r+0x44c>
100071a8:	00c003c4 	movi	r3,15
100071ac:	1d40902e 	bgeu	r3,r21,100073f0 <_malloc_r+0x65c>
100071b0:	ad7ffd04 	addi	r21,r21,-12
100071b4:	013ffe04 	movi	r4,-8
100071b8:	a908703a 	and	r4,r21,r4
100071bc:	810b883a 	add	r5,r16,r4
100071c0:	01800144 	movi	r6,5
100071c4:	29800115 	stw	r6,4(r5)
100071c8:	29800215 	stw	r6,8(r5)
100071cc:	81400117 	ldw	r5,4(r16)
100071d0:	2940004c 	andi	r5,r5,1
100071d4:	214ab03a 	or	r5,r4,r5
100071d8:	81400115 	stw	r5,4(r16)
100071dc:	1900ae36 	bltu	r3,r4,10007498 <_malloc_r+0x704>
100071e0:	d0e6aa17 	ldw	r3,-25944(gp)
100071e4:	1880012e 	bgeu	r3,r2,100071ec <_malloc_r+0x458>
100071e8:	d0a6aa15 	stw	r2,-25944(gp)
100071ec:	d0e6a917 	ldw	r3,-25948(gp)
100071f0:	9c000217 	ldw	r16,8(r19)
100071f4:	1880012e 	bgeu	r3,r2,100071fc <_malloc_r+0x468>
100071f8:	d0a6a915 	stw	r2,-25948(gp)
100071fc:	80c00117 	ldw	r3,4(r16)
10007200:	00bfff04 	movi	r2,-4
10007204:	1886703a 	and	r3,r3,r2
10007208:	1c45c83a 	sub	r2,r3,r17
1000720c:	1c400236 	bltu	r3,r17,10007218 <_malloc_r+0x484>
10007210:	00c003c4 	movi	r3,15
10007214:	18800416 	blt	r3,r2,10007228 <_malloc_r+0x494>
10007218:	9009883a 	mov	r4,r18
1000721c:	000be600 	call	1000be60 <__malloc_unlock>
10007220:	0005883a 	mov	r2,zero
10007224:	003f0906 	br	10006e4c <__alt_data_end+0xf8006e4c>
10007228:	88c00054 	ori	r3,r17,1
1000722c:	10800054 	ori	r2,r2,1
10007230:	80c00115 	stw	r3,4(r16)
10007234:	8463883a 	add	r17,r16,r17
10007238:	88800115 	stw	r2,4(r17)
1000723c:	9009883a 	mov	r4,r18
10007240:	9c400215 	stw	r17,8(r19)
10007244:	000be600 	call	1000be60 <__malloc_unlock>
10007248:	80800204 	addi	r2,r16,8
1000724c:	003eff06 	br	10006e4c <__alt_data_end+0xf8006e4c>
10007250:	00800504 	movi	r2,20
10007254:	1100492e 	bgeu	r2,r4,1000737c <_malloc_r+0x5e8>
10007258:	00801504 	movi	r2,84
1000725c:	11005c36 	bltu	r2,r4,100073d0 <_malloc_r+0x63c>
10007260:	8808d33a 	srli	r4,r17,12
10007264:	21001b84 	addi	r4,r4,110
10007268:	210b883a 	add	r5,r4,r4
1000726c:	003f1006 	br	10006eb0 <__alt_data_end+0xf8006eb0>
10007270:	1006d27a 	srli	r3,r2,9
10007274:	01400104 	movi	r5,4
10007278:	28c0432e 	bgeu	r5,r3,10007388 <_malloc_r+0x5f4>
1000727c:	01400504 	movi	r5,20
10007280:	28c07036 	bltu	r5,r3,10007444 <_malloc_r+0x6b0>
10007284:	194016c4 	addi	r5,r3,91
10007288:	294d883a 	add	r6,r5,r5
1000728c:	318d883a 	add	r6,r6,r6
10007290:	318d883a 	add	r6,r6,r6
10007294:	998d883a 	add	r6,r19,r6
10007298:	30c00217 	ldw	r3,8(r6)
1000729c:	01c40074 	movhi	r7,4097
100072a0:	39fbd604 	addi	r7,r7,-4264
100072a4:	19805726 	beq	r3,r6,10007404 <_malloc_r+0x670>
100072a8:	01ffff04 	movi	r7,-4
100072ac:	19400117 	ldw	r5,4(r3)
100072b0:	29ca703a 	and	r5,r5,r7
100072b4:	1140022e 	bgeu	r2,r5,100072c0 <_malloc_r+0x52c>
100072b8:	18c00217 	ldw	r3,8(r3)
100072bc:	30fffb1e 	bne	r6,r3,100072ac <__alt_data_end+0xf80072ac>
100072c0:	19400317 	ldw	r5,12(r3)
100072c4:	98800117 	ldw	r2,4(r19)
100072c8:	81400315 	stw	r5,12(r16)
100072cc:	80c00215 	stw	r3,8(r16)
100072d0:	2c000215 	stw	r16,8(r5)
100072d4:	1c000315 	stw	r16,12(r3)
100072d8:	003f2b06 	br	10006f88 <__alt_data_end+0xf8006f88>
100072dc:	8445883a 	add	r2,r16,r17
100072e0:	8c400054 	ori	r17,r17,1
100072e4:	18800515 	stw	r2,20(r3)
100072e8:	18800415 	stw	r2,16(r3)
100072ec:	29000054 	ori	r4,r5,1
100072f0:	1147883a 	add	r3,r2,r5
100072f4:	84400115 	stw	r17,4(r16)
100072f8:	11000115 	stw	r4,4(r2)
100072fc:	12400315 	stw	r9,12(r2)
10007300:	12400215 	stw	r9,8(r2)
10007304:	19400015 	stw	r5,0(r3)
10007308:	9009883a 	mov	r4,r18
1000730c:	000be600 	call	1000be60 <__malloc_unlock>
10007310:	80800204 	addi	r2,r16,8
10007314:	003ecd06 	br	10006e4c <__alt_data_end+0xf8006e4c>
10007318:	18800117 	ldw	r2,4(r3)
1000731c:	003f1a06 	br	10006f88 <__alt_data_end+0xf8006f88>
10007320:	5ac00044 	addi	r11,r11,1
10007324:	588000cc 	andi	r2,r11,3
10007328:	52800204 	addi	r10,r10,8
1000732c:	103f2e1e 	bne	r2,zero,10006fe8 <__alt_data_end+0xf8006fe8>
10007330:	20c000cc 	andi	r3,r4,3
10007334:	60bffe04 	addi	r2,r12,-8
10007338:	18006f26 	beq	r3,zero,100074f8 <_malloc_r+0x764>
1000733c:	63000017 	ldw	r12,0(r12)
10007340:	213fffc4 	addi	r4,r4,-1
10007344:	60bffa26 	beq	r12,r2,10007330 <__alt_data_end+0xf8007330>
10007348:	98800117 	ldw	r2,4(r19)
1000734c:	294b883a 	add	r5,r5,r5
10007350:	117f5a36 	bltu	r2,r5,100070bc <__alt_data_end+0xf80070bc>
10007354:	283f5926 	beq	r5,zero,100070bc <__alt_data_end+0xf80070bc>
10007358:	1146703a 	and	r3,r2,r5
1000735c:	18001626 	beq	r3,zero,100073b8 <_malloc_r+0x624>
10007360:	5809883a 	mov	r4,r11
10007364:	003f1a06 	br	10006fd0 <__alt_data_end+0xf8006fd0>
10007368:	80800204 	addi	r2,r16,8
1000736c:	84000517 	ldw	r16,20(r16)
10007370:	143ea81e 	bne	r2,r16,10006e14 <__alt_data_end+0xf8006e14>
10007374:	21000084 	addi	r4,r4,2
10007378:	003ee306 	br	10006f08 <__alt_data_end+0xf8006f08>
1000737c:	210016c4 	addi	r4,r4,91
10007380:	210b883a 	add	r5,r4,r4
10007384:	003eca06 	br	10006eb0 <__alt_data_end+0xf8006eb0>
10007388:	100ad1ba 	srli	r5,r2,6
1000738c:	29400e04 	addi	r5,r5,56
10007390:	294d883a 	add	r6,r5,r5
10007394:	003fbd06 	br	1000728c <__alt_data_end+0xf800728c>
10007398:	84ff6026 	beq	r16,r19,1000711c <__alt_data_end+0xf800711c>
1000739c:	00840074 	movhi	r2,4097
100073a0:	10bbd604 	addi	r2,r2,-4264
100073a4:	14000217 	ldw	r16,8(r2)
100073a8:	00bfff04 	movi	r2,-4
100073ac:	80c00117 	ldw	r3,4(r16)
100073b0:	1886703a 	and	r3,r3,r2
100073b4:	003f9406 	br	10007208 <__alt_data_end+0xf8007208>
100073b8:	294b883a 	add	r5,r5,r5
100073bc:	1146703a 	and	r3,r2,r5
100073c0:	5ac00104 	addi	r11,r11,4
100073c4:	183ffc26 	beq	r3,zero,100073b8 <__alt_data_end+0xf80073b8>
100073c8:	5809883a 	mov	r4,r11
100073cc:	003f0006 	br	10006fd0 <__alt_data_end+0xf8006fd0>
100073d0:	00805504 	movi	r2,340
100073d4:	11001336 	bltu	r2,r4,10007424 <_malloc_r+0x690>
100073d8:	8808d3fa 	srli	r4,r17,15
100073dc:	21001dc4 	addi	r4,r4,119
100073e0:	210b883a 	add	r5,r4,r4
100073e4:	003eb206 	br	10006eb0 <__alt_data_end+0xf8006eb0>
100073e8:	00840004 	movi	r2,4096
100073ec:	003f5d06 	br	10007164 <__alt_data_end+0xf8007164>
100073f0:	00800044 	movi	r2,1
100073f4:	a0800115 	stw	r2,4(r20)
100073f8:	a021883a 	mov	r16,r20
100073fc:	0007883a 	mov	r3,zero
10007400:	003f8106 	br	10007208 <__alt_data_end+0xf8007208>
10007404:	280bd0ba 	srai	r5,r5,2
10007408:	01800044 	movi	r6,1
1000740c:	38800117 	ldw	r2,4(r7)
10007410:	314c983a 	sll	r6,r6,r5
10007414:	180b883a 	mov	r5,r3
10007418:	3084b03a 	or	r2,r6,r2
1000741c:	38800115 	stw	r2,4(r7)
10007420:	003fa906 	br	100072c8 <__alt_data_end+0xf80072c8>
10007424:	00815504 	movi	r2,1364
10007428:	11001836 	bltu	r2,r4,1000748c <_malloc_r+0x6f8>
1000742c:	8808d4ba 	srli	r4,r17,18
10007430:	21001f04 	addi	r4,r4,124
10007434:	210b883a 	add	r5,r4,r4
10007438:	003e9d06 	br	10006eb0 <__alt_data_end+0xf8006eb0>
1000743c:	bdc00404 	addi	r23,r23,16
10007440:	003f2f06 	br	10007100 <__alt_data_end+0xf8007100>
10007444:	01401504 	movi	r5,84
10007448:	28c01f36 	bltu	r5,r3,100074c8 <_malloc_r+0x734>
1000744c:	100ad33a 	srli	r5,r2,12
10007450:	29401b84 	addi	r5,r5,110
10007454:	294d883a 	add	r6,r5,r5
10007458:	003f8c06 	br	1000728c <__alt_data_end+0xf800728c>
1000745c:	9c000217 	ldw	r16,8(r19)
10007460:	00bfff04 	movi	r2,-4
10007464:	80c00117 	ldw	r3,4(r16)
10007468:	1886703a 	and	r3,r3,r2
1000746c:	003f6606 	br	10007208 <__alt_data_end+0xf8007208>
10007470:	e0c3ffcc 	andi	r3,fp,4095
10007474:	183f2f1e 	bne	r3,zero,10007134 <__alt_data_end+0xf8007134>
10007478:	98c00217 	ldw	r3,8(r19)
1000747c:	bd49883a 	add	r4,r23,r21
10007480:	21000054 	ori	r4,r4,1
10007484:	19000115 	stw	r4,4(r3)
10007488:	003f5506 	br	100071e0 <__alt_data_end+0xf80071e0>
1000748c:	01403f04 	movi	r5,252
10007490:	01001f84 	movi	r4,126
10007494:	003e8606 	br	10006eb0 <__alt_data_end+0xf8006eb0>
10007498:	9009883a 	mov	r4,r18
1000749c:	81400204 	addi	r5,r16,8
100074a0:	00061fc0 	call	100061fc <_free_r>
100074a4:	00840074 	movhi	r2,4097
100074a8:	10880d04 	addi	r2,r2,8244
100074ac:	10800017 	ldw	r2,0(r2)
100074b0:	003f4b06 	br	100071e0 <__alt_data_end+0xf80071e0>
100074b4:	00c00044 	movi	r3,1
100074b8:	002f883a 	mov	r23,zero
100074bc:	003f3406 	br	10007190 <__alt_data_end+0xf8007190>
100074c0:	d5200315 	stw	r20,-32756(gp)
100074c4:	003f2106 	br	1000714c <__alt_data_end+0xf800714c>
100074c8:	01405504 	movi	r5,340
100074cc:	28c00436 	bltu	r5,r3,100074e0 <_malloc_r+0x74c>
100074d0:	100ad3fa 	srli	r5,r2,15
100074d4:	29401dc4 	addi	r5,r5,119
100074d8:	294d883a 	add	r6,r5,r5
100074dc:	003f6b06 	br	1000728c <__alt_data_end+0xf800728c>
100074e0:	01415504 	movi	r5,1364
100074e4:	28c00936 	bltu	r5,r3,1000750c <_malloc_r+0x778>
100074e8:	100ad4ba 	srli	r5,r2,18
100074ec:	29401f04 	addi	r5,r5,124
100074f0:	294d883a 	add	r6,r5,r5
100074f4:	003f6506 	br	1000728c <__alt_data_end+0xf800728c>
100074f8:	98800117 	ldw	r2,4(r19)
100074fc:	0146303a 	nor	r3,zero,r5
10007500:	1884703a 	and	r2,r3,r2
10007504:	98800115 	stw	r2,4(r19)
10007508:	003f9006 	br	1000734c <__alt_data_end+0xf800734c>
1000750c:	01803f04 	movi	r6,252
10007510:	01401f84 	movi	r5,126
10007514:	003f5d06 	br	1000728c <__alt_data_end+0xf800728c>

10007518 <memchr>:
10007518:	008000c4 	movi	r2,3
1000751c:	29403fcc 	andi	r5,r5,255
10007520:	1180282e 	bgeu	r2,r6,100075c4 <memchr+0xac>
10007524:	2086703a 	and	r3,r4,r2
10007528:	1800351e 	bne	r3,zero,10007600 <memchr+0xe8>
1000752c:	2816923a 	slli	r11,r5,8
10007530:	2093883a 	add	r9,r4,r2
10007534:	22000084 	addi	r8,r4,2
10007538:	5957883a 	add	r11,r11,r5
1000753c:	5816923a 	slli	r11,r11,8
10007540:	20c00044 	addi	r3,r4,1
10007544:	037fbff4 	movhi	r13,65279
10007548:	6b7fbfc4 	addi	r13,r13,-257
1000754c:	5957883a 	add	r11,r11,r5
10007550:	5816923a 	slli	r11,r11,8
10007554:	03202074 	movhi	r12,32897
10007558:	63202004 	addi	r12,r12,-32640
1000755c:	101d883a 	mov	r14,r2
10007560:	5957883a 	add	r11,r11,r5
10007564:	21c00017 	ldw	r7,0(r4)
10007568:	31bfff04 	addi	r6,r6,-4
1000756c:	1805883a 	mov	r2,r3
10007570:	3acef03a 	xor	r7,r7,r11
10007574:	3b55883a 	add	r10,r7,r13
10007578:	01ce303a 	nor	r7,zero,r7
1000757c:	51ce703a 	and	r7,r10,r7
10007580:	3b0e703a 	and	r7,r7,r12
10007584:	38000a26 	beq	r7,zero,100075b0 <memchr+0x98>
10007588:	21c00003 	ldbu	r7,0(r4)
1000758c:	39401e26 	beq	r7,r5,10007608 <memchr+0xf0>
10007590:	19c00003 	ldbu	r7,0(r3)
10007594:	39401926 	beq	r7,r5,100075fc <memchr+0xe4>
10007598:	41c00003 	ldbu	r7,0(r8)
1000759c:	4005883a 	mov	r2,r8
100075a0:	39401626 	beq	r7,r5,100075fc <memchr+0xe4>
100075a4:	49c00003 	ldbu	r7,0(r9)
100075a8:	4805883a 	mov	r2,r9
100075ac:	39401326 	beq	r7,r5,100075fc <memchr+0xe4>
100075b0:	21000104 	addi	r4,r4,4
100075b4:	4a400104 	addi	r9,r9,4
100075b8:	42000104 	addi	r8,r8,4
100075bc:	18c00104 	addi	r3,r3,4
100075c0:	71bfe836 	bltu	r14,r6,10007564 <__alt_data_end+0xf8007564>
100075c4:	2005883a 	mov	r2,r4
100075c8:	30000a26 	beq	r6,zero,100075f4 <memchr+0xdc>
100075cc:	10c00003 	ldbu	r3,0(r2)
100075d0:	19400a26 	beq	r3,r5,100075fc <memchr+0xe4>
100075d4:	10c00044 	addi	r3,r2,1
100075d8:	118d883a 	add	r6,r2,r6
100075dc:	00000306 	br	100075ec <memchr+0xd4>
100075e0:	11000003 	ldbu	r4,0(r2)
100075e4:	18c00044 	addi	r3,r3,1
100075e8:	21400426 	beq	r4,r5,100075fc <memchr+0xe4>
100075ec:	1805883a 	mov	r2,r3
100075f0:	19bffb1e 	bne	r3,r6,100075e0 <__alt_data_end+0xf80075e0>
100075f4:	0005883a 	mov	r2,zero
100075f8:	f800283a 	ret
100075fc:	f800283a 	ret
10007600:	2005883a 	mov	r2,r4
10007604:	003ff106 	br	100075cc <__alt_data_end+0xf80075cc>
10007608:	2005883a 	mov	r2,r4
1000760c:	f800283a 	ret

10007610 <memcpy>:
10007610:	defffb04 	addi	sp,sp,-20
10007614:	dc000015 	stw	r16,0(sp)
10007618:	dfc00415 	stw	ra,16(sp)
1000761c:	dcc00315 	stw	r19,12(sp)
10007620:	dc800215 	stw	r18,8(sp)
10007624:	dc400115 	stw	r17,4(sp)
10007628:	00c003c4 	movi	r3,15
1000762c:	2021883a 	mov	r16,r4
10007630:	3005883a 	mov	r2,r6
10007634:	1980032e 	bgeu	r3,r6,10007644 <memcpy+0x34>
10007638:	2906b03a 	or	r3,r5,r4
1000763c:	18c000cc 	andi	r3,r3,3
10007640:	18001026 	beq	r3,zero,10007684 <memcpy+0x74>
10007644:	8007883a 	mov	r3,r16
10007648:	288f883a 	add	r7,r5,r2
1000764c:	10000526 	beq	r2,zero,10007664 <memcpy+0x54>
10007650:	29800003 	ldbu	r6,0(r5)
10007654:	18c00044 	addi	r3,r3,1
10007658:	29400044 	addi	r5,r5,1
1000765c:	19bfffc5 	stb	r6,-1(r3)
10007660:	29fffb1e 	bne	r5,r7,10007650 <__alt_data_end+0xf8007650>
10007664:	8005883a 	mov	r2,r16
10007668:	dfc00417 	ldw	ra,16(sp)
1000766c:	dcc00317 	ldw	r19,12(sp)
10007670:	dc800217 	ldw	r18,8(sp)
10007674:	dc400117 	ldw	r17,4(sp)
10007678:	dc000017 	ldw	r16,0(sp)
1000767c:	dec00504 	addi	sp,sp,20
10007680:	f800283a 	ret
10007684:	32bffc04 	addi	r10,r6,-16
10007688:	5014d13a 	srli	r10,r10,4
1000768c:	20800404 	addi	r2,r4,16
10007690:	2007883a 	mov	r3,r4
10007694:	5008913a 	slli	r4,r10,4
10007698:	280f883a 	mov	r7,r5
1000769c:	1105883a 	add	r2,r2,r4
100076a0:	3a000017 	ldw	r8,0(r7)
100076a4:	18c00404 	addi	r3,r3,16
100076a8:	39c00404 	addi	r7,r7,16
100076ac:	1a3ffc15 	stw	r8,-16(r3)
100076b0:	3a3ffd17 	ldw	r8,-12(r7)
100076b4:	1a3ffd15 	stw	r8,-12(r3)
100076b8:	3a3ffe17 	ldw	r8,-8(r7)
100076bc:	1a3ffe15 	stw	r8,-8(r3)
100076c0:	3a3fff17 	ldw	r8,-4(r7)
100076c4:	1a3fff15 	stw	r8,-4(r3)
100076c8:	18bff51e 	bne	r3,r2,100076a0 <__alt_data_end+0xf80076a0>
100076cc:	52800044 	addi	r10,r10,1
100076d0:	5014913a 	slli	r10,r10,4
100076d4:	308003cc 	andi	r2,r6,15
100076d8:	010000c4 	movi	r4,3
100076dc:	8287883a 	add	r3,r16,r10
100076e0:	2a95883a 	add	r10,r5,r10
100076e4:	2080182e 	bgeu	r4,r2,10007748 <memcpy+0x138>
100076e8:	147fff04 	addi	r17,r2,-4
100076ec:	8808d0ba 	srli	r4,r17,2
100076f0:	1a400104 	addi	r9,r3,4
100076f4:	180d883a 	mov	r6,r3
100076f8:	2105883a 	add	r2,r4,r4
100076fc:	1085883a 	add	r2,r2,r2
10007700:	4893883a 	add	r9,r9,r2
10007704:	500f883a 	mov	r7,r10
10007708:	3a000017 	ldw	r8,0(r7)
1000770c:	31800104 	addi	r6,r6,4
10007710:	39c00104 	addi	r7,r7,4
10007714:	323fff15 	stw	r8,-4(r6)
10007718:	327ffb1e 	bne	r6,r9,10007708 <__alt_data_end+0xf8007708>
1000771c:	20800044 	addi	r2,r4,1
10007720:	1085883a 	add	r2,r2,r2
10007724:	1085883a 	add	r2,r2,r2
10007728:	017fff04 	movi	r5,-4
1000772c:	18a5883a 	add	r18,r3,r2
10007730:	50a7883a 	add	r19,r10,r2
10007734:	000b2180 	call	1000b218 <__mulsi3>
10007738:	1445883a 	add	r2,r2,r17
1000773c:	980b883a 	mov	r5,r19
10007740:	9007883a 	mov	r3,r18
10007744:	003fc006 	br	10007648 <__alt_data_end+0xf8007648>
10007748:	500b883a 	mov	r5,r10
1000774c:	003fbe06 	br	10007648 <__alt_data_end+0xf8007648>

10007750 <memmove>:
10007750:	defffb04 	addi	sp,sp,-20
10007754:	dc000015 	stw	r16,0(sp)
10007758:	dfc00415 	stw	ra,16(sp)
1000775c:	dcc00315 	stw	r19,12(sp)
10007760:	dc800215 	stw	r18,8(sp)
10007764:	dc400115 	stw	r17,4(sp)
10007768:	2021883a 	mov	r16,r4
1000776c:	300f883a 	mov	r7,r6
10007770:	2900122e 	bgeu	r5,r4,100077bc <memmove+0x6c>
10007774:	2987883a 	add	r3,r5,r6
10007778:	20c0102e 	bgeu	r4,r3,100077bc <memmove+0x6c>
1000777c:	218b883a 	add	r5,r4,r6
10007780:	1989c83a 	sub	r4,r3,r6
10007784:	30000526 	beq	r6,zero,1000779c <memmove+0x4c>
10007788:	18ffffc4 	addi	r3,r3,-1
1000778c:	18800003 	ldbu	r2,0(r3)
10007790:	297fffc4 	addi	r5,r5,-1
10007794:	28800005 	stb	r2,0(r5)
10007798:	193ffb1e 	bne	r3,r4,10007788 <__alt_data_end+0xf8007788>
1000779c:	8005883a 	mov	r2,r16
100077a0:	dfc00417 	ldw	ra,16(sp)
100077a4:	dcc00317 	ldw	r19,12(sp)
100077a8:	dc800217 	ldw	r18,8(sp)
100077ac:	dc400117 	ldw	r17,4(sp)
100077b0:	dc000017 	ldw	r16,0(sp)
100077b4:	dec00504 	addi	sp,sp,20
100077b8:	f800283a 	ret
100077bc:	008003c4 	movi	r2,15
100077c0:	1180422e 	bgeu	r2,r6,100078cc <memmove+0x17c>
100077c4:	2c04b03a 	or	r2,r5,r16
100077c8:	108000cc 	andi	r2,r2,3
100077cc:	10003f1e 	bne	r2,zero,100078cc <memmove+0x17c>
100077d0:	32bffc04 	addi	r10,r6,-16
100077d4:	5014d13a 	srli	r10,r10,4
100077d8:	81000404 	addi	r4,r16,16
100077dc:	8007883a 	mov	r3,r16
100077e0:	5004913a 	slli	r2,r10,4
100077e4:	280f883a 	mov	r7,r5
100077e8:	2089883a 	add	r4,r4,r2
100077ec:	38800017 	ldw	r2,0(r7)
100077f0:	18c00404 	addi	r3,r3,16
100077f4:	39c00404 	addi	r7,r7,16
100077f8:	18bffc15 	stw	r2,-16(r3)
100077fc:	38bffd17 	ldw	r2,-12(r7)
10007800:	18bffd15 	stw	r2,-12(r3)
10007804:	38bffe17 	ldw	r2,-8(r7)
10007808:	18bffe15 	stw	r2,-8(r3)
1000780c:	38bfff17 	ldw	r2,-4(r7)
10007810:	18bfff15 	stw	r2,-4(r3)
10007814:	193ff51e 	bne	r3,r4,100077ec <__alt_data_end+0xf80077ec>
10007818:	52800044 	addi	r10,r10,1
1000781c:	5014913a 	slli	r10,r10,4
10007820:	31c003cc 	andi	r7,r6,15
10007824:	008000c4 	movi	r2,3
10007828:	8287883a 	add	r3,r16,r10
1000782c:	2a95883a 	add	r10,r5,r10
10007830:	11c0282e 	bgeu	r2,r7,100078d4 <memmove+0x184>
10007834:	3c7fff04 	addi	r17,r7,-4
10007838:	8808d0ba 	srli	r4,r17,2
1000783c:	1a400104 	addi	r9,r3,4
10007840:	180d883a 	mov	r6,r3
10007844:	2105883a 	add	r2,r4,r4
10007848:	1085883a 	add	r2,r2,r2
1000784c:	4893883a 	add	r9,r9,r2
10007850:	5005883a 	mov	r2,r10
10007854:	12000017 	ldw	r8,0(r2)
10007858:	31800104 	addi	r6,r6,4
1000785c:	10800104 	addi	r2,r2,4
10007860:	323fff15 	stw	r8,-4(r6)
10007864:	327ffb1e 	bne	r6,r9,10007854 <__alt_data_end+0xf8007854>
10007868:	20800044 	addi	r2,r4,1
1000786c:	1085883a 	add	r2,r2,r2
10007870:	1085883a 	add	r2,r2,r2
10007874:	017fff04 	movi	r5,-4
10007878:	18a5883a 	add	r18,r3,r2
1000787c:	50a7883a 	add	r19,r10,r2
10007880:	000b2180 	call	1000b218 <__mulsi3>
10007884:	144f883a 	add	r7,r2,r17
10007888:	980b883a 	mov	r5,r19
1000788c:	9007883a 	mov	r3,r18
10007890:	383fc226 	beq	r7,zero,1000779c <__alt_data_end+0xf800779c>
10007894:	19cf883a 	add	r7,r3,r7
10007898:	29800003 	ldbu	r6,0(r5)
1000789c:	18c00044 	addi	r3,r3,1
100078a0:	29400044 	addi	r5,r5,1
100078a4:	19bfffc5 	stb	r6,-1(r3)
100078a8:	19fffb1e 	bne	r3,r7,10007898 <__alt_data_end+0xf8007898>
100078ac:	8005883a 	mov	r2,r16
100078b0:	dfc00417 	ldw	ra,16(sp)
100078b4:	dcc00317 	ldw	r19,12(sp)
100078b8:	dc800217 	ldw	r18,8(sp)
100078bc:	dc400117 	ldw	r17,4(sp)
100078c0:	dc000017 	ldw	r16,0(sp)
100078c4:	dec00504 	addi	sp,sp,20
100078c8:	f800283a 	ret
100078cc:	8007883a 	mov	r3,r16
100078d0:	003fef06 	br	10007890 <__alt_data_end+0xf8007890>
100078d4:	500b883a 	mov	r5,r10
100078d8:	003fed06 	br	10007890 <__alt_data_end+0xf8007890>

100078dc <memset>:
100078dc:	00c000c4 	movi	r3,3
100078e0:	2005883a 	mov	r2,r4
100078e4:	29403fcc 	andi	r5,r5,255
100078e8:	19802d2e 	bgeu	r3,r6,100079a0 <memset+0xc4>
100078ec:	20c6703a 	and	r3,r4,r3
100078f0:	18002e1e 	bne	r3,zero,100079ac <memset+0xd0>
100078f4:	2806923a 	slli	r3,r5,8
100078f8:	010003c4 	movi	r4,15
100078fc:	3011883a 	mov	r8,r6
10007900:	1946b03a 	or	r3,r3,r5
10007904:	180e943a 	slli	r7,r3,16
10007908:	38ceb03a 	or	r7,r7,r3
1000790c:	1007883a 	mov	r3,r2
10007910:	21800f2e 	bgeu	r4,r6,10007950 <memset+0x74>
10007914:	19c00015 	stw	r7,0(r3)
10007918:	19c00115 	stw	r7,4(r3)
1000791c:	19c00215 	stw	r7,8(r3)
10007920:	19c00315 	stw	r7,12(r3)
10007924:	423ffc04 	addi	r8,r8,-16
10007928:	18c00404 	addi	r3,r3,16
1000792c:	223ff936 	bltu	r4,r8,10007914 <__alt_data_end+0xf8007914>
10007930:	30fffc04 	addi	r3,r6,-16
10007934:	1806d13a 	srli	r3,r3,4
10007938:	318003cc 	andi	r6,r6,15
1000793c:	010000c4 	movi	r4,3
10007940:	18c00044 	addi	r3,r3,1
10007944:	1806913a 	slli	r3,r3,4
10007948:	10c7883a 	add	r3,r2,r3
1000794c:	21800e2e 	bgeu	r4,r6,10007988 <memset+0xac>
10007950:	1813883a 	mov	r9,r3
10007954:	3011883a 	mov	r8,r6
10007958:	010000c4 	movi	r4,3
1000795c:	49c00015 	stw	r7,0(r9)
10007960:	423fff04 	addi	r8,r8,-4
10007964:	4a400104 	addi	r9,r9,4
10007968:	223ffc36 	bltu	r4,r8,1000795c <__alt_data_end+0xf800795c>
1000796c:	313fff04 	addi	r4,r6,-4
10007970:	2008d0ba 	srli	r4,r4,2
10007974:	318000cc 	andi	r6,r6,3
10007978:	21000044 	addi	r4,r4,1
1000797c:	2109883a 	add	r4,r4,r4
10007980:	2109883a 	add	r4,r4,r4
10007984:	1907883a 	add	r3,r3,r4
10007988:	30000a26 	beq	r6,zero,100079b4 <memset+0xd8>
1000798c:	198d883a 	add	r6,r3,r6
10007990:	19400005 	stb	r5,0(r3)
10007994:	18c00044 	addi	r3,r3,1
10007998:	19bffd1e 	bne	r3,r6,10007990 <__alt_data_end+0xf8007990>
1000799c:	f800283a 	ret
100079a0:	2007883a 	mov	r3,r4
100079a4:	303ff91e 	bne	r6,zero,1000798c <__alt_data_end+0xf800798c>
100079a8:	00000206 	br	100079b4 <memset+0xd8>
100079ac:	2007883a 	mov	r3,r4
100079b0:	003ff606 	br	1000798c <__alt_data_end+0xf800798c>
100079b4:	f800283a 	ret

100079b8 <_Balloc>:
100079b8:	20801317 	ldw	r2,76(r4)
100079bc:	defffc04 	addi	sp,sp,-16
100079c0:	dc400115 	stw	r17,4(sp)
100079c4:	dc000015 	stw	r16,0(sp)
100079c8:	dfc00315 	stw	ra,12(sp)
100079cc:	dc800215 	stw	r18,8(sp)
100079d0:	2023883a 	mov	r17,r4
100079d4:	2821883a 	mov	r16,r5
100079d8:	10000f26 	beq	r2,zero,10007a18 <_Balloc+0x60>
100079dc:	8407883a 	add	r3,r16,r16
100079e0:	18c7883a 	add	r3,r3,r3
100079e4:	10c7883a 	add	r3,r2,r3
100079e8:	18800017 	ldw	r2,0(r3)
100079ec:	10001126 	beq	r2,zero,10007a34 <_Balloc+0x7c>
100079f0:	11000017 	ldw	r4,0(r2)
100079f4:	19000015 	stw	r4,0(r3)
100079f8:	10000415 	stw	zero,16(r2)
100079fc:	10000315 	stw	zero,12(r2)
10007a00:	dfc00317 	ldw	ra,12(sp)
10007a04:	dc800217 	ldw	r18,8(sp)
10007a08:	dc400117 	ldw	r17,4(sp)
10007a0c:	dc000017 	ldw	r16,0(sp)
10007a10:	dec00404 	addi	sp,sp,16
10007a14:	f800283a 	ret
10007a18:	01400104 	movi	r5,4
10007a1c:	01800404 	movi	r6,16
10007a20:	000931c0 	call	1000931c <_calloc_r>
10007a24:	88801315 	stw	r2,76(r17)
10007a28:	103fec1e 	bne	r2,zero,100079dc <__alt_data_end+0xf80079dc>
10007a2c:	0005883a 	mov	r2,zero
10007a30:	003ff306 	br	10007a00 <__alt_data_end+0xf8007a00>
10007a34:	01400044 	movi	r5,1
10007a38:	2c24983a 	sll	r18,r5,r16
10007a3c:	8809883a 	mov	r4,r17
10007a40:	91800144 	addi	r6,r18,5
10007a44:	318d883a 	add	r6,r6,r6
10007a48:	318d883a 	add	r6,r6,r6
10007a4c:	000931c0 	call	1000931c <_calloc_r>
10007a50:	103ff626 	beq	r2,zero,10007a2c <__alt_data_end+0xf8007a2c>
10007a54:	14000115 	stw	r16,4(r2)
10007a58:	14800215 	stw	r18,8(r2)
10007a5c:	003fe606 	br	100079f8 <__alt_data_end+0xf80079f8>

10007a60 <_Bfree>:
10007a60:	28000826 	beq	r5,zero,10007a84 <_Bfree+0x24>
10007a64:	28c00117 	ldw	r3,4(r5)
10007a68:	20801317 	ldw	r2,76(r4)
10007a6c:	18c7883a 	add	r3,r3,r3
10007a70:	18c7883a 	add	r3,r3,r3
10007a74:	10c5883a 	add	r2,r2,r3
10007a78:	10c00017 	ldw	r3,0(r2)
10007a7c:	28c00015 	stw	r3,0(r5)
10007a80:	11400015 	stw	r5,0(r2)
10007a84:	f800283a 	ret

10007a88 <__multadd>:
10007a88:	defff604 	addi	sp,sp,-40
10007a8c:	dd400515 	stw	r21,20(sp)
10007a90:	2d400417 	ldw	r21,16(r5)
10007a94:	df000815 	stw	fp,32(sp)
10007a98:	ddc00715 	stw	r23,28(sp)
10007a9c:	dd800615 	stw	r22,24(sp)
10007aa0:	dd000415 	stw	r20,16(sp)
10007aa4:	dc400115 	stw	r17,4(sp)
10007aa8:	dc000015 	stw	r16,0(sp)
10007aac:	dfc00915 	stw	ra,36(sp)
10007ab0:	dcc00315 	stw	r19,12(sp)
10007ab4:	dc800215 	stw	r18,8(sp)
10007ab8:	282d883a 	mov	r22,r5
10007abc:	202f883a 	mov	r23,r4
10007ac0:	3029883a 	mov	r20,r6
10007ac4:	3839883a 	mov	fp,r7
10007ac8:	2c000504 	addi	r16,r5,20
10007acc:	0023883a 	mov	r17,zero
10007ad0:	84c00017 	ldw	r19,0(r16)
10007ad4:	a00b883a 	mov	r5,r20
10007ad8:	8c400044 	addi	r17,r17,1
10007adc:	993fffcc 	andi	r4,r19,65535
10007ae0:	000b2180 	call	1000b218 <__mulsi3>
10007ae4:	1725883a 	add	r18,r2,fp
10007ae8:	9808d43a 	srli	r4,r19,16
10007aec:	9026d43a 	srli	r19,r18,16
10007af0:	a00b883a 	mov	r5,r20
10007af4:	000b2180 	call	1000b218 <__mulsi3>
10007af8:	988f883a 	add	r7,r19,r2
10007afc:	3804943a 	slli	r2,r7,16
10007b00:	94bfffcc 	andi	r18,r18,65535
10007b04:	3838d43a 	srli	fp,r7,16
10007b08:	14a5883a 	add	r18,r2,r18
10007b0c:	84800015 	stw	r18,0(r16)
10007b10:	84000104 	addi	r16,r16,4
10007b14:	8d7fee16 	blt	r17,r21,10007ad0 <__alt_data_end+0xf8007ad0>
10007b18:	e0000926 	beq	fp,zero,10007b40 <__multadd+0xb8>
10007b1c:	b0800217 	ldw	r2,8(r22)
10007b20:	a880140e 	bge	r21,r2,10007b74 <__multadd+0xec>
10007b24:	a8800144 	addi	r2,r21,5
10007b28:	1085883a 	add	r2,r2,r2
10007b2c:	1085883a 	add	r2,r2,r2
10007b30:	b085883a 	add	r2,r22,r2
10007b34:	ad400044 	addi	r21,r21,1
10007b38:	17000015 	stw	fp,0(r2)
10007b3c:	b5400415 	stw	r21,16(r22)
10007b40:	b005883a 	mov	r2,r22
10007b44:	dfc00917 	ldw	ra,36(sp)
10007b48:	df000817 	ldw	fp,32(sp)
10007b4c:	ddc00717 	ldw	r23,28(sp)
10007b50:	dd800617 	ldw	r22,24(sp)
10007b54:	dd400517 	ldw	r21,20(sp)
10007b58:	dd000417 	ldw	r20,16(sp)
10007b5c:	dcc00317 	ldw	r19,12(sp)
10007b60:	dc800217 	ldw	r18,8(sp)
10007b64:	dc400117 	ldw	r17,4(sp)
10007b68:	dc000017 	ldw	r16,0(sp)
10007b6c:	dec00a04 	addi	sp,sp,40
10007b70:	f800283a 	ret
10007b74:	b1400117 	ldw	r5,4(r22)
10007b78:	b809883a 	mov	r4,r23
10007b7c:	29400044 	addi	r5,r5,1
10007b80:	00079b80 	call	100079b8 <_Balloc>
10007b84:	b1800417 	ldw	r6,16(r22)
10007b88:	b1400304 	addi	r5,r22,12
10007b8c:	11000304 	addi	r4,r2,12
10007b90:	31800084 	addi	r6,r6,2
10007b94:	318d883a 	add	r6,r6,r6
10007b98:	318d883a 	add	r6,r6,r6
10007b9c:	1021883a 	mov	r16,r2
10007ba0:	00076100 	call	10007610 <memcpy>
10007ba4:	b0c00117 	ldw	r3,4(r22)
10007ba8:	b8801317 	ldw	r2,76(r23)
10007bac:	18c7883a 	add	r3,r3,r3
10007bb0:	18c7883a 	add	r3,r3,r3
10007bb4:	10c5883a 	add	r2,r2,r3
10007bb8:	10c00017 	ldw	r3,0(r2)
10007bbc:	b0c00015 	stw	r3,0(r22)
10007bc0:	15800015 	stw	r22,0(r2)
10007bc4:	802d883a 	mov	r22,r16
10007bc8:	003fd606 	br	10007b24 <__alt_data_end+0xf8007b24>

10007bcc <__s2b>:
10007bcc:	defff904 	addi	sp,sp,-28
10007bd0:	dd000415 	stw	r20,16(sp)
10007bd4:	dc400115 	stw	r17,4(sp)
10007bd8:	2829883a 	mov	r20,r5
10007bdc:	2023883a 	mov	r17,r4
10007be0:	01400244 	movi	r5,9
10007be4:	39000204 	addi	r4,r7,8
10007be8:	dcc00315 	stw	r19,12(sp)
10007bec:	dc800215 	stw	r18,8(sp)
10007bf0:	dfc00615 	stw	ra,24(sp)
10007bf4:	dd400515 	stw	r21,20(sp)
10007bf8:	dc000015 	stw	r16,0(sp)
10007bfc:	3825883a 	mov	r18,r7
10007c00:	3027883a 	mov	r19,r6
10007c04:	000b15c0 	call	1000b15c <__divsi3>
10007c08:	00c00044 	movi	r3,1
10007c0c:	000b883a 	mov	r5,zero
10007c10:	1880030e 	bge	r3,r2,10007c20 <__s2b+0x54>
10007c14:	18c7883a 	add	r3,r3,r3
10007c18:	29400044 	addi	r5,r5,1
10007c1c:	18bffd16 	blt	r3,r2,10007c14 <__alt_data_end+0xf8007c14>
10007c20:	8809883a 	mov	r4,r17
10007c24:	00079b80 	call	100079b8 <_Balloc>
10007c28:	d8c00717 	ldw	r3,28(sp)
10007c2c:	10c00515 	stw	r3,20(r2)
10007c30:	00c00044 	movi	r3,1
10007c34:	10c00415 	stw	r3,16(r2)
10007c38:	00c00244 	movi	r3,9
10007c3c:	1cc0210e 	bge	r3,r19,10007cc4 <__s2b+0xf8>
10007c40:	a0eb883a 	add	r21,r20,r3
10007c44:	a821883a 	mov	r16,r21
10007c48:	a4e9883a 	add	r20,r20,r19
10007c4c:	81c00007 	ldb	r7,0(r16)
10007c50:	8809883a 	mov	r4,r17
10007c54:	84000044 	addi	r16,r16,1
10007c58:	100b883a 	mov	r5,r2
10007c5c:	01800284 	movi	r6,10
10007c60:	39fff404 	addi	r7,r7,-48
10007c64:	0007a880 	call	10007a88 <__multadd>
10007c68:	853ff81e 	bne	r16,r20,10007c4c <__alt_data_end+0xf8007c4c>
10007c6c:	ace1883a 	add	r16,r21,r19
10007c70:	843ffe04 	addi	r16,r16,-8
10007c74:	9c800a0e 	bge	r19,r18,10007ca0 <__s2b+0xd4>
10007c78:	94e5c83a 	sub	r18,r18,r19
10007c7c:	84a5883a 	add	r18,r16,r18
10007c80:	81c00007 	ldb	r7,0(r16)
10007c84:	8809883a 	mov	r4,r17
10007c88:	84000044 	addi	r16,r16,1
10007c8c:	100b883a 	mov	r5,r2
10007c90:	01800284 	movi	r6,10
10007c94:	39fff404 	addi	r7,r7,-48
10007c98:	0007a880 	call	10007a88 <__multadd>
10007c9c:	84bff81e 	bne	r16,r18,10007c80 <__alt_data_end+0xf8007c80>
10007ca0:	dfc00617 	ldw	ra,24(sp)
10007ca4:	dd400517 	ldw	r21,20(sp)
10007ca8:	dd000417 	ldw	r20,16(sp)
10007cac:	dcc00317 	ldw	r19,12(sp)
10007cb0:	dc800217 	ldw	r18,8(sp)
10007cb4:	dc400117 	ldw	r17,4(sp)
10007cb8:	dc000017 	ldw	r16,0(sp)
10007cbc:	dec00704 	addi	sp,sp,28
10007cc0:	f800283a 	ret
10007cc4:	a4000284 	addi	r16,r20,10
10007cc8:	1827883a 	mov	r19,r3
10007ccc:	003fe906 	br	10007c74 <__alt_data_end+0xf8007c74>

10007cd0 <__hi0bits>:
10007cd0:	20bfffec 	andhi	r2,r4,65535
10007cd4:	1000141e 	bne	r2,zero,10007d28 <__hi0bits+0x58>
10007cd8:	2008943a 	slli	r4,r4,16
10007cdc:	00800404 	movi	r2,16
10007ce0:	20ffc02c 	andhi	r3,r4,65280
10007ce4:	1800021e 	bne	r3,zero,10007cf0 <__hi0bits+0x20>
10007ce8:	2008923a 	slli	r4,r4,8
10007cec:	10800204 	addi	r2,r2,8
10007cf0:	20fc002c 	andhi	r3,r4,61440
10007cf4:	1800021e 	bne	r3,zero,10007d00 <__hi0bits+0x30>
10007cf8:	2008913a 	slli	r4,r4,4
10007cfc:	10800104 	addi	r2,r2,4
10007d00:	20f0002c 	andhi	r3,r4,49152
10007d04:	1800031e 	bne	r3,zero,10007d14 <__hi0bits+0x44>
10007d08:	2109883a 	add	r4,r4,r4
10007d0c:	10800084 	addi	r2,r2,2
10007d10:	2109883a 	add	r4,r4,r4
10007d14:	20000316 	blt	r4,zero,10007d24 <__hi0bits+0x54>
10007d18:	2110002c 	andhi	r4,r4,16384
10007d1c:	2000041e 	bne	r4,zero,10007d30 <__hi0bits+0x60>
10007d20:	00800804 	movi	r2,32
10007d24:	f800283a 	ret
10007d28:	0005883a 	mov	r2,zero
10007d2c:	003fec06 	br	10007ce0 <__alt_data_end+0xf8007ce0>
10007d30:	10800044 	addi	r2,r2,1
10007d34:	f800283a 	ret

10007d38 <__lo0bits>:
10007d38:	20c00017 	ldw	r3,0(r4)
10007d3c:	188001cc 	andi	r2,r3,7
10007d40:	10000826 	beq	r2,zero,10007d64 <__lo0bits+0x2c>
10007d44:	1880004c 	andi	r2,r3,1
10007d48:	1000211e 	bne	r2,zero,10007dd0 <__lo0bits+0x98>
10007d4c:	1880008c 	andi	r2,r3,2
10007d50:	1000211e 	bne	r2,zero,10007dd8 <__lo0bits+0xa0>
10007d54:	1806d0ba 	srli	r3,r3,2
10007d58:	00800084 	movi	r2,2
10007d5c:	20c00015 	stw	r3,0(r4)
10007d60:	f800283a 	ret
10007d64:	18bfffcc 	andi	r2,r3,65535
10007d68:	10001326 	beq	r2,zero,10007db8 <__lo0bits+0x80>
10007d6c:	0005883a 	mov	r2,zero
10007d70:	19403fcc 	andi	r5,r3,255
10007d74:	2800021e 	bne	r5,zero,10007d80 <__lo0bits+0x48>
10007d78:	1806d23a 	srli	r3,r3,8
10007d7c:	10800204 	addi	r2,r2,8
10007d80:	194003cc 	andi	r5,r3,15
10007d84:	2800021e 	bne	r5,zero,10007d90 <__lo0bits+0x58>
10007d88:	1806d13a 	srli	r3,r3,4
10007d8c:	10800104 	addi	r2,r2,4
10007d90:	194000cc 	andi	r5,r3,3
10007d94:	2800021e 	bne	r5,zero,10007da0 <__lo0bits+0x68>
10007d98:	1806d0ba 	srli	r3,r3,2
10007d9c:	10800084 	addi	r2,r2,2
10007da0:	1940004c 	andi	r5,r3,1
10007da4:	2800081e 	bne	r5,zero,10007dc8 <__lo0bits+0x90>
10007da8:	1806d07a 	srli	r3,r3,1
10007dac:	1800051e 	bne	r3,zero,10007dc4 <__lo0bits+0x8c>
10007db0:	00800804 	movi	r2,32
10007db4:	f800283a 	ret
10007db8:	1806d43a 	srli	r3,r3,16
10007dbc:	00800404 	movi	r2,16
10007dc0:	003feb06 	br	10007d70 <__alt_data_end+0xf8007d70>
10007dc4:	10800044 	addi	r2,r2,1
10007dc8:	20c00015 	stw	r3,0(r4)
10007dcc:	f800283a 	ret
10007dd0:	0005883a 	mov	r2,zero
10007dd4:	f800283a 	ret
10007dd8:	1806d07a 	srli	r3,r3,1
10007ddc:	00800044 	movi	r2,1
10007de0:	20c00015 	stw	r3,0(r4)
10007de4:	f800283a 	ret

10007de8 <__i2b>:
10007de8:	defffd04 	addi	sp,sp,-12
10007dec:	dc000015 	stw	r16,0(sp)
10007df0:	04000044 	movi	r16,1
10007df4:	dc400115 	stw	r17,4(sp)
10007df8:	2823883a 	mov	r17,r5
10007dfc:	800b883a 	mov	r5,r16
10007e00:	dfc00215 	stw	ra,8(sp)
10007e04:	00079b80 	call	100079b8 <_Balloc>
10007e08:	14400515 	stw	r17,20(r2)
10007e0c:	14000415 	stw	r16,16(r2)
10007e10:	dfc00217 	ldw	ra,8(sp)
10007e14:	dc400117 	ldw	r17,4(sp)
10007e18:	dc000017 	ldw	r16,0(sp)
10007e1c:	dec00304 	addi	sp,sp,12
10007e20:	f800283a 	ret

10007e24 <__multiply>:
10007e24:	defff004 	addi	sp,sp,-64
10007e28:	dc800815 	stw	r18,32(sp)
10007e2c:	dc400715 	stw	r17,28(sp)
10007e30:	34800417 	ldw	r18,16(r6)
10007e34:	2c400417 	ldw	r17,16(r5)
10007e38:	ddc00d15 	stw	r23,52(sp)
10007e3c:	dc000615 	stw	r16,24(sp)
10007e40:	dfc00f15 	stw	ra,60(sp)
10007e44:	df000e15 	stw	fp,56(sp)
10007e48:	dd800c15 	stw	r22,48(sp)
10007e4c:	dd400b15 	stw	r21,44(sp)
10007e50:	dd000a15 	stw	r20,40(sp)
10007e54:	dcc00915 	stw	r19,36(sp)
10007e58:	2821883a 	mov	r16,r5
10007e5c:	302f883a 	mov	r23,r6
10007e60:	8c80050e 	bge	r17,r18,10007e78 <__multiply+0x54>
10007e64:	8807883a 	mov	r3,r17
10007e68:	3021883a 	mov	r16,r6
10007e6c:	9023883a 	mov	r17,r18
10007e70:	282f883a 	mov	r23,r5
10007e74:	1825883a 	mov	r18,r3
10007e78:	80800217 	ldw	r2,8(r16)
10007e7c:	8c87883a 	add	r3,r17,r18
10007e80:	d8c00115 	stw	r3,4(sp)
10007e84:	81400117 	ldw	r5,4(r16)
10007e88:	10c0010e 	bge	r2,r3,10007e90 <__multiply+0x6c>
10007e8c:	29400044 	addi	r5,r5,1
10007e90:	00079b80 	call	100079b8 <_Balloc>
10007e94:	d8c00117 	ldw	r3,4(sp)
10007e98:	d8800515 	stw	r2,20(sp)
10007e9c:	14c00504 	addi	r19,r2,20
10007ea0:	1d400144 	addi	r21,r3,5
10007ea4:	ad6b883a 	add	r21,r21,r21
10007ea8:	ad6b883a 	add	r21,r21,r21
10007eac:	156b883a 	add	r21,r2,r21
10007eb0:	dd400215 	stw	r21,8(sp)
10007eb4:	9805883a 	mov	r2,r19
10007eb8:	9d40042e 	bgeu	r19,r21,10007ecc <__multiply+0xa8>
10007ebc:	d8c00217 	ldw	r3,8(sp)
10007ec0:	10000015 	stw	zero,0(r2)
10007ec4:	10800104 	addi	r2,r2,4
10007ec8:	10fffc36 	bltu	r2,r3,10007ebc <__alt_data_end+0xf8007ebc>
10007ecc:	94800144 	addi	r18,r18,5
10007ed0:	94a5883a 	add	r18,r18,r18
10007ed4:	94ad883a 	add	r22,r18,r18
10007ed8:	8c400144 	addi	r17,r17,5
10007edc:	8c63883a 	add	r17,r17,r17
10007ee0:	bdad883a 	add	r22,r23,r22
10007ee4:	80c00504 	addi	r3,r16,20
10007ee8:	8c63883a 	add	r17,r17,r17
10007eec:	bc800504 	addi	r18,r23,20
10007ef0:	dd800315 	stw	r22,12(sp)
10007ef4:	d8c00415 	stw	r3,16(sp)
10007ef8:	dcc00015 	stw	r19,0(sp)
10007efc:	8463883a 	add	r17,r16,r17
10007f00:	9580412e 	bgeu	r18,r22,10008008 <__multiply+0x1e4>
10007f04:	90800017 	ldw	r2,0(r18)
10007f08:	173fffcc 	andi	fp,r2,65535
10007f0c:	e0001a26 	beq	fp,zero,10007f78 <__multiply+0x154>
10007f10:	dd000017 	ldw	r20,0(sp)
10007f14:	dd800417 	ldw	r22,16(sp)
10007f18:	002b883a 	mov	r21,zero
10007f1c:	b4c00017 	ldw	r19,0(r22)
10007f20:	a4000017 	ldw	r16,0(r20)
10007f24:	e00b883a 	mov	r5,fp
10007f28:	993fffcc 	andi	r4,r19,65535
10007f2c:	000b2180 	call	1000b218 <__mulsi3>
10007f30:	9808d43a 	srli	r4,r19,16
10007f34:	817fffcc 	andi	r5,r16,65535
10007f38:	1145883a 	add	r2,r2,r5
10007f3c:	e00b883a 	mov	r5,fp
10007f40:	1567883a 	add	r19,r2,r21
10007f44:	8020d43a 	srli	r16,r16,16
10007f48:	000b2180 	call	1000b218 <__mulsi3>
10007f4c:	9808d43a 	srli	r4,r19,16
10007f50:	1405883a 	add	r2,r2,r16
10007f54:	a4c0000d 	sth	r19,0(r20)
10007f58:	110f883a 	add	r7,r2,r4
10007f5c:	a1c0008d 	sth	r7,2(r20)
10007f60:	b5800104 	addi	r22,r22,4
10007f64:	382ad43a 	srli	r21,r7,16
10007f68:	a5000104 	addi	r20,r20,4
10007f6c:	b47feb36 	bltu	r22,r17,10007f1c <__alt_data_end+0xf8007f1c>
10007f70:	a5400015 	stw	r21,0(r20)
10007f74:	90800017 	ldw	r2,0(r18)
10007f78:	1038d43a 	srli	fp,r2,16
10007f7c:	e0001c26 	beq	fp,zero,10007ff0 <__multiply+0x1cc>
10007f80:	d8c00017 	ldw	r3,0(sp)
10007f84:	dd000417 	ldw	r20,16(sp)
10007f88:	002b883a 	mov	r21,zero
10007f8c:	1d800017 	ldw	r22,0(r3)
10007f90:	182f883a 	mov	r23,r3
10007f94:	b021883a 	mov	r16,r22
10007f98:	a4c00017 	ldw	r19,0(r20)
10007f9c:	8020d43a 	srli	r16,r16,16
10007fa0:	e00b883a 	mov	r5,fp
10007fa4:	993fffcc 	andi	r4,r19,65535
10007fa8:	000b2180 	call	1000b218 <__mulsi3>
10007fac:	1405883a 	add	r2,r2,r16
10007fb0:	9808d43a 	srli	r4,r19,16
10007fb4:	156b883a 	add	r21,r2,r21
10007fb8:	bdc00104 	addi	r23,r23,4
10007fbc:	bdbfff0d 	sth	r22,-4(r23)
10007fc0:	bd7fff8d 	sth	r21,-2(r23)
10007fc4:	bc000017 	ldw	r16,0(r23)
10007fc8:	e00b883a 	mov	r5,fp
10007fcc:	000b2180 	call	1000b218 <__mulsi3>
10007fd0:	a80ed43a 	srli	r7,r21,16
10007fd4:	813fffcc 	andi	r4,r16,65535
10007fd8:	2085883a 	add	r2,r4,r2
10007fdc:	11ed883a 	add	r22,r2,r7
10007fe0:	a5000104 	addi	r20,r20,4
10007fe4:	b02ad43a 	srli	r21,r22,16
10007fe8:	a47feb36 	bltu	r20,r17,10007f98 <__alt_data_end+0xf8007f98>
10007fec:	bd800015 	stw	r22,0(r23)
10007ff0:	d8c00017 	ldw	r3,0(sp)
10007ff4:	94800104 	addi	r18,r18,4
10007ff8:	18c00104 	addi	r3,r3,4
10007ffc:	d8c00015 	stw	r3,0(sp)
10008000:	d8c00317 	ldw	r3,12(sp)
10008004:	90ffbf36 	bltu	r18,r3,10007f04 <__alt_data_end+0xf8007f04>
10008008:	d8c00117 	ldw	r3,4(sp)
1000800c:	00c00c0e 	bge	zero,r3,10008040 <__multiply+0x21c>
10008010:	d8c00217 	ldw	r3,8(sp)
10008014:	18bfff17 	ldw	r2,-4(r3)
10008018:	1d7fff04 	addi	r21,r3,-4
1000801c:	10000326 	beq	r2,zero,1000802c <__multiply+0x208>
10008020:	00000706 	br	10008040 <__multiply+0x21c>
10008024:	a8800017 	ldw	r2,0(r21)
10008028:	1000051e 	bne	r2,zero,10008040 <__multiply+0x21c>
1000802c:	d8c00117 	ldw	r3,4(sp)
10008030:	ad7fff04 	addi	r21,r21,-4
10008034:	18ffffc4 	addi	r3,r3,-1
10008038:	d8c00115 	stw	r3,4(sp)
1000803c:	183ff91e 	bne	r3,zero,10008024 <__alt_data_end+0xf8008024>
10008040:	d8800517 	ldw	r2,20(sp)
10008044:	d8c00117 	ldw	r3,4(sp)
10008048:	10c00415 	stw	r3,16(r2)
1000804c:	dfc00f17 	ldw	ra,60(sp)
10008050:	df000e17 	ldw	fp,56(sp)
10008054:	ddc00d17 	ldw	r23,52(sp)
10008058:	dd800c17 	ldw	r22,48(sp)
1000805c:	dd400b17 	ldw	r21,44(sp)
10008060:	dd000a17 	ldw	r20,40(sp)
10008064:	dcc00917 	ldw	r19,36(sp)
10008068:	dc800817 	ldw	r18,32(sp)
1000806c:	dc400717 	ldw	r17,28(sp)
10008070:	dc000617 	ldw	r16,24(sp)
10008074:	dec01004 	addi	sp,sp,64
10008078:	f800283a 	ret

1000807c <__pow5mult>:
1000807c:	defffb04 	addi	sp,sp,-20
10008080:	dcc00315 	stw	r19,12(sp)
10008084:	dc800215 	stw	r18,8(sp)
10008088:	dc000015 	stw	r16,0(sp)
1000808c:	dfc00415 	stw	ra,16(sp)
10008090:	dc400115 	stw	r17,4(sp)
10008094:	308000cc 	andi	r2,r6,3
10008098:	3021883a 	mov	r16,r6
1000809c:	2027883a 	mov	r19,r4
100080a0:	2825883a 	mov	r18,r5
100080a4:	10002e1e 	bne	r2,zero,10008160 <__pow5mult+0xe4>
100080a8:	8021d0ba 	srai	r16,r16,2
100080ac:	80001a26 	beq	r16,zero,10008118 <__pow5mult+0x9c>
100080b0:	9c401217 	ldw	r17,72(r19)
100080b4:	8800061e 	bne	r17,zero,100080d0 <__pow5mult+0x54>
100080b8:	00003406 	br	1000818c <__pow5mult+0x110>
100080bc:	8021d07a 	srai	r16,r16,1
100080c0:	80001526 	beq	r16,zero,10008118 <__pow5mult+0x9c>
100080c4:	88c00017 	ldw	r3,0(r17)
100080c8:	18001b26 	beq	r3,zero,10008138 <__pow5mult+0xbc>
100080cc:	1823883a 	mov	r17,r3
100080d0:	80c0004c 	andi	r3,r16,1
100080d4:	183ff926 	beq	r3,zero,100080bc <__alt_data_end+0xf80080bc>
100080d8:	900b883a 	mov	r5,r18
100080dc:	880d883a 	mov	r6,r17
100080e0:	9809883a 	mov	r4,r19
100080e4:	0007e240 	call	10007e24 <__multiply>
100080e8:	90001b26 	beq	r18,zero,10008158 <__pow5mult+0xdc>
100080ec:	91000117 	ldw	r4,4(r18)
100080f0:	98c01317 	ldw	r3,76(r19)
100080f4:	8021d07a 	srai	r16,r16,1
100080f8:	2109883a 	add	r4,r4,r4
100080fc:	2109883a 	add	r4,r4,r4
10008100:	1907883a 	add	r3,r3,r4
10008104:	19000017 	ldw	r4,0(r3)
10008108:	91000015 	stw	r4,0(r18)
1000810c:	1c800015 	stw	r18,0(r3)
10008110:	1025883a 	mov	r18,r2
10008114:	803feb1e 	bne	r16,zero,100080c4 <__alt_data_end+0xf80080c4>
10008118:	9005883a 	mov	r2,r18
1000811c:	dfc00417 	ldw	ra,16(sp)
10008120:	dcc00317 	ldw	r19,12(sp)
10008124:	dc800217 	ldw	r18,8(sp)
10008128:	dc400117 	ldw	r17,4(sp)
1000812c:	dc000017 	ldw	r16,0(sp)
10008130:	dec00504 	addi	sp,sp,20
10008134:	f800283a 	ret
10008138:	880b883a 	mov	r5,r17
1000813c:	880d883a 	mov	r6,r17
10008140:	9809883a 	mov	r4,r19
10008144:	0007e240 	call	10007e24 <__multiply>
10008148:	88800015 	stw	r2,0(r17)
1000814c:	10000015 	stw	zero,0(r2)
10008150:	1023883a 	mov	r17,r2
10008154:	003fde06 	br	100080d0 <__alt_data_end+0xf80080d0>
10008158:	1025883a 	mov	r18,r2
1000815c:	003fd706 	br	100080bc <__alt_data_end+0xf80080bc>
10008160:	10bfffc4 	addi	r2,r2,-1
10008164:	1085883a 	add	r2,r2,r2
10008168:	00c40074 	movhi	r3,4097
1000816c:	18fa7e04 	addi	r3,r3,-5640
10008170:	1085883a 	add	r2,r2,r2
10008174:	1885883a 	add	r2,r3,r2
10008178:	11800017 	ldw	r6,0(r2)
1000817c:	000f883a 	mov	r7,zero
10008180:	0007a880 	call	10007a88 <__multadd>
10008184:	1025883a 	mov	r18,r2
10008188:	003fc706 	br	100080a8 <__alt_data_end+0xf80080a8>
1000818c:	9809883a 	mov	r4,r19
10008190:	01409c44 	movi	r5,625
10008194:	0007de80 	call	10007de8 <__i2b>
10008198:	98801215 	stw	r2,72(r19)
1000819c:	1023883a 	mov	r17,r2
100081a0:	10000015 	stw	zero,0(r2)
100081a4:	003fca06 	br	100080d0 <__alt_data_end+0xf80080d0>

100081a8 <__lshift>:
100081a8:	defff904 	addi	sp,sp,-28
100081ac:	dd400515 	stw	r21,20(sp)
100081b0:	dc400115 	stw	r17,4(sp)
100081b4:	2d400417 	ldw	r21,16(r5)
100081b8:	3023d17a 	srai	r17,r6,5
100081bc:	28800217 	ldw	r2,8(r5)
100081c0:	dd000415 	stw	r20,16(sp)
100081c4:	8d6b883a 	add	r21,r17,r21
100081c8:	dcc00315 	stw	r19,12(sp)
100081cc:	dc800215 	stw	r18,8(sp)
100081d0:	dc000015 	stw	r16,0(sp)
100081d4:	dfc00615 	stw	ra,24(sp)
100081d8:	ac000044 	addi	r16,r21,1
100081dc:	2825883a 	mov	r18,r5
100081e0:	3029883a 	mov	r20,r6
100081e4:	2027883a 	mov	r19,r4
100081e8:	29400117 	ldw	r5,4(r5)
100081ec:	1400030e 	bge	r2,r16,100081fc <__lshift+0x54>
100081f0:	1085883a 	add	r2,r2,r2
100081f4:	29400044 	addi	r5,r5,1
100081f8:	143ffd16 	blt	r2,r16,100081f0 <__alt_data_end+0xf80081f0>
100081fc:	9809883a 	mov	r4,r19
10008200:	00079b80 	call	100079b8 <_Balloc>
10008204:	10c00504 	addi	r3,r2,20
10008208:	0440090e 	bge	zero,r17,10008230 <__lshift+0x88>
1000820c:	000f883a 	mov	r7,zero
10008210:	18000015 	stw	zero,0(r3)
10008214:	39c00044 	addi	r7,r7,1
10008218:	18c00104 	addi	r3,r3,4
1000821c:	3c7ffc1e 	bne	r7,r17,10008210 <__alt_data_end+0xf8008210>
10008220:	38c00144 	addi	r3,r7,5
10008224:	18c7883a 	add	r3,r3,r3
10008228:	18c7883a 	add	r3,r3,r3
1000822c:	10c7883a 	add	r3,r2,r3
10008230:	92000417 	ldw	r8,16(r18)
10008234:	a18007cc 	andi	r6,r20,31
10008238:	91c00504 	addi	r7,r18,20
1000823c:	42000144 	addi	r8,r8,5
10008240:	4211883a 	add	r8,r8,r8
10008244:	4211883a 	add	r8,r8,r8
10008248:	9211883a 	add	r8,r18,r8
1000824c:	30002226 	beq	r6,zero,100082d8 <__lshift+0x130>
10008250:	02800804 	movi	r10,32
10008254:	5195c83a 	sub	r10,r10,r6
10008258:	000b883a 	mov	r5,zero
1000825c:	3a400017 	ldw	r9,0(r7)
10008260:	18c00104 	addi	r3,r3,4
10008264:	39c00104 	addi	r7,r7,4
10008268:	4992983a 	sll	r9,r9,r6
1000826c:	2a4ab03a 	or	r5,r5,r9
10008270:	197fff15 	stw	r5,-4(r3)
10008274:	397fff17 	ldw	r5,-4(r7)
10008278:	2a8ad83a 	srl	r5,r5,r10
1000827c:	3a3ff736 	bltu	r7,r8,1000825c <__alt_data_end+0xf800825c>
10008280:	19400015 	stw	r5,0(r3)
10008284:	28000126 	beq	r5,zero,1000828c <__lshift+0xe4>
10008288:	ac000084 	addi	r16,r21,2
1000828c:	91000117 	ldw	r4,4(r18)
10008290:	98c01317 	ldw	r3,76(r19)
10008294:	843fffc4 	addi	r16,r16,-1
10008298:	2109883a 	add	r4,r4,r4
1000829c:	2109883a 	add	r4,r4,r4
100082a0:	1907883a 	add	r3,r3,r4
100082a4:	19000017 	ldw	r4,0(r3)
100082a8:	14000415 	stw	r16,16(r2)
100082ac:	91000015 	stw	r4,0(r18)
100082b0:	1c800015 	stw	r18,0(r3)
100082b4:	dfc00617 	ldw	ra,24(sp)
100082b8:	dd400517 	ldw	r21,20(sp)
100082bc:	dd000417 	ldw	r20,16(sp)
100082c0:	dcc00317 	ldw	r19,12(sp)
100082c4:	dc800217 	ldw	r18,8(sp)
100082c8:	dc400117 	ldw	r17,4(sp)
100082cc:	dc000017 	ldw	r16,0(sp)
100082d0:	dec00704 	addi	sp,sp,28
100082d4:	f800283a 	ret
100082d8:	39400017 	ldw	r5,0(r7)
100082dc:	18c00104 	addi	r3,r3,4
100082e0:	39c00104 	addi	r7,r7,4
100082e4:	197fff15 	stw	r5,-4(r3)
100082e8:	3a3fe82e 	bgeu	r7,r8,1000828c <__alt_data_end+0xf800828c>
100082ec:	39400017 	ldw	r5,0(r7)
100082f0:	18c00104 	addi	r3,r3,4
100082f4:	39c00104 	addi	r7,r7,4
100082f8:	197fff15 	stw	r5,-4(r3)
100082fc:	3a3ff636 	bltu	r7,r8,100082d8 <__alt_data_end+0xf80082d8>
10008300:	003fe206 	br	1000828c <__alt_data_end+0xf800828c>

10008304 <__mcmp>:
10008304:	20800417 	ldw	r2,16(r4)
10008308:	28c00417 	ldw	r3,16(r5)
1000830c:	10c5c83a 	sub	r2,r2,r3
10008310:	10000f1e 	bne	r2,zero,10008350 <__mcmp+0x4c>
10008314:	18c00144 	addi	r3,r3,5
10008318:	18c7883a 	add	r3,r3,r3
1000831c:	18c7883a 	add	r3,r3,r3
10008320:	21c00504 	addi	r7,r4,20
10008324:	28cb883a 	add	r5,r5,r3
10008328:	20c9883a 	add	r4,r4,r3
1000832c:	213fff04 	addi	r4,r4,-4
10008330:	297fff04 	addi	r5,r5,-4
10008334:	21800017 	ldw	r6,0(r4)
10008338:	28c00017 	ldw	r3,0(r5)
1000833c:	30c0021e 	bne	r6,r3,10008348 <__mcmp+0x44>
10008340:	393ffa36 	bltu	r7,r4,1000832c <__alt_data_end+0xf800832c>
10008344:	f800283a 	ret
10008348:	30c00236 	bltu	r6,r3,10008354 <__mcmp+0x50>
1000834c:	00800044 	movi	r2,1
10008350:	f800283a 	ret
10008354:	00bfffc4 	movi	r2,-1
10008358:	f800283a 	ret

1000835c <__mdiff>:
1000835c:	defffb04 	addi	sp,sp,-20
10008360:	dc000015 	stw	r16,0(sp)
10008364:	2821883a 	mov	r16,r5
10008368:	dc800215 	stw	r18,8(sp)
1000836c:	300b883a 	mov	r5,r6
10008370:	2025883a 	mov	r18,r4
10008374:	8009883a 	mov	r4,r16
10008378:	dc400115 	stw	r17,4(sp)
1000837c:	dfc00415 	stw	ra,16(sp)
10008380:	dcc00315 	stw	r19,12(sp)
10008384:	3023883a 	mov	r17,r6
10008388:	00083040 	call	10008304 <__mcmp>
1000838c:	10005026 	beq	r2,zero,100084d0 <__mdiff+0x174>
10008390:	10004a16 	blt	r2,zero,100084bc <__mdiff+0x160>
10008394:	0027883a 	mov	r19,zero
10008398:	81400117 	ldw	r5,4(r16)
1000839c:	9009883a 	mov	r4,r18
100083a0:	00079b80 	call	100079b8 <_Balloc>
100083a4:	82400417 	ldw	r9,16(r16)
100083a8:	89800417 	ldw	r6,16(r17)
100083ac:	14c00315 	stw	r19,12(r2)
100083b0:	4b800144 	addi	r14,r9,5
100083b4:	31800144 	addi	r6,r6,5
100083b8:	739d883a 	add	r14,r14,r14
100083bc:	318d883a 	add	r6,r6,r6
100083c0:	739d883a 	add	r14,r14,r14
100083c4:	318d883a 	add	r6,r6,r6
100083c8:	81c00504 	addi	r7,r16,20
100083cc:	839d883a 	add	r14,r16,r14
100083d0:	8a000504 	addi	r8,r17,20
100083d4:	898d883a 	add	r6,r17,r6
100083d8:	10c00504 	addi	r3,r2,20
100083dc:	0009883a 	mov	r4,zero
100083e0:	3b000017 	ldw	r12,0(r7)
100083e4:	42c00017 	ldw	r11,0(r8)
100083e8:	42000104 	addi	r8,r8,4
100083ec:	62bfffcc 	andi	r10,r12,65535
100083f0:	5b7fffcc 	andi	r13,r11,65535
100083f4:	5109883a 	add	r4,r10,r4
100083f8:	2355c83a 	sub	r10,r4,r13
100083fc:	5816d43a 	srli	r11,r11,16
10008400:	6008d43a 	srli	r4,r12,16
10008404:	501bd43a 	srai	r13,r10,16
10008408:	1a80000d 	sth	r10,0(r3)
1000840c:	22c9c83a 	sub	r4,r4,r11
10008410:	2349883a 	add	r4,r4,r13
10008414:	1900008d 	sth	r4,2(r3)
10008418:	39c00104 	addi	r7,r7,4
1000841c:	2009d43a 	srai	r4,r4,16
10008420:	18c00104 	addi	r3,r3,4
10008424:	41bfee36 	bltu	r8,r6,100083e0 <__alt_data_end+0xf80083e0>
10008428:	180b883a 	mov	r5,r3
1000842c:	3815883a 	mov	r10,r7
10008430:	3b80132e 	bgeu	r7,r14,10008480 <__mdiff+0x124>
10008434:	3a000017 	ldw	r8,0(r7)
10008438:	18c00104 	addi	r3,r3,4
1000843c:	39c00104 	addi	r7,r7,4
10008440:	41bfffcc 	andi	r6,r8,65535
10008444:	310d883a 	add	r6,r6,r4
10008448:	3009d43a 	srai	r4,r6,16
1000844c:	4010d43a 	srli	r8,r8,16
10008450:	19bfff0d 	sth	r6,-4(r3)
10008454:	2209883a 	add	r4,r4,r8
10008458:	193fff8d 	sth	r4,-2(r3)
1000845c:	2009d43a 	srai	r4,r4,16
10008460:	3bbff436 	bltu	r7,r14,10008434 <__alt_data_end+0xf8008434>
10008464:	0286303a 	nor	r3,zero,r10
10008468:	1b87883a 	add	r3,r3,r14
1000846c:	1806d0ba 	srli	r3,r3,2
10008470:	18c00044 	addi	r3,r3,1
10008474:	18c7883a 	add	r3,r3,r3
10008478:	18c7883a 	add	r3,r3,r3
1000847c:	28c7883a 	add	r3,r5,r3
10008480:	193fff17 	ldw	r4,-4(r3)
10008484:	18ffff04 	addi	r3,r3,-4
10008488:	2000041e 	bne	r4,zero,1000849c <__mdiff+0x140>
1000848c:	18ffff04 	addi	r3,r3,-4
10008490:	19000017 	ldw	r4,0(r3)
10008494:	4a7fffc4 	addi	r9,r9,-1
10008498:	203ffc26 	beq	r4,zero,1000848c <__alt_data_end+0xf800848c>
1000849c:	12400415 	stw	r9,16(r2)
100084a0:	dfc00417 	ldw	ra,16(sp)
100084a4:	dcc00317 	ldw	r19,12(sp)
100084a8:	dc800217 	ldw	r18,8(sp)
100084ac:	dc400117 	ldw	r17,4(sp)
100084b0:	dc000017 	ldw	r16,0(sp)
100084b4:	dec00504 	addi	sp,sp,20
100084b8:	f800283a 	ret
100084bc:	8005883a 	mov	r2,r16
100084c0:	04c00044 	movi	r19,1
100084c4:	8821883a 	mov	r16,r17
100084c8:	1023883a 	mov	r17,r2
100084cc:	003fb206 	br	10008398 <__alt_data_end+0xf8008398>
100084d0:	9009883a 	mov	r4,r18
100084d4:	000b883a 	mov	r5,zero
100084d8:	00079b80 	call	100079b8 <_Balloc>
100084dc:	00c00044 	movi	r3,1
100084e0:	10c00415 	stw	r3,16(r2)
100084e4:	10000515 	stw	zero,20(r2)
100084e8:	dfc00417 	ldw	ra,16(sp)
100084ec:	dcc00317 	ldw	r19,12(sp)
100084f0:	dc800217 	ldw	r18,8(sp)
100084f4:	dc400117 	ldw	r17,4(sp)
100084f8:	dc000017 	ldw	r16,0(sp)
100084fc:	dec00504 	addi	sp,sp,20
10008500:	f800283a 	ret

10008504 <__ulp>:
10008504:	295ffc2c 	andhi	r5,r5,32752
10008508:	00bf3034 	movhi	r2,64704
1000850c:	2887883a 	add	r3,r5,r2
10008510:	00c0020e 	bge	zero,r3,1000851c <__ulp+0x18>
10008514:	0005883a 	mov	r2,zero
10008518:	f800283a 	ret
1000851c:	00c7c83a 	sub	r3,zero,r3
10008520:	1805d53a 	srai	r2,r3,20
10008524:	00c004c4 	movi	r3,19
10008528:	18800a0e 	bge	r3,r2,10008554 <__ulp+0x50>
1000852c:	01000c84 	movi	r4,50
10008530:	0007883a 	mov	r3,zero
10008534:	20800516 	blt	r4,r2,1000854c <__ulp+0x48>
10008538:	01000cc4 	movi	r4,51
1000853c:	2085c83a 	sub	r2,r4,r2
10008540:	01000044 	movi	r4,1
10008544:	2084983a 	sll	r2,r4,r2
10008548:	f800283a 	ret
1000854c:	00800044 	movi	r2,1
10008550:	f800283a 	ret
10008554:	00c00234 	movhi	r3,8
10008558:	1887d83a 	sra	r3,r3,r2
1000855c:	0005883a 	mov	r2,zero
10008560:	f800283a 	ret

10008564 <__b2d>:
10008564:	defffa04 	addi	sp,sp,-24
10008568:	dc000015 	stw	r16,0(sp)
1000856c:	24000417 	ldw	r16,16(r4)
10008570:	dc400115 	stw	r17,4(sp)
10008574:	dcc00315 	stw	r19,12(sp)
10008578:	84000144 	addi	r16,r16,5
1000857c:	8421883a 	add	r16,r16,r16
10008580:	8421883a 	add	r16,r16,r16
10008584:	2421883a 	add	r16,r4,r16
10008588:	847fff17 	ldw	r17,-4(r16)
1000858c:	24c00504 	addi	r19,r4,20
10008590:	dd000415 	stw	r20,16(sp)
10008594:	8809883a 	mov	r4,r17
10008598:	dc800215 	stw	r18,8(sp)
1000859c:	2829883a 	mov	r20,r5
100085a0:	dfc00515 	stw	ra,20(sp)
100085a4:	0007cd00 	call	10007cd0 <__hi0bits>
100085a8:	00c00804 	movi	r3,32
100085ac:	1887c83a 	sub	r3,r3,r2
100085b0:	a0c00015 	stw	r3,0(r20)
100085b4:	00c00284 	movi	r3,10
100085b8:	84bfff04 	addi	r18,r16,-4
100085bc:	18801216 	blt	r3,r2,10008608 <__b2d+0xa4>
100085c0:	010002c4 	movi	r4,11
100085c4:	2089c83a 	sub	r4,r4,r2
100085c8:	8906d83a 	srl	r3,r17,r4
100085cc:	18cffc34 	orhi	r3,r3,16368
100085d0:	9c80322e 	bgeu	r19,r18,1000869c <__b2d+0x138>
100085d4:	817ffe17 	ldw	r5,-8(r16)
100085d8:	2908d83a 	srl	r4,r5,r4
100085dc:	10800544 	addi	r2,r2,21
100085e0:	88a2983a 	sll	r17,r17,r2
100085e4:	2444b03a 	or	r2,r4,r17
100085e8:	dfc00517 	ldw	ra,20(sp)
100085ec:	dd000417 	ldw	r20,16(sp)
100085f0:	dcc00317 	ldw	r19,12(sp)
100085f4:	dc800217 	ldw	r18,8(sp)
100085f8:	dc400117 	ldw	r17,4(sp)
100085fc:	dc000017 	ldw	r16,0(sp)
10008600:	dec00604 	addi	sp,sp,24
10008604:	f800283a 	ret
10008608:	9c801636 	bltu	r19,r18,10008664 <__b2d+0x100>
1000860c:	113ffd44 	addi	r4,r2,-11
10008610:	000b883a 	mov	r5,zero
10008614:	20001726 	beq	r4,zero,10008674 <__b2d+0x110>
10008618:	00c00ac4 	movi	r3,43
1000861c:	1885c83a 	sub	r2,r3,r2
10008620:	8906983a 	sll	r3,r17,r4
10008624:	288cd83a 	srl	r6,r5,r2
10008628:	18cffc34 	orhi	r3,r3,16368
1000862c:	1986b03a 	or	r3,r3,r6
10008630:	9c801c2e 	bgeu	r19,r18,100086a4 <__b2d+0x140>
10008634:	91bfff17 	ldw	r6,-4(r18)
10008638:	3084d83a 	srl	r2,r6,r2
1000863c:	2908983a 	sll	r4,r5,r4
10008640:	1104b03a 	or	r2,r2,r4
10008644:	dfc00517 	ldw	ra,20(sp)
10008648:	dd000417 	ldw	r20,16(sp)
1000864c:	dcc00317 	ldw	r19,12(sp)
10008650:	dc800217 	ldw	r18,8(sp)
10008654:	dc400117 	ldw	r17,4(sp)
10008658:	dc000017 	ldw	r16,0(sp)
1000865c:	dec00604 	addi	sp,sp,24
10008660:	f800283a 	ret
10008664:	113ffd44 	addi	r4,r2,-11
10008668:	84bffe04 	addi	r18,r16,-8
1000866c:	817ffe17 	ldw	r5,-8(r16)
10008670:	203fe91e 	bne	r4,zero,10008618 <__alt_data_end+0xf8008618>
10008674:	88cffc34 	orhi	r3,r17,16368
10008678:	2805883a 	mov	r2,r5
1000867c:	dfc00517 	ldw	ra,20(sp)
10008680:	dd000417 	ldw	r20,16(sp)
10008684:	dcc00317 	ldw	r19,12(sp)
10008688:	dc800217 	ldw	r18,8(sp)
1000868c:	dc400117 	ldw	r17,4(sp)
10008690:	dc000017 	ldw	r16,0(sp)
10008694:	dec00604 	addi	sp,sp,24
10008698:	f800283a 	ret
1000869c:	0009883a 	mov	r4,zero
100086a0:	003fce06 	br	100085dc <__alt_data_end+0xf80085dc>
100086a4:	0005883a 	mov	r2,zero
100086a8:	003fe406 	br	1000863c <__alt_data_end+0xf800863c>

100086ac <__d2b>:
100086ac:	defff804 	addi	sp,sp,-32
100086b0:	dc400315 	stw	r17,12(sp)
100086b4:	3023883a 	mov	r17,r6
100086b8:	dc800415 	stw	r18,16(sp)
100086bc:	8824907a 	slli	r18,r17,1
100086c0:	dcc00515 	stw	r19,20(sp)
100086c4:	2827883a 	mov	r19,r5
100086c8:	9024d57a 	srli	r18,r18,21
100086cc:	01400044 	movi	r5,1
100086d0:	dd000615 	stw	r20,24(sp)
100086d4:	dc000215 	stw	r16,8(sp)
100086d8:	dfc00715 	stw	ra,28(sp)
100086dc:	3829883a 	mov	r20,r7
100086e0:	00079b80 	call	100079b8 <_Balloc>
100086e4:	1021883a 	mov	r16,r2
100086e8:	00800434 	movhi	r2,16
100086ec:	10bfffc4 	addi	r2,r2,-1
100086f0:	88a2703a 	and	r17,r17,r2
100086f4:	90000126 	beq	r18,zero,100086fc <__d2b+0x50>
100086f8:	8c400434 	orhi	r17,r17,16
100086fc:	dc400015 	stw	r17,0(sp)
10008700:	98002226 	beq	r19,zero,1000878c <__d2b+0xe0>
10008704:	d9000104 	addi	r4,sp,4
10008708:	dcc00115 	stw	r19,4(sp)
1000870c:	0007d380 	call	10007d38 <__lo0bits>
10008710:	d8c00017 	ldw	r3,0(sp)
10008714:	10002d1e 	bne	r2,zero,100087cc <__d2b+0x120>
10008718:	d9000117 	ldw	r4,4(sp)
1000871c:	81000515 	stw	r4,20(r16)
10008720:	1823003a 	cmpeq	r17,r3,zero
10008724:	01000084 	movi	r4,2
10008728:	2463c83a 	sub	r17,r4,r17
1000872c:	80c00615 	stw	r3,24(r16)
10008730:	84400415 	stw	r17,16(r16)
10008734:	90001d1e 	bne	r18,zero,100087ac <__d2b+0x100>
10008738:	88c00104 	addi	r3,r17,4
1000873c:	18c7883a 	add	r3,r3,r3
10008740:	18c7883a 	add	r3,r3,r3
10008744:	80c7883a 	add	r3,r16,r3
10008748:	19000017 	ldw	r4,0(r3)
1000874c:	10bef384 	addi	r2,r2,-1074
10008750:	a0800015 	stw	r2,0(r20)
10008754:	0007cd00 	call	10007cd0 <__hi0bits>
10008758:	8822917a 	slli	r17,r17,5
1000875c:	d8c00817 	ldw	r3,32(sp)
10008760:	8885c83a 	sub	r2,r17,r2
10008764:	18800015 	stw	r2,0(r3)
10008768:	8005883a 	mov	r2,r16
1000876c:	dfc00717 	ldw	ra,28(sp)
10008770:	dd000617 	ldw	r20,24(sp)
10008774:	dcc00517 	ldw	r19,20(sp)
10008778:	dc800417 	ldw	r18,16(sp)
1000877c:	dc400317 	ldw	r17,12(sp)
10008780:	dc000217 	ldw	r16,8(sp)
10008784:	dec00804 	addi	sp,sp,32
10008788:	f800283a 	ret
1000878c:	d809883a 	mov	r4,sp
10008790:	0007d380 	call	10007d38 <__lo0bits>
10008794:	d8c00017 	ldw	r3,0(sp)
10008798:	04400044 	movi	r17,1
1000879c:	84400415 	stw	r17,16(r16)
100087a0:	80c00515 	stw	r3,20(r16)
100087a4:	10800804 	addi	r2,r2,32
100087a8:	903fe326 	beq	r18,zero,10008738 <__alt_data_end+0xf8008738>
100087ac:	00c00d44 	movi	r3,53
100087b0:	94bef344 	addi	r18,r18,-1075
100087b4:	90a5883a 	add	r18,r18,r2
100087b8:	1885c83a 	sub	r2,r3,r2
100087bc:	d8c00817 	ldw	r3,32(sp)
100087c0:	a4800015 	stw	r18,0(r20)
100087c4:	18800015 	stw	r2,0(r3)
100087c8:	003fe706 	br	10008768 <__alt_data_end+0xf8008768>
100087cc:	01000804 	movi	r4,32
100087d0:	2089c83a 	sub	r4,r4,r2
100087d4:	1908983a 	sll	r4,r3,r4
100087d8:	d9400117 	ldw	r5,4(sp)
100087dc:	1886d83a 	srl	r3,r3,r2
100087e0:	2148b03a 	or	r4,r4,r5
100087e4:	81000515 	stw	r4,20(r16)
100087e8:	d8c00015 	stw	r3,0(sp)
100087ec:	003fcc06 	br	10008720 <__alt_data_end+0xf8008720>

100087f0 <__ratio>:
100087f0:	defff904 	addi	sp,sp,-28
100087f4:	dc400315 	stw	r17,12(sp)
100087f8:	2823883a 	mov	r17,r5
100087fc:	d9400104 	addi	r5,sp,4
10008800:	dfc00615 	stw	ra,24(sp)
10008804:	dcc00515 	stw	r19,20(sp)
10008808:	dc800415 	stw	r18,16(sp)
1000880c:	2027883a 	mov	r19,r4
10008810:	dc000215 	stw	r16,8(sp)
10008814:	00085640 	call	10008564 <__b2d>
10008818:	8809883a 	mov	r4,r17
1000881c:	d80b883a 	mov	r5,sp
10008820:	1025883a 	mov	r18,r2
10008824:	1821883a 	mov	r16,r3
10008828:	00085640 	call	10008564 <__b2d>
1000882c:	99400417 	ldw	r5,16(r19)
10008830:	89000417 	ldw	r4,16(r17)
10008834:	d9800117 	ldw	r6,4(sp)
10008838:	2909c83a 	sub	r4,r5,r4
1000883c:	d9400017 	ldw	r5,0(sp)
10008840:	2008917a 	slli	r4,r4,5
10008844:	314bc83a 	sub	r5,r6,r5
10008848:	290b883a 	add	r5,r5,r4
1000884c:	01400e0e 	bge	zero,r5,10008888 <__ratio+0x98>
10008850:	280a953a 	slli	r5,r5,20
10008854:	2c21883a 	add	r16,r5,r16
10008858:	9009883a 	mov	r4,r18
1000885c:	800b883a 	mov	r5,r16
10008860:	100d883a 	mov	r6,r2
10008864:	180f883a 	mov	r7,r3
10008868:	000aaa40 	call	1000aaa4 <__divdf3>
1000886c:	dfc00617 	ldw	ra,24(sp)
10008870:	dcc00517 	ldw	r19,20(sp)
10008874:	dc800417 	ldw	r18,16(sp)
10008878:	dc400317 	ldw	r17,12(sp)
1000887c:	dc000217 	ldw	r16,8(sp)
10008880:	dec00704 	addi	sp,sp,28
10008884:	f800283a 	ret
10008888:	280a953a 	slli	r5,r5,20
1000888c:	1947c83a 	sub	r3,r3,r5
10008890:	003ff106 	br	10008858 <__alt_data_end+0xf8008858>

10008894 <_mprec_log10>:
10008894:	defffe04 	addi	sp,sp,-8
10008898:	dc000015 	stw	r16,0(sp)
1000889c:	dfc00115 	stw	ra,4(sp)
100088a0:	008005c4 	movi	r2,23
100088a4:	2021883a 	mov	r16,r4
100088a8:	11000d0e 	bge	r2,r4,100088e0 <_mprec_log10+0x4c>
100088ac:	0005883a 	mov	r2,zero
100088b0:	00cffc34 	movhi	r3,16368
100088b4:	843fffc4 	addi	r16,r16,-1
100088b8:	1009883a 	mov	r4,r2
100088bc:	180b883a 	mov	r5,r3
100088c0:	000d883a 	mov	r6,zero
100088c4:	01d00934 	movhi	r7,16420
100088c8:	000a7c00 	call	1000a7c0 <__muldf3>
100088cc:	803ff91e 	bne	r16,zero,100088b4 <__alt_data_end+0xf80088b4>
100088d0:	dfc00117 	ldw	ra,4(sp)
100088d4:	dc000017 	ldw	r16,0(sp)
100088d8:	dec00204 	addi	sp,sp,8
100088dc:	f800283a 	ret
100088e0:	202090fa 	slli	r16,r4,3
100088e4:	00840074 	movhi	r2,4097
100088e8:	10ba4c04 	addi	r2,r2,-5840
100088ec:	1421883a 	add	r16,r2,r16
100088f0:	80800017 	ldw	r2,0(r16)
100088f4:	80c00117 	ldw	r3,4(r16)
100088f8:	dfc00117 	ldw	ra,4(sp)
100088fc:	dc000017 	ldw	r16,0(sp)
10008900:	dec00204 	addi	sp,sp,8
10008904:	f800283a 	ret

10008908 <__copybits>:
10008908:	297fffc4 	addi	r5,r5,-1
1000890c:	31c00417 	ldw	r7,16(r6)
10008910:	2811d17a 	srai	r8,r5,5
10008914:	30800504 	addi	r2,r6,20
10008918:	39c00144 	addi	r7,r7,5
1000891c:	42000044 	addi	r8,r8,1
10008920:	39cf883a 	add	r7,r7,r7
10008924:	4211883a 	add	r8,r8,r8
10008928:	39cf883a 	add	r7,r7,r7
1000892c:	4211883a 	add	r8,r8,r8
10008930:	31cf883a 	add	r7,r6,r7
10008934:	2211883a 	add	r8,r4,r8
10008938:	11c00d2e 	bgeu	r2,r7,10008970 <__copybits+0x68>
1000893c:	2007883a 	mov	r3,r4
10008940:	11400017 	ldw	r5,0(r2)
10008944:	18c00104 	addi	r3,r3,4
10008948:	10800104 	addi	r2,r2,4
1000894c:	197fff15 	stw	r5,-4(r3)
10008950:	11fffb36 	bltu	r2,r7,10008940 <__alt_data_end+0xf8008940>
10008954:	3985c83a 	sub	r2,r7,r6
10008958:	10bffac4 	addi	r2,r2,-21
1000895c:	1004d0ba 	srli	r2,r2,2
10008960:	10800044 	addi	r2,r2,1
10008964:	1085883a 	add	r2,r2,r2
10008968:	1085883a 	add	r2,r2,r2
1000896c:	2089883a 	add	r4,r4,r2
10008970:	2200032e 	bgeu	r4,r8,10008980 <__copybits+0x78>
10008974:	20000015 	stw	zero,0(r4)
10008978:	21000104 	addi	r4,r4,4
1000897c:	223ffd36 	bltu	r4,r8,10008974 <__alt_data_end+0xf8008974>
10008980:	f800283a 	ret

10008984 <__any_on>:
10008984:	21800417 	ldw	r6,16(r4)
10008988:	2805d17a 	srai	r2,r5,5
1000898c:	20c00504 	addi	r3,r4,20
10008990:	30800f0e 	bge	r6,r2,100089d0 <__any_on+0x4c>
10008994:	3005883a 	mov	r2,r6
10008998:	10800144 	addi	r2,r2,5
1000899c:	1085883a 	add	r2,r2,r2
100089a0:	1085883a 	add	r2,r2,r2
100089a4:	2089883a 	add	r4,r4,r2
100089a8:	1900152e 	bgeu	r3,r4,10008a00 <__any_on+0x7c>
100089ac:	20bfff17 	ldw	r2,-4(r4)
100089b0:	213fff04 	addi	r4,r4,-4
100089b4:	1000041e 	bne	r2,zero,100089c8 <__any_on+0x44>
100089b8:	1900112e 	bgeu	r3,r4,10008a00 <__any_on+0x7c>
100089bc:	213fff04 	addi	r4,r4,-4
100089c0:	20800017 	ldw	r2,0(r4)
100089c4:	103ffc26 	beq	r2,zero,100089b8 <__alt_data_end+0xf80089b8>
100089c8:	00800044 	movi	r2,1
100089cc:	f800283a 	ret
100089d0:	11bff10e 	bge	r2,r6,10008998 <__alt_data_end+0xf8008998>
100089d4:	294007cc 	andi	r5,r5,31
100089d8:	283fef26 	beq	r5,zero,10008998 <__alt_data_end+0xf8008998>
100089dc:	11800144 	addi	r6,r2,5
100089e0:	318d883a 	add	r6,r6,r6
100089e4:	318d883a 	add	r6,r6,r6
100089e8:	218d883a 	add	r6,r4,r6
100089ec:	31800017 	ldw	r6,0(r6)
100089f0:	314ed83a 	srl	r7,r6,r5
100089f4:	394a983a 	sll	r5,r7,r5
100089f8:	29bff31e 	bne	r5,r6,100089c8 <__alt_data_end+0xf80089c8>
100089fc:	003fe606 	br	10008998 <__alt_data_end+0xf8008998>
10008a00:	0005883a 	mov	r2,zero
10008a04:	f800283a 	ret

10008a08 <_realloc_r>:
10008a08:	defff504 	addi	sp,sp,-44
10008a0c:	dd400615 	stw	r21,24(sp)
10008a10:	dc800315 	stw	r18,12(sp)
10008a14:	dc000115 	stw	r16,4(sp)
10008a18:	dfc00a15 	stw	ra,40(sp)
10008a1c:	df000915 	stw	fp,36(sp)
10008a20:	ddc00815 	stw	r23,32(sp)
10008a24:	dd800715 	stw	r22,28(sp)
10008a28:	dd000515 	stw	r20,20(sp)
10008a2c:	dcc00415 	stw	r19,16(sp)
10008a30:	dc400215 	stw	r17,8(sp)
10008a34:	2821883a 	mov	r16,r5
10008a38:	202b883a 	mov	r21,r4
10008a3c:	3025883a 	mov	r18,r6
10008a40:	28009626 	beq	r5,zero,10008c9c <_realloc_r+0x294>
10008a44:	000be400 	call	1000be40 <__malloc_lock>
10008a48:	80bfff17 	ldw	r2,-4(r16)
10008a4c:	04ffff04 	movi	r19,-4
10008a50:	90c002c4 	addi	r3,r18,11
10008a54:	01000584 	movi	r4,22
10008a58:	85bffe04 	addi	r22,r16,-8
10008a5c:	14e6703a 	and	r19,r2,r19
10008a60:	20c0372e 	bgeu	r4,r3,10008b40 <_realloc_r+0x138>
10008a64:	047ffe04 	movi	r17,-8
10008a68:	1c62703a 	and	r17,r3,r17
10008a6c:	8807883a 	mov	r3,r17
10008a70:	88005a16 	blt	r17,zero,10008bdc <_realloc_r+0x1d4>
10008a74:	8c805936 	bltu	r17,r18,10008bdc <_realloc_r+0x1d4>
10008a78:	98c0340e 	bge	r19,r3,10008b4c <_realloc_r+0x144>
10008a7c:	07040074 	movhi	fp,4097
10008a80:	e73bd604 	addi	fp,fp,-4264
10008a84:	e1400217 	ldw	r5,8(fp)
10008a88:	b4c9883a 	add	r4,r22,r19
10008a8c:	29009026 	beq	r5,r4,10008cd0 <_realloc_r+0x2c8>
10008a90:	21800117 	ldw	r6,4(r4)
10008a94:	01ffff84 	movi	r7,-2
10008a98:	31ce703a 	and	r7,r6,r7
10008a9c:	21cf883a 	add	r7,r4,r7
10008aa0:	39c00117 	ldw	r7,4(r7)
10008aa4:	39c0004c 	andi	r7,r7,1
10008aa8:	38004326 	beq	r7,zero,10008bb8 <_realloc_r+0x1b0>
10008aac:	000d883a 	mov	r6,zero
10008ab0:	0009883a 	mov	r4,zero
10008ab4:	1080004c 	andi	r2,r2,1
10008ab8:	10005a1e 	bne	r2,zero,10008c24 <_realloc_r+0x21c>
10008abc:	85fffe17 	ldw	r23,-8(r16)
10008ac0:	00bfff04 	movi	r2,-4
10008ac4:	b5efc83a 	sub	r23,r22,r23
10008ac8:	b9c00117 	ldw	r7,4(r23)
10008acc:	388e703a 	and	r7,r7,r2
10008ad0:	3ccf883a 	add	r7,r7,r19
10008ad4:	20005226 	beq	r4,zero,10008c20 <_realloc_r+0x218>
10008ad8:	31e9883a 	add	r20,r6,r7
10008adc:	2140c726 	beq	r4,r5,10008dfc <_realloc_r+0x3f4>
10008ae0:	a0c04f16 	blt	r20,r3,10008c20 <_realloc_r+0x218>
10008ae4:	20800317 	ldw	r2,12(r4)
10008ae8:	20c00217 	ldw	r3,8(r4)
10008aec:	99bfff04 	addi	r6,r19,-4
10008af0:	01000904 	movi	r4,36
10008af4:	18800315 	stw	r2,12(r3)
10008af8:	10c00215 	stw	r3,8(r2)
10008afc:	b8c00217 	ldw	r3,8(r23)
10008b00:	b8800317 	ldw	r2,12(r23)
10008b04:	bc800204 	addi	r18,r23,8
10008b08:	18800315 	stw	r2,12(r3)
10008b0c:	10c00215 	stw	r3,8(r2)
10008b10:	2180ed36 	bltu	r4,r6,10008ec8 <_realloc_r+0x4c0>
10008b14:	008004c4 	movi	r2,19
10008b18:	11809b2e 	bgeu	r2,r6,10008d88 <_realloc_r+0x380>
10008b1c:	80800017 	ldw	r2,0(r16)
10008b20:	b8800215 	stw	r2,8(r23)
10008b24:	80800117 	ldw	r2,4(r16)
10008b28:	b8800315 	stw	r2,12(r23)
10008b2c:	008006c4 	movi	r2,27
10008b30:	1180f936 	bltu	r2,r6,10008f18 <_realloc_r+0x510>
10008b34:	b8800404 	addi	r2,r23,16
10008b38:	80c00204 	addi	r3,r16,8
10008b3c:	00009406 	br	10008d90 <_realloc_r+0x388>
10008b40:	00c00404 	movi	r3,16
10008b44:	1823883a 	mov	r17,r3
10008b48:	003fca06 	br	10008a74 <__alt_data_end+0xf8008a74>
10008b4c:	9829883a 	mov	r20,r19
10008b50:	a447c83a 	sub	r3,r20,r17
10008b54:	010003c4 	movi	r4,15
10008b58:	1080004c 	andi	r2,r2,1
10008b5c:	20c02336 	bltu	r4,r3,10008bec <_realloc_r+0x1e4>
10008b60:	1504b03a 	or	r2,r2,r20
10008b64:	b0800115 	stw	r2,4(r22)
10008b68:	b52d883a 	add	r22,r22,r20
10008b6c:	b0800117 	ldw	r2,4(r22)
10008b70:	10800054 	ori	r2,r2,1
10008b74:	b0800115 	stw	r2,4(r22)
10008b78:	a809883a 	mov	r4,r21
10008b7c:	000be600 	call	1000be60 <__malloc_unlock>
10008b80:	8025883a 	mov	r18,r16
10008b84:	9005883a 	mov	r2,r18
10008b88:	dfc00a17 	ldw	ra,40(sp)
10008b8c:	df000917 	ldw	fp,36(sp)
10008b90:	ddc00817 	ldw	r23,32(sp)
10008b94:	dd800717 	ldw	r22,28(sp)
10008b98:	dd400617 	ldw	r21,24(sp)
10008b9c:	dd000517 	ldw	r20,20(sp)
10008ba0:	dcc00417 	ldw	r19,16(sp)
10008ba4:	dc800317 	ldw	r18,12(sp)
10008ba8:	dc400217 	ldw	r17,8(sp)
10008bac:	dc000117 	ldw	r16,4(sp)
10008bb0:	dec00b04 	addi	sp,sp,44
10008bb4:	f800283a 	ret
10008bb8:	01ffff04 	movi	r7,-4
10008bbc:	31cc703a 	and	r6,r6,r7
10008bc0:	34e9883a 	add	r20,r6,r19
10008bc4:	a0ffbb16 	blt	r20,r3,10008ab4 <__alt_data_end+0xf8008ab4>
10008bc8:	20c00317 	ldw	r3,12(r4)
10008bcc:	21000217 	ldw	r4,8(r4)
10008bd0:	20c00315 	stw	r3,12(r4)
10008bd4:	19000215 	stw	r4,8(r3)
10008bd8:	003fdd06 	br	10008b50 <__alt_data_end+0xf8008b50>
10008bdc:	00800304 	movi	r2,12
10008be0:	a8800015 	stw	r2,0(r21)
10008be4:	0025883a 	mov	r18,zero
10008be8:	003fe606 	br	10008b84 <__alt_data_end+0xf8008b84>
10008bec:	1444b03a 	or	r2,r2,r17
10008bf0:	b0800115 	stw	r2,4(r22)
10008bf4:	b44b883a 	add	r5,r22,r17
10008bf8:	18800054 	ori	r2,r3,1
10008bfc:	28800115 	stw	r2,4(r5)
10008c00:	28c7883a 	add	r3,r5,r3
10008c04:	18800117 	ldw	r2,4(r3)
10008c08:	a809883a 	mov	r4,r21
10008c0c:	29400204 	addi	r5,r5,8
10008c10:	10800054 	ori	r2,r2,1
10008c14:	18800115 	stw	r2,4(r3)
10008c18:	00061fc0 	call	100061fc <_free_r>
10008c1c:	003fd606 	br	10008b78 <__alt_data_end+0xf8008b78>
10008c20:	38c0330e 	bge	r7,r3,10008cf0 <_realloc_r+0x2e8>
10008c24:	900b883a 	mov	r5,r18
10008c28:	a809883a 	mov	r4,r21
10008c2c:	0006d940 	call	10006d94 <_malloc_r>
10008c30:	1025883a 	mov	r18,r2
10008c34:	10001626 	beq	r2,zero,10008c90 <_realloc_r+0x288>
10008c38:	80bfff17 	ldw	r2,-4(r16)
10008c3c:	00ffff84 	movi	r3,-2
10008c40:	913ffe04 	addi	r4,r18,-8
10008c44:	10c6703a 	and	r3,r2,r3
10008c48:	b0c7883a 	add	r3,r22,r3
10008c4c:	20c09926 	beq	r4,r3,10008eb4 <_realloc_r+0x4ac>
10008c50:	99bfff04 	addi	r6,r19,-4
10008c54:	00800904 	movi	r2,36
10008c58:	11806436 	bltu	r2,r6,10008dec <_realloc_r+0x3e4>
10008c5c:	00c004c4 	movi	r3,19
10008c60:	19804036 	bltu	r3,r6,10008d64 <_realloc_r+0x35c>
10008c64:	9005883a 	mov	r2,r18
10008c68:	8007883a 	mov	r3,r16
10008c6c:	19000017 	ldw	r4,0(r3)
10008c70:	11000015 	stw	r4,0(r2)
10008c74:	19000117 	ldw	r4,4(r3)
10008c78:	11000115 	stw	r4,4(r2)
10008c7c:	18c00217 	ldw	r3,8(r3)
10008c80:	10c00215 	stw	r3,8(r2)
10008c84:	a809883a 	mov	r4,r21
10008c88:	800b883a 	mov	r5,r16
10008c8c:	00061fc0 	call	100061fc <_free_r>
10008c90:	a809883a 	mov	r4,r21
10008c94:	000be600 	call	1000be60 <__malloc_unlock>
10008c98:	003fba06 	br	10008b84 <__alt_data_end+0xf8008b84>
10008c9c:	300b883a 	mov	r5,r6
10008ca0:	dfc00a17 	ldw	ra,40(sp)
10008ca4:	df000917 	ldw	fp,36(sp)
10008ca8:	ddc00817 	ldw	r23,32(sp)
10008cac:	dd800717 	ldw	r22,28(sp)
10008cb0:	dd400617 	ldw	r21,24(sp)
10008cb4:	dd000517 	ldw	r20,20(sp)
10008cb8:	dcc00417 	ldw	r19,16(sp)
10008cbc:	dc800317 	ldw	r18,12(sp)
10008cc0:	dc400217 	ldw	r17,8(sp)
10008cc4:	dc000117 	ldw	r16,4(sp)
10008cc8:	dec00b04 	addi	sp,sp,44
10008ccc:	0006d941 	jmpi	10006d94 <_malloc_r>
10008cd0:	29800117 	ldw	r6,4(r5)
10008cd4:	013fff04 	movi	r4,-4
10008cd8:	89c00404 	addi	r7,r17,16
10008cdc:	310c703a 	and	r6,r6,r4
10008ce0:	34c9883a 	add	r4,r6,r19
10008ce4:	21c0340e 	bge	r4,r7,10008db8 <_realloc_r+0x3b0>
10008ce8:	2809883a 	mov	r4,r5
10008cec:	003f7106 	br	10008ab4 <__alt_data_end+0xf8008ab4>
10008cf0:	b8800317 	ldw	r2,12(r23)
10008cf4:	b8c00217 	ldw	r3,8(r23)
10008cf8:	99bfff04 	addi	r6,r19,-4
10008cfc:	01000904 	movi	r4,36
10008d00:	18800315 	stw	r2,12(r3)
10008d04:	10c00215 	stw	r3,8(r2)
10008d08:	bc800204 	addi	r18,r23,8
10008d0c:	21807836 	bltu	r4,r6,10008ef0 <_realloc_r+0x4e8>
10008d10:	008004c4 	movi	r2,19
10008d14:	1180732e 	bgeu	r2,r6,10008ee4 <_realloc_r+0x4dc>
10008d18:	80800017 	ldw	r2,0(r16)
10008d1c:	b8800215 	stw	r2,8(r23)
10008d20:	80800117 	ldw	r2,4(r16)
10008d24:	b8800315 	stw	r2,12(r23)
10008d28:	008006c4 	movi	r2,27
10008d2c:	11808936 	bltu	r2,r6,10008f54 <_realloc_r+0x54c>
10008d30:	b8800404 	addi	r2,r23,16
10008d34:	80c00204 	addi	r3,r16,8
10008d38:	19000017 	ldw	r4,0(r3)
10008d3c:	9021883a 	mov	r16,r18
10008d40:	3829883a 	mov	r20,r7
10008d44:	11000015 	stw	r4,0(r2)
10008d48:	19000117 	ldw	r4,4(r3)
10008d4c:	b82d883a 	mov	r22,r23
10008d50:	11000115 	stw	r4,4(r2)
10008d54:	18c00217 	ldw	r3,8(r3)
10008d58:	10c00215 	stw	r3,8(r2)
10008d5c:	b8800117 	ldw	r2,4(r23)
10008d60:	003f7b06 	br	10008b50 <__alt_data_end+0xf8008b50>
10008d64:	80c00017 	ldw	r3,0(r16)
10008d68:	90c00015 	stw	r3,0(r18)
10008d6c:	80c00117 	ldw	r3,4(r16)
10008d70:	90c00115 	stw	r3,4(r18)
10008d74:	00c006c4 	movi	r3,27
10008d78:	19804636 	bltu	r3,r6,10008e94 <_realloc_r+0x48c>
10008d7c:	90800204 	addi	r2,r18,8
10008d80:	80c00204 	addi	r3,r16,8
10008d84:	003fb906 	br	10008c6c <__alt_data_end+0xf8008c6c>
10008d88:	9005883a 	mov	r2,r18
10008d8c:	8007883a 	mov	r3,r16
10008d90:	19000017 	ldw	r4,0(r3)
10008d94:	9021883a 	mov	r16,r18
10008d98:	b82d883a 	mov	r22,r23
10008d9c:	11000015 	stw	r4,0(r2)
10008da0:	19000117 	ldw	r4,4(r3)
10008da4:	11000115 	stw	r4,4(r2)
10008da8:	18c00217 	ldw	r3,8(r3)
10008dac:	10c00215 	stw	r3,8(r2)
10008db0:	b8800117 	ldw	r2,4(r23)
10008db4:	003f6606 	br	10008b50 <__alt_data_end+0xf8008b50>
10008db8:	2445c83a 	sub	r2,r4,r17
10008dbc:	b46d883a 	add	r22,r22,r17
10008dc0:	10800054 	ori	r2,r2,1
10008dc4:	b0800115 	stw	r2,4(r22)
10008dc8:	80bfff17 	ldw	r2,-4(r16)
10008dcc:	a809883a 	mov	r4,r21
10008dd0:	e5800215 	stw	r22,8(fp)
10008dd4:	1080004c 	andi	r2,r2,1
10008dd8:	88a2b03a 	or	r17,r17,r2
10008ddc:	847fff15 	stw	r17,-4(r16)
10008de0:	000be600 	call	1000be60 <__malloc_unlock>
10008de4:	8025883a 	mov	r18,r16
10008de8:	003f6606 	br	10008b84 <__alt_data_end+0xf8008b84>
10008dec:	9009883a 	mov	r4,r18
10008df0:	800b883a 	mov	r5,r16
10008df4:	00077500 	call	10007750 <memmove>
10008df8:	003fa206 	br	10008c84 <__alt_data_end+0xf8008c84>
10008dfc:	88800404 	addi	r2,r17,16
10008e00:	a0bf8716 	blt	r20,r2,10008c20 <__alt_data_end+0xf8008c20>
10008e04:	b8800317 	ldw	r2,12(r23)
10008e08:	b8c00217 	ldw	r3,8(r23)
10008e0c:	99bfff04 	addi	r6,r19,-4
10008e10:	01000904 	movi	r4,36
10008e14:	18800315 	stw	r2,12(r3)
10008e18:	10c00215 	stw	r3,8(r2)
10008e1c:	bc800204 	addi	r18,r23,8
10008e20:	21806536 	bltu	r4,r6,10008fb8 <_realloc_r+0x5b0>
10008e24:	008004c4 	movi	r2,19
10008e28:	1180592e 	bgeu	r2,r6,10008f90 <_realloc_r+0x588>
10008e2c:	80800017 	ldw	r2,0(r16)
10008e30:	b8800215 	stw	r2,8(r23)
10008e34:	80800117 	ldw	r2,4(r16)
10008e38:	b8800315 	stw	r2,12(r23)
10008e3c:	008006c4 	movi	r2,27
10008e40:	11806136 	bltu	r2,r6,10008fc8 <_realloc_r+0x5c0>
10008e44:	b8800404 	addi	r2,r23,16
10008e48:	80c00204 	addi	r3,r16,8
10008e4c:	19000017 	ldw	r4,0(r3)
10008e50:	11000015 	stw	r4,0(r2)
10008e54:	19000117 	ldw	r4,4(r3)
10008e58:	11000115 	stw	r4,4(r2)
10008e5c:	18c00217 	ldw	r3,8(r3)
10008e60:	10c00215 	stw	r3,8(r2)
10008e64:	a447c83a 	sub	r3,r20,r17
10008e68:	bc45883a 	add	r2,r23,r17
10008e6c:	18c00054 	ori	r3,r3,1
10008e70:	10c00115 	stw	r3,4(r2)
10008e74:	b8c00117 	ldw	r3,4(r23)
10008e78:	e0800215 	stw	r2,8(fp)
10008e7c:	a809883a 	mov	r4,r21
10008e80:	1880004c 	andi	r2,r3,1
10008e84:	88a2b03a 	or	r17,r17,r2
10008e88:	bc400115 	stw	r17,4(r23)
10008e8c:	000be600 	call	1000be60 <__malloc_unlock>
10008e90:	003f3c06 	br	10008b84 <__alt_data_end+0xf8008b84>
10008e94:	80c00217 	ldw	r3,8(r16)
10008e98:	90c00215 	stw	r3,8(r18)
10008e9c:	80c00317 	ldw	r3,12(r16)
10008ea0:	90c00315 	stw	r3,12(r18)
10008ea4:	30802426 	beq	r6,r2,10008f38 <_realloc_r+0x530>
10008ea8:	90800404 	addi	r2,r18,16
10008eac:	80c00404 	addi	r3,r16,16
10008eb0:	003f6e06 	br	10008c6c <__alt_data_end+0xf8008c6c>
10008eb4:	953fff17 	ldw	r20,-4(r18)
10008eb8:	00ffff04 	movi	r3,-4
10008ebc:	a0e8703a 	and	r20,r20,r3
10008ec0:	a4e9883a 	add	r20,r20,r19
10008ec4:	003f2206 	br	10008b50 <__alt_data_end+0xf8008b50>
10008ec8:	800b883a 	mov	r5,r16
10008ecc:	9009883a 	mov	r4,r18
10008ed0:	00077500 	call	10007750 <memmove>
10008ed4:	9021883a 	mov	r16,r18
10008ed8:	b8800117 	ldw	r2,4(r23)
10008edc:	b82d883a 	mov	r22,r23
10008ee0:	003f1b06 	br	10008b50 <__alt_data_end+0xf8008b50>
10008ee4:	9005883a 	mov	r2,r18
10008ee8:	8007883a 	mov	r3,r16
10008eec:	003f9206 	br	10008d38 <__alt_data_end+0xf8008d38>
10008ef0:	800b883a 	mov	r5,r16
10008ef4:	9009883a 	mov	r4,r18
10008ef8:	d9c00015 	stw	r7,0(sp)
10008efc:	00077500 	call	10007750 <memmove>
10008f00:	d9c00017 	ldw	r7,0(sp)
10008f04:	9021883a 	mov	r16,r18
10008f08:	b8800117 	ldw	r2,4(r23)
10008f0c:	3829883a 	mov	r20,r7
10008f10:	b82d883a 	mov	r22,r23
10008f14:	003f0e06 	br	10008b50 <__alt_data_end+0xf8008b50>
10008f18:	80800217 	ldw	r2,8(r16)
10008f1c:	b8800415 	stw	r2,16(r23)
10008f20:	80800317 	ldw	r2,12(r16)
10008f24:	b8800515 	stw	r2,20(r23)
10008f28:	31001226 	beq	r6,r4,10008f74 <_realloc_r+0x56c>
10008f2c:	b8800604 	addi	r2,r23,24
10008f30:	80c00404 	addi	r3,r16,16
10008f34:	003f9606 	br	10008d90 <__alt_data_end+0xf8008d90>
10008f38:	81000417 	ldw	r4,16(r16)
10008f3c:	90800604 	addi	r2,r18,24
10008f40:	80c00604 	addi	r3,r16,24
10008f44:	91000415 	stw	r4,16(r18)
10008f48:	81000517 	ldw	r4,20(r16)
10008f4c:	91000515 	stw	r4,20(r18)
10008f50:	003f4606 	br	10008c6c <__alt_data_end+0xf8008c6c>
10008f54:	80800217 	ldw	r2,8(r16)
10008f58:	b8800415 	stw	r2,16(r23)
10008f5c:	80800317 	ldw	r2,12(r16)
10008f60:	b8800515 	stw	r2,20(r23)
10008f64:	31000d26 	beq	r6,r4,10008f9c <_realloc_r+0x594>
10008f68:	b8800604 	addi	r2,r23,24
10008f6c:	80c00404 	addi	r3,r16,16
10008f70:	003f7106 	br	10008d38 <__alt_data_end+0xf8008d38>
10008f74:	81000417 	ldw	r4,16(r16)
10008f78:	b8800804 	addi	r2,r23,32
10008f7c:	80c00604 	addi	r3,r16,24
10008f80:	b9000615 	stw	r4,24(r23)
10008f84:	81000517 	ldw	r4,20(r16)
10008f88:	b9000715 	stw	r4,28(r23)
10008f8c:	003f8006 	br	10008d90 <__alt_data_end+0xf8008d90>
10008f90:	9005883a 	mov	r2,r18
10008f94:	8007883a 	mov	r3,r16
10008f98:	003fac06 	br	10008e4c <__alt_data_end+0xf8008e4c>
10008f9c:	81000417 	ldw	r4,16(r16)
10008fa0:	b8800804 	addi	r2,r23,32
10008fa4:	80c00604 	addi	r3,r16,24
10008fa8:	b9000615 	stw	r4,24(r23)
10008fac:	81000517 	ldw	r4,20(r16)
10008fb0:	b9000715 	stw	r4,28(r23)
10008fb4:	003f6006 	br	10008d38 <__alt_data_end+0xf8008d38>
10008fb8:	9009883a 	mov	r4,r18
10008fbc:	800b883a 	mov	r5,r16
10008fc0:	00077500 	call	10007750 <memmove>
10008fc4:	003fa706 	br	10008e64 <__alt_data_end+0xf8008e64>
10008fc8:	80800217 	ldw	r2,8(r16)
10008fcc:	b8800415 	stw	r2,16(r23)
10008fd0:	80800317 	ldw	r2,12(r16)
10008fd4:	b8800515 	stw	r2,20(r23)
10008fd8:	31000326 	beq	r6,r4,10008fe8 <_realloc_r+0x5e0>
10008fdc:	b8800604 	addi	r2,r23,24
10008fe0:	80c00404 	addi	r3,r16,16
10008fe4:	003f9906 	br	10008e4c <__alt_data_end+0xf8008e4c>
10008fe8:	81000417 	ldw	r4,16(r16)
10008fec:	b8800804 	addi	r2,r23,32
10008ff0:	80c00604 	addi	r3,r16,24
10008ff4:	b9000615 	stw	r4,24(r23)
10008ff8:	81000517 	ldw	r4,20(r16)
10008ffc:	b9000715 	stw	r4,28(r23)
10009000:	003f9206 	br	10008e4c <__alt_data_end+0xf8008e4c>

10009004 <__isinfd>:
10009004:	0105c83a 	sub	r2,zero,r4
10009008:	1108b03a 	or	r4,r2,r4
1000900c:	2004d7fa 	srli	r2,r4,31
10009010:	00e00034 	movhi	r3,32768
10009014:	18ffffc4 	addi	r3,r3,-1
10009018:	28ca703a 	and	r5,r5,r3
1000901c:	1144b03a 	or	r2,r2,r5
10009020:	00dffc34 	movhi	r3,32752
10009024:	1885c83a 	sub	r2,r3,r2
10009028:	0087c83a 	sub	r3,zero,r2
1000902c:	1884b03a 	or	r2,r3,r2
10009030:	1005d7fa 	srai	r2,r2,31
10009034:	10800044 	addi	r2,r2,1
10009038:	f800283a 	ret

1000903c <__isnand>:
1000903c:	0105c83a 	sub	r2,zero,r4
10009040:	1108b03a 	or	r4,r2,r4
10009044:	2004d7fa 	srli	r2,r4,31
10009048:	00e00034 	movhi	r3,32768
1000904c:	18ffffc4 	addi	r3,r3,-1
10009050:	28ca703a 	and	r5,r5,r3
10009054:	1144b03a 	or	r2,r2,r5
10009058:	00dffc34 	movhi	r3,32752
1000905c:	1885c83a 	sub	r2,r3,r2
10009060:	1004d7fa 	srli	r2,r2,31
10009064:	f800283a 	ret

10009068 <_sbrk_r>:
10009068:	defffd04 	addi	sp,sp,-12
1000906c:	dc400115 	stw	r17,4(sp)
10009070:	dc000015 	stw	r16,0(sp)
10009074:	2023883a 	mov	r17,r4
10009078:	04040074 	movhi	r16,4097
1000907c:	84080604 	addi	r16,r16,8216
10009080:	2809883a 	mov	r4,r5
10009084:	dfc00215 	stw	ra,8(sp)
10009088:	80000015 	stw	zero,0(r16)
1000908c:	000c0440 	call	1000c044 <sbrk>
10009090:	00ffffc4 	movi	r3,-1
10009094:	10c00526 	beq	r2,r3,100090ac <_sbrk_r+0x44>
10009098:	dfc00217 	ldw	ra,8(sp)
1000909c:	dc400117 	ldw	r17,4(sp)
100090a0:	dc000017 	ldw	r16,0(sp)
100090a4:	dec00304 	addi	sp,sp,12
100090a8:	f800283a 	ret
100090ac:	80c00017 	ldw	r3,0(r16)
100090b0:	183ff926 	beq	r3,zero,10009098 <__alt_data_end+0xf8009098>
100090b4:	88c00015 	stw	r3,0(r17)
100090b8:	dfc00217 	ldw	ra,8(sp)
100090bc:	dc400117 	ldw	r17,4(sp)
100090c0:	dc000017 	ldw	r16,0(sp)
100090c4:	dec00304 	addi	sp,sp,12
100090c8:	f800283a 	ret

100090cc <__sread>:
100090cc:	defffe04 	addi	sp,sp,-8
100090d0:	dc000015 	stw	r16,0(sp)
100090d4:	2821883a 	mov	r16,r5
100090d8:	2940038f 	ldh	r5,14(r5)
100090dc:	dfc00115 	stw	ra,4(sp)
100090e0:	00096d40 	call	100096d4 <_read_r>
100090e4:	10000716 	blt	r2,zero,10009104 <__sread+0x38>
100090e8:	80c01417 	ldw	r3,80(r16)
100090ec:	1887883a 	add	r3,r3,r2
100090f0:	80c01415 	stw	r3,80(r16)
100090f4:	dfc00117 	ldw	ra,4(sp)
100090f8:	dc000017 	ldw	r16,0(sp)
100090fc:	dec00204 	addi	sp,sp,8
10009100:	f800283a 	ret
10009104:	80c0030b 	ldhu	r3,12(r16)
10009108:	18fbffcc 	andi	r3,r3,61439
1000910c:	80c0030d 	sth	r3,12(r16)
10009110:	dfc00117 	ldw	ra,4(sp)
10009114:	dc000017 	ldw	r16,0(sp)
10009118:	dec00204 	addi	sp,sp,8
1000911c:	f800283a 	ret

10009120 <__swrite>:
10009120:	2880030b 	ldhu	r2,12(r5)
10009124:	defffb04 	addi	sp,sp,-20
10009128:	dcc00315 	stw	r19,12(sp)
1000912c:	10c0400c 	andi	r3,r2,256
10009130:	18ffffcc 	andi	r3,r3,65535
10009134:	18e0001c 	xori	r3,r3,32768
10009138:	dc800215 	stw	r18,8(sp)
1000913c:	dc400115 	stw	r17,4(sp)
10009140:	dc000015 	stw	r16,0(sp)
10009144:	dfc00415 	stw	ra,16(sp)
10009148:	18e00004 	addi	r3,r3,-32768
1000914c:	2821883a 	mov	r16,r5
10009150:	2027883a 	mov	r19,r4
10009154:	3025883a 	mov	r18,r6
10009158:	3823883a 	mov	r17,r7
1000915c:	18000526 	beq	r3,zero,10009174 <__swrite+0x54>
10009160:	2940038f 	ldh	r5,14(r5)
10009164:	000d883a 	mov	r6,zero
10009168:	01c00084 	movi	r7,2
1000916c:	00096680 	call	10009668 <_lseek_r>
10009170:	8080030b 	ldhu	r2,12(r16)
10009174:	8140038f 	ldh	r5,14(r16)
10009178:	10bbffcc 	andi	r2,r2,61439
1000917c:	9809883a 	mov	r4,r19
10009180:	900d883a 	mov	r6,r18
10009184:	880f883a 	mov	r7,r17
10009188:	8080030d 	sth	r2,12(r16)
1000918c:	dfc00417 	ldw	ra,16(sp)
10009190:	dcc00317 	ldw	r19,12(sp)
10009194:	dc800217 	ldw	r18,8(sp)
10009198:	dc400117 	ldw	r17,4(sp)
1000919c:	dc000017 	ldw	r16,0(sp)
100091a0:	dec00504 	addi	sp,sp,20
100091a4:	00092b01 	jmpi	100092b0 <_write_r>

100091a8 <__sseek>:
100091a8:	defffe04 	addi	sp,sp,-8
100091ac:	dc000015 	stw	r16,0(sp)
100091b0:	2821883a 	mov	r16,r5
100091b4:	2940038f 	ldh	r5,14(r5)
100091b8:	dfc00115 	stw	ra,4(sp)
100091bc:	00096680 	call	10009668 <_lseek_r>
100091c0:	00ffffc4 	movi	r3,-1
100091c4:	10c00826 	beq	r2,r3,100091e8 <__sseek+0x40>
100091c8:	80c0030b 	ldhu	r3,12(r16)
100091cc:	80801415 	stw	r2,80(r16)
100091d0:	18c40014 	ori	r3,r3,4096
100091d4:	80c0030d 	sth	r3,12(r16)
100091d8:	dfc00117 	ldw	ra,4(sp)
100091dc:	dc000017 	ldw	r16,0(sp)
100091e0:	dec00204 	addi	sp,sp,8
100091e4:	f800283a 	ret
100091e8:	80c0030b 	ldhu	r3,12(r16)
100091ec:	18fbffcc 	andi	r3,r3,61439
100091f0:	80c0030d 	sth	r3,12(r16)
100091f4:	dfc00117 	ldw	ra,4(sp)
100091f8:	dc000017 	ldw	r16,0(sp)
100091fc:	dec00204 	addi	sp,sp,8
10009200:	f800283a 	ret

10009204 <__sclose>:
10009204:	2940038f 	ldh	r5,14(r5)
10009208:	00093e81 	jmpi	100093e8 <_close_r>

1000920c <strcmp>:
1000920c:	2904b03a 	or	r2,r5,r4
10009210:	108000cc 	andi	r2,r2,3
10009214:	1000171e 	bne	r2,zero,10009274 <strcmp+0x68>
10009218:	20800017 	ldw	r2,0(r4)
1000921c:	28c00017 	ldw	r3,0(r5)
10009220:	10c0141e 	bne	r2,r3,10009274 <strcmp+0x68>
10009224:	027fbff4 	movhi	r9,65279
10009228:	4a7fbfc4 	addi	r9,r9,-257
1000922c:	1247883a 	add	r3,r2,r9
10009230:	0084303a 	nor	r2,zero,r2
10009234:	1884703a 	and	r2,r3,r2
10009238:	02202074 	movhi	r8,32897
1000923c:	42202004 	addi	r8,r8,-32640
10009240:	1204703a 	and	r2,r2,r8
10009244:	10000226 	beq	r2,zero,10009250 <strcmp+0x44>
10009248:	00001706 	br	100092a8 <strcmp+0x9c>
1000924c:	3000161e 	bne	r6,zero,100092a8 <strcmp+0x9c>
10009250:	21000104 	addi	r4,r4,4
10009254:	20800017 	ldw	r2,0(r4)
10009258:	29400104 	addi	r5,r5,4
1000925c:	28c00017 	ldw	r3,0(r5)
10009260:	124f883a 	add	r7,r2,r9
10009264:	008c303a 	nor	r6,zero,r2
10009268:	398c703a 	and	r6,r7,r6
1000926c:	320c703a 	and	r6,r6,r8
10009270:	10fff626 	beq	r2,r3,1000924c <__alt_data_end+0xf800924c>
10009274:	20800007 	ldb	r2,0(r4)
10009278:	1000051e 	bne	r2,zero,10009290 <strcmp+0x84>
1000927c:	00000606 	br	10009298 <strcmp+0x8c>
10009280:	21000044 	addi	r4,r4,1
10009284:	20800007 	ldb	r2,0(r4)
10009288:	29400044 	addi	r5,r5,1
1000928c:	10000226 	beq	r2,zero,10009298 <strcmp+0x8c>
10009290:	28c00007 	ldb	r3,0(r5)
10009294:	10fffa26 	beq	r2,r3,10009280 <__alt_data_end+0xf8009280>
10009298:	20c00003 	ldbu	r3,0(r4)
1000929c:	28800003 	ldbu	r2,0(r5)
100092a0:	1885c83a 	sub	r2,r3,r2
100092a4:	f800283a 	ret
100092a8:	0005883a 	mov	r2,zero
100092ac:	f800283a 	ret

100092b0 <_write_r>:
100092b0:	defffd04 	addi	sp,sp,-12
100092b4:	dc400115 	stw	r17,4(sp)
100092b8:	dc000015 	stw	r16,0(sp)
100092bc:	2023883a 	mov	r17,r4
100092c0:	04040074 	movhi	r16,4097
100092c4:	84080604 	addi	r16,r16,8216
100092c8:	2809883a 	mov	r4,r5
100092cc:	300b883a 	mov	r5,r6
100092d0:	380d883a 	mov	r6,r7
100092d4:	dfc00215 	stw	ra,8(sp)
100092d8:	80000015 	stw	zero,0(r16)
100092dc:	000c1740 	call	1000c174 <write>
100092e0:	00ffffc4 	movi	r3,-1
100092e4:	10c00526 	beq	r2,r3,100092fc <_write_r+0x4c>
100092e8:	dfc00217 	ldw	ra,8(sp)
100092ec:	dc400117 	ldw	r17,4(sp)
100092f0:	dc000017 	ldw	r16,0(sp)
100092f4:	dec00304 	addi	sp,sp,12
100092f8:	f800283a 	ret
100092fc:	80c00017 	ldw	r3,0(r16)
10009300:	183ff926 	beq	r3,zero,100092e8 <__alt_data_end+0xf80092e8>
10009304:	88c00015 	stw	r3,0(r17)
10009308:	dfc00217 	ldw	ra,8(sp)
1000930c:	dc400117 	ldw	r17,4(sp)
10009310:	dc000017 	ldw	r16,0(sp)
10009314:	dec00304 	addi	sp,sp,12
10009318:	f800283a 	ret

1000931c <_calloc_r>:
1000931c:	defffe04 	addi	sp,sp,-8
10009320:	dc000015 	stw	r16,0(sp)
10009324:	2021883a 	mov	r16,r4
10009328:	3009883a 	mov	r4,r6
1000932c:	dfc00115 	stw	ra,4(sp)
10009330:	000b2180 	call	1000b218 <__mulsi3>
10009334:	8009883a 	mov	r4,r16
10009338:	100b883a 	mov	r5,r2
1000933c:	0006d940 	call	10006d94 <_malloc_r>
10009340:	1021883a 	mov	r16,r2
10009344:	10000c26 	beq	r2,zero,10009378 <_calloc_r+0x5c>
10009348:	11bfff17 	ldw	r6,-4(r2)
1000934c:	00ffff04 	movi	r3,-4
10009350:	00800904 	movi	r2,36
10009354:	30cc703a 	and	r6,r6,r3
10009358:	30cd883a 	add	r6,r6,r3
1000935c:	11801436 	bltu	r2,r6,100093b0 <_calloc_r+0x94>
10009360:	00c004c4 	movi	r3,19
10009364:	19800936 	bltu	r3,r6,1000938c <_calloc_r+0x70>
10009368:	8005883a 	mov	r2,r16
1000936c:	10000015 	stw	zero,0(r2)
10009370:	10000115 	stw	zero,4(r2)
10009374:	10000215 	stw	zero,8(r2)
10009378:	8005883a 	mov	r2,r16
1000937c:	dfc00117 	ldw	ra,4(sp)
10009380:	dc000017 	ldw	r16,0(sp)
10009384:	dec00204 	addi	sp,sp,8
10009388:	f800283a 	ret
1000938c:	80000015 	stw	zero,0(r16)
10009390:	80000115 	stw	zero,4(r16)
10009394:	00c006c4 	movi	r3,27
10009398:	19800d2e 	bgeu	r3,r6,100093d0 <_calloc_r+0xb4>
1000939c:	80000215 	stw	zero,8(r16)
100093a0:	80000315 	stw	zero,12(r16)
100093a4:	30800c26 	beq	r6,r2,100093d8 <_calloc_r+0xbc>
100093a8:	80800404 	addi	r2,r16,16
100093ac:	003fef06 	br	1000936c <__alt_data_end+0xf800936c>
100093b0:	8009883a 	mov	r4,r16
100093b4:	000b883a 	mov	r5,zero
100093b8:	00078dc0 	call	100078dc <memset>
100093bc:	8005883a 	mov	r2,r16
100093c0:	dfc00117 	ldw	ra,4(sp)
100093c4:	dc000017 	ldw	r16,0(sp)
100093c8:	dec00204 	addi	sp,sp,8
100093cc:	f800283a 	ret
100093d0:	80800204 	addi	r2,r16,8
100093d4:	003fe506 	br	1000936c <__alt_data_end+0xf800936c>
100093d8:	80000415 	stw	zero,16(r16)
100093dc:	80000515 	stw	zero,20(r16)
100093e0:	80800604 	addi	r2,r16,24
100093e4:	003fe106 	br	1000936c <__alt_data_end+0xf800936c>

100093e8 <_close_r>:
100093e8:	defffd04 	addi	sp,sp,-12
100093ec:	dc400115 	stw	r17,4(sp)
100093f0:	dc000015 	stw	r16,0(sp)
100093f4:	2023883a 	mov	r17,r4
100093f8:	04040074 	movhi	r16,4097
100093fc:	84080604 	addi	r16,r16,8216
10009400:	2809883a 	mov	r4,r5
10009404:	dfc00215 	stw	ra,8(sp)
10009408:	80000015 	stw	zero,0(r16)
1000940c:	000b8cc0 	call	1000b8cc <close>
10009410:	00ffffc4 	movi	r3,-1
10009414:	10c00526 	beq	r2,r3,1000942c <_close_r+0x44>
10009418:	dfc00217 	ldw	ra,8(sp)
1000941c:	dc400117 	ldw	r17,4(sp)
10009420:	dc000017 	ldw	r16,0(sp)
10009424:	dec00304 	addi	sp,sp,12
10009428:	f800283a 	ret
1000942c:	80c00017 	ldw	r3,0(r16)
10009430:	183ff926 	beq	r3,zero,10009418 <__alt_data_end+0xf8009418>
10009434:	88c00015 	stw	r3,0(r17)
10009438:	dfc00217 	ldw	ra,8(sp)
1000943c:	dc400117 	ldw	r17,4(sp)
10009440:	dc000017 	ldw	r16,0(sp)
10009444:	dec00304 	addi	sp,sp,12
10009448:	f800283a 	ret

1000944c <_fclose_r>:
1000944c:	defffc04 	addi	sp,sp,-16
10009450:	dc400115 	stw	r17,4(sp)
10009454:	dc000015 	stw	r16,0(sp)
10009458:	dfc00315 	stw	ra,12(sp)
1000945c:	dc800215 	stw	r18,8(sp)
10009460:	2821883a 	mov	r16,r5
10009464:	2023883a 	mov	r17,r4
10009468:	28003426 	beq	r5,zero,1000953c <_fclose_r+0xf0>
1000946c:	00060800 	call	10006080 <__sfp_lock_acquire>
10009470:	88000226 	beq	r17,zero,1000947c <_fclose_r+0x30>
10009474:	88800e17 	ldw	r2,56(r17)
10009478:	10003826 	beq	r2,zero,1000955c <_fclose_r+0x110>
1000947c:	8080030f 	ldh	r2,12(r16)
10009480:	10002526 	beq	r2,zero,10009518 <_fclose_r+0xcc>
10009484:	8809883a 	mov	r4,r17
10009488:	800b883a 	mov	r5,r16
1000948c:	0005bbc0 	call	10005bbc <_fflush_r>
10009490:	1025883a 	mov	r18,r2
10009494:	80800b17 	ldw	r2,44(r16)
10009498:	10000426 	beq	r2,zero,100094ac <_fclose_r+0x60>
1000949c:	81400717 	ldw	r5,28(r16)
100094a0:	8809883a 	mov	r4,r17
100094a4:	103ee83a 	callr	r2
100094a8:	10003516 	blt	r2,zero,10009580 <_fclose_r+0x134>
100094ac:	8080030b 	ldhu	r2,12(r16)
100094b0:	1080200c 	andi	r2,r2,128
100094b4:	10bfffcc 	andi	r2,r2,65535
100094b8:	10a0001c 	xori	r2,r2,32768
100094bc:	10a00004 	addi	r2,r2,-32768
100094c0:	10002b1e 	bne	r2,zero,10009570 <_fclose_r+0x124>
100094c4:	81400c17 	ldw	r5,48(r16)
100094c8:	28000526 	beq	r5,zero,100094e0 <_fclose_r+0x94>
100094cc:	80801004 	addi	r2,r16,64
100094d0:	28800226 	beq	r5,r2,100094dc <_fclose_r+0x90>
100094d4:	8809883a 	mov	r4,r17
100094d8:	00061fc0 	call	100061fc <_free_r>
100094dc:	80000c15 	stw	zero,48(r16)
100094e0:	81401117 	ldw	r5,68(r16)
100094e4:	28000326 	beq	r5,zero,100094f4 <_fclose_r+0xa8>
100094e8:	8809883a 	mov	r4,r17
100094ec:	00061fc0 	call	100061fc <_free_r>
100094f0:	80001115 	stw	zero,68(r16)
100094f4:	8000030d 	sth	zero,12(r16)
100094f8:	00060840 	call	10006084 <__sfp_lock_release>
100094fc:	9005883a 	mov	r2,r18
10009500:	dfc00317 	ldw	ra,12(sp)
10009504:	dc800217 	ldw	r18,8(sp)
10009508:	dc400117 	ldw	r17,4(sp)
1000950c:	dc000017 	ldw	r16,0(sp)
10009510:	dec00404 	addi	sp,sp,16
10009514:	f800283a 	ret
10009518:	00060840 	call	10006084 <__sfp_lock_release>
1000951c:	0025883a 	mov	r18,zero
10009520:	9005883a 	mov	r2,r18
10009524:	dfc00317 	ldw	ra,12(sp)
10009528:	dc800217 	ldw	r18,8(sp)
1000952c:	dc400117 	ldw	r17,4(sp)
10009530:	dc000017 	ldw	r16,0(sp)
10009534:	dec00404 	addi	sp,sp,16
10009538:	f800283a 	ret
1000953c:	0025883a 	mov	r18,zero
10009540:	9005883a 	mov	r2,r18
10009544:	dfc00317 	ldw	ra,12(sp)
10009548:	dc800217 	ldw	r18,8(sp)
1000954c:	dc400117 	ldw	r17,4(sp)
10009550:	dc000017 	ldw	r16,0(sp)
10009554:	dec00404 	addi	sp,sp,16
10009558:	f800283a 	ret
1000955c:	8809883a 	mov	r4,r17
10009560:	0005e780 	call	10005e78 <__sinit>
10009564:	8080030f 	ldh	r2,12(r16)
10009568:	103fc61e 	bne	r2,zero,10009484 <__alt_data_end+0xf8009484>
1000956c:	003fea06 	br	10009518 <__alt_data_end+0xf8009518>
10009570:	81400417 	ldw	r5,16(r16)
10009574:	8809883a 	mov	r4,r17
10009578:	00061fc0 	call	100061fc <_free_r>
1000957c:	003fd106 	br	100094c4 <__alt_data_end+0xf80094c4>
10009580:	04bfffc4 	movi	r18,-1
10009584:	003fc906 	br	100094ac <__alt_data_end+0xf80094ac>

10009588 <fclose>:
10009588:	00840074 	movhi	r2,4097
1000958c:	10815b04 	addi	r2,r2,1388
10009590:	200b883a 	mov	r5,r4
10009594:	11000017 	ldw	r4,0(r2)
10009598:	000944c1 	jmpi	1000944c <_fclose_r>

1000959c <_fstat_r>:
1000959c:	defffd04 	addi	sp,sp,-12
100095a0:	dc400115 	stw	r17,4(sp)
100095a4:	dc000015 	stw	r16,0(sp)
100095a8:	2023883a 	mov	r17,r4
100095ac:	04040074 	movhi	r16,4097
100095b0:	84080604 	addi	r16,r16,8216
100095b4:	2809883a 	mov	r4,r5
100095b8:	300b883a 	mov	r5,r6
100095bc:	dfc00215 	stw	ra,8(sp)
100095c0:	80000015 	stw	zero,0(r16)
100095c4:	000ba140 	call	1000ba14 <fstat>
100095c8:	00ffffc4 	movi	r3,-1
100095cc:	10c00526 	beq	r2,r3,100095e4 <_fstat_r+0x48>
100095d0:	dfc00217 	ldw	ra,8(sp)
100095d4:	dc400117 	ldw	r17,4(sp)
100095d8:	dc000017 	ldw	r16,0(sp)
100095dc:	dec00304 	addi	sp,sp,12
100095e0:	f800283a 	ret
100095e4:	80c00017 	ldw	r3,0(r16)
100095e8:	183ff926 	beq	r3,zero,100095d0 <__alt_data_end+0xf80095d0>
100095ec:	88c00015 	stw	r3,0(r17)
100095f0:	dfc00217 	ldw	ra,8(sp)
100095f4:	dc400117 	ldw	r17,4(sp)
100095f8:	dc000017 	ldw	r16,0(sp)
100095fc:	dec00304 	addi	sp,sp,12
10009600:	f800283a 	ret

10009604 <_isatty_r>:
10009604:	defffd04 	addi	sp,sp,-12
10009608:	dc400115 	stw	r17,4(sp)
1000960c:	dc000015 	stw	r16,0(sp)
10009610:	2023883a 	mov	r17,r4
10009614:	04040074 	movhi	r16,4097
10009618:	84080604 	addi	r16,r16,8216
1000961c:	2809883a 	mov	r4,r5
10009620:	dfc00215 	stw	ra,8(sp)
10009624:	80000015 	stw	zero,0(r16)
10009628:	000bb140 	call	1000bb14 <isatty>
1000962c:	00ffffc4 	movi	r3,-1
10009630:	10c00526 	beq	r2,r3,10009648 <_isatty_r+0x44>
10009634:	dfc00217 	ldw	ra,8(sp)
10009638:	dc400117 	ldw	r17,4(sp)
1000963c:	dc000017 	ldw	r16,0(sp)
10009640:	dec00304 	addi	sp,sp,12
10009644:	f800283a 	ret
10009648:	80c00017 	ldw	r3,0(r16)
1000964c:	183ff926 	beq	r3,zero,10009634 <__alt_data_end+0xf8009634>
10009650:	88c00015 	stw	r3,0(r17)
10009654:	dfc00217 	ldw	ra,8(sp)
10009658:	dc400117 	ldw	r17,4(sp)
1000965c:	dc000017 	ldw	r16,0(sp)
10009660:	dec00304 	addi	sp,sp,12
10009664:	f800283a 	ret

10009668 <_lseek_r>:
10009668:	defffd04 	addi	sp,sp,-12
1000966c:	dc400115 	stw	r17,4(sp)
10009670:	dc000015 	stw	r16,0(sp)
10009674:	2023883a 	mov	r17,r4
10009678:	04040074 	movhi	r16,4097
1000967c:	84080604 	addi	r16,r16,8216
10009680:	2809883a 	mov	r4,r5
10009684:	300b883a 	mov	r5,r6
10009688:	380d883a 	mov	r6,r7
1000968c:	dfc00215 	stw	ra,8(sp)
10009690:	80000015 	stw	zero,0(r16)
10009694:	000bcf40 	call	1000bcf4 <lseek>
10009698:	00ffffc4 	movi	r3,-1
1000969c:	10c00526 	beq	r2,r3,100096b4 <_lseek_r+0x4c>
100096a0:	dfc00217 	ldw	ra,8(sp)
100096a4:	dc400117 	ldw	r17,4(sp)
100096a8:	dc000017 	ldw	r16,0(sp)
100096ac:	dec00304 	addi	sp,sp,12
100096b0:	f800283a 	ret
100096b4:	80c00017 	ldw	r3,0(r16)
100096b8:	183ff926 	beq	r3,zero,100096a0 <__alt_data_end+0xf80096a0>
100096bc:	88c00015 	stw	r3,0(r17)
100096c0:	dfc00217 	ldw	ra,8(sp)
100096c4:	dc400117 	ldw	r17,4(sp)
100096c8:	dc000017 	ldw	r16,0(sp)
100096cc:	dec00304 	addi	sp,sp,12
100096d0:	f800283a 	ret

100096d4 <_read_r>:
100096d4:	defffd04 	addi	sp,sp,-12
100096d8:	dc400115 	stw	r17,4(sp)
100096dc:	dc000015 	stw	r16,0(sp)
100096e0:	2023883a 	mov	r17,r4
100096e4:	04040074 	movhi	r16,4097
100096e8:	84080604 	addi	r16,r16,8216
100096ec:	2809883a 	mov	r4,r5
100096f0:	300b883a 	mov	r5,r6
100096f4:	380d883a 	mov	r6,r7
100096f8:	dfc00215 	stw	ra,8(sp)
100096fc:	80000015 	stw	zero,0(r16)
10009700:	000bed00 	call	1000bed0 <read>
10009704:	00ffffc4 	movi	r3,-1
10009708:	10c00526 	beq	r2,r3,10009720 <_read_r+0x4c>
1000970c:	dfc00217 	ldw	ra,8(sp)
10009710:	dc400117 	ldw	r17,4(sp)
10009714:	dc000017 	ldw	r16,0(sp)
10009718:	dec00304 	addi	sp,sp,12
1000971c:	f800283a 	ret
10009720:	80c00017 	ldw	r3,0(r16)
10009724:	183ff926 	beq	r3,zero,1000970c <__alt_data_end+0xf800970c>
10009728:	88c00015 	stw	r3,0(r17)
1000972c:	dfc00217 	ldw	ra,8(sp)
10009730:	dc400117 	ldw	r17,4(sp)
10009734:	dc000017 	ldw	r16,0(sp)
10009738:	dec00304 	addi	sp,sp,12
1000973c:	f800283a 	ret

10009740 <__udivdi3>:
10009740:	defff504 	addi	sp,sp,-44
10009744:	dd000515 	stw	r20,20(sp)
10009748:	dcc00415 	stw	r19,16(sp)
1000974c:	dc800315 	stw	r18,12(sp)
10009750:	dc400215 	stw	r17,8(sp)
10009754:	dc000115 	stw	r16,4(sp)
10009758:	dfc00a15 	stw	ra,40(sp)
1000975c:	df000915 	stw	fp,36(sp)
10009760:	ddc00815 	stw	r23,32(sp)
10009764:	dd800715 	stw	r22,28(sp)
10009768:	dd400615 	stw	r21,24(sp)
1000976c:	2025883a 	mov	r18,r4
10009770:	2823883a 	mov	r17,r5
10009774:	3021883a 	mov	r16,r6
10009778:	2027883a 	mov	r19,r4
1000977c:	2829883a 	mov	r20,r5
10009780:	3800451e 	bne	r7,zero,10009898 <__udivdi3+0x158>
10009784:	2980652e 	bgeu	r5,r6,1000991c <__udivdi3+0x1dc>
10009788:	00bfffd4 	movui	r2,65535
1000978c:	1180b436 	bltu	r2,r6,10009a60 <__udivdi3+0x320>
10009790:	00803fc4 	movi	r2,255
10009794:	11816636 	bltu	r2,r6,10009d30 <__udivdi3+0x5f0>
10009798:	0005883a 	mov	r2,zero
1000979c:	0007883a 	mov	r3,zero
100097a0:	3084d83a 	srl	r2,r6,r2
100097a4:	01040074 	movhi	r4,4097
100097a8:	213a8604 	addi	r4,r4,-5608
100097ac:	2085883a 	add	r2,r4,r2
100097b0:	10800003 	ldbu	r2,0(r2)
100097b4:	10c7883a 	add	r3,r2,r3
100097b8:	00800804 	movi	r2,32
100097bc:	10c5c83a 	sub	r2,r2,r3
100097c0:	10000526 	beq	r2,zero,100097d8 <__udivdi3+0x98>
100097c4:	88a2983a 	sll	r17,r17,r2
100097c8:	90c6d83a 	srl	r3,r18,r3
100097cc:	30a0983a 	sll	r16,r6,r2
100097d0:	90a6983a 	sll	r19,r18,r2
100097d4:	88e8b03a 	or	r20,r17,r3
100097d8:	8022d43a 	srli	r17,r16,16
100097dc:	a009883a 	mov	r4,r20
100097e0:	857fffcc 	andi	r21,r16,65535
100097e4:	880b883a 	mov	r5,r17
100097e8:	000b2100 	call	1000b210 <__umodsi3>
100097ec:	a009883a 	mov	r4,r20
100097f0:	880b883a 	mov	r5,r17
100097f4:	102d883a 	mov	r22,r2
100097f8:	000b2080 	call	1000b208 <__udivsi3>
100097fc:	1009883a 	mov	r4,r2
10009800:	a80b883a 	mov	r5,r21
10009804:	1025883a 	mov	r18,r2
10009808:	000b2180 	call	1000b218 <__mulsi3>
1000980c:	1009883a 	mov	r4,r2
10009810:	b006943a 	slli	r3,r22,16
10009814:	9804d43a 	srli	r2,r19,16
10009818:	1886b03a 	or	r3,r3,r2
1000981c:	1900052e 	bgeu	r3,r4,10009834 <__udivdi3+0xf4>
10009820:	1c07883a 	add	r3,r3,r16
10009824:	90bfffc4 	addi	r2,r18,-1
10009828:	1c000136 	bltu	r3,r16,10009830 <__udivdi3+0xf0>
1000982c:	19015536 	bltu	r3,r4,10009d84 <__udivdi3+0x644>
10009830:	1025883a 	mov	r18,r2
10009834:	1929c83a 	sub	r20,r3,r4
10009838:	880b883a 	mov	r5,r17
1000983c:	a009883a 	mov	r4,r20
10009840:	000b2100 	call	1000b210 <__umodsi3>
10009844:	102d883a 	mov	r22,r2
10009848:	880b883a 	mov	r5,r17
1000984c:	a009883a 	mov	r4,r20
10009850:	b02c943a 	slli	r22,r22,16
10009854:	000b2080 	call	1000b208 <__udivsi3>
10009858:	1009883a 	mov	r4,r2
1000985c:	a80b883a 	mov	r5,r21
10009860:	9cffffcc 	andi	r19,r19,65535
10009864:	1023883a 	mov	r17,r2
10009868:	b4e6b03a 	or	r19,r22,r19
1000986c:	000b2180 	call	1000b218 <__mulsi3>
10009870:	9880052e 	bgeu	r19,r2,10009888 <__udivdi3+0x148>
10009874:	9c27883a 	add	r19,r19,r16
10009878:	88ffffc4 	addi	r3,r17,-1
1000987c:	9c011436 	bltu	r19,r16,10009cd0 <__udivdi3+0x590>
10009880:	9881132e 	bgeu	r19,r2,10009cd0 <__udivdi3+0x590>
10009884:	8c7fff84 	addi	r17,r17,-2
10009888:	9004943a 	slli	r2,r18,16
1000988c:	0007883a 	mov	r3,zero
10009890:	8884b03a 	or	r2,r17,r2
10009894:	00001506 	br	100098ec <__udivdi3+0x1ac>
10009898:	29c06a36 	bltu	r5,r7,10009a44 <__udivdi3+0x304>
1000989c:	00bfffd4 	movui	r2,65535
100098a0:	11c06a2e 	bgeu	r2,r7,10009a4c <__udivdi3+0x30c>
100098a4:	00804034 	movhi	r2,256
100098a8:	10bfffc4 	addi	r2,r2,-1
100098ac:	11c11436 	bltu	r2,r7,10009d00 <__udivdi3+0x5c0>
100098b0:	00c00404 	movi	r3,16
100098b4:	180b883a 	mov	r5,r3
100098b8:	38c6d83a 	srl	r3,r7,r3
100098bc:	01040074 	movhi	r4,4097
100098c0:	213a8604 	addi	r4,r4,-5608
100098c4:	04000804 	movi	r16,32
100098c8:	20c7883a 	add	r3,r4,r3
100098cc:	18800003 	ldbu	r2,0(r3)
100098d0:	1145883a 	add	r2,r2,r5
100098d4:	80a1c83a 	sub	r16,r16,r2
100098d8:	80006e1e 	bne	r16,zero,10009a94 <__udivdi3+0x354>
100098dc:	0007883a 	mov	r3,zero
100098e0:	3c406a36 	bltu	r7,r17,10009a8c <__udivdi3+0x34c>
100098e4:	9180692e 	bgeu	r18,r6,10009a8c <__udivdi3+0x34c>
100098e8:	0005883a 	mov	r2,zero
100098ec:	dfc00a17 	ldw	ra,40(sp)
100098f0:	df000917 	ldw	fp,36(sp)
100098f4:	ddc00817 	ldw	r23,32(sp)
100098f8:	dd800717 	ldw	r22,28(sp)
100098fc:	dd400617 	ldw	r21,24(sp)
10009900:	dd000517 	ldw	r20,20(sp)
10009904:	dcc00417 	ldw	r19,16(sp)
10009908:	dc800317 	ldw	r18,12(sp)
1000990c:	dc400217 	ldw	r17,8(sp)
10009910:	dc000117 	ldw	r16,4(sp)
10009914:	dec00b04 	addi	sp,sp,44
10009918:	f800283a 	ret
1000991c:	3000041e 	bne	r6,zero,10009930 <__udivdi3+0x1f0>
10009920:	01000044 	movi	r4,1
10009924:	000b883a 	mov	r5,zero
10009928:	000b2080 	call	1000b208 <__udivsi3>
1000992c:	1021883a 	mov	r16,r2
10009930:	00bfffd4 	movui	r2,65535
10009934:	1400502e 	bgeu	r2,r16,10009a78 <__udivdi3+0x338>
10009938:	00804034 	movhi	r2,256
1000993c:	10bfffc4 	addi	r2,r2,-1
10009940:	1400f536 	bltu	r2,r16,10009d18 <__udivdi3+0x5d8>
10009944:	00800404 	movi	r2,16
10009948:	1007883a 	mov	r3,r2
1000994c:	8084d83a 	srl	r2,r16,r2
10009950:	01040074 	movhi	r4,4097
10009954:	213a8604 	addi	r4,r4,-5608
10009958:	2085883a 	add	r2,r4,r2
1000995c:	10800003 	ldbu	r2,0(r2)
10009960:	10c7883a 	add	r3,r2,r3
10009964:	00800804 	movi	r2,32
10009968:	10c5c83a 	sub	r2,r2,r3
1000996c:	1000a01e 	bne	r2,zero,10009bf0 <__udivdi3+0x4b0>
10009970:	8028d43a 	srli	r20,r16,16
10009974:	8c23c83a 	sub	r17,r17,r16
10009978:	857fffcc 	andi	r21,r16,65535
1000997c:	00c00044 	movi	r3,1
10009980:	8809883a 	mov	r4,r17
10009984:	a00b883a 	mov	r5,r20
10009988:	d8c00015 	stw	r3,0(sp)
1000998c:	000b2100 	call	1000b210 <__umodsi3>
10009990:	8809883a 	mov	r4,r17
10009994:	a00b883a 	mov	r5,r20
10009998:	102d883a 	mov	r22,r2
1000999c:	000b2080 	call	1000b208 <__udivsi3>
100099a0:	1009883a 	mov	r4,r2
100099a4:	a80b883a 	mov	r5,r21
100099a8:	1025883a 	mov	r18,r2
100099ac:	000b2180 	call	1000b218 <__mulsi3>
100099b0:	1009883a 	mov	r4,r2
100099b4:	b00c943a 	slli	r6,r22,16
100099b8:	9804d43a 	srli	r2,r19,16
100099bc:	d8c00017 	ldw	r3,0(sp)
100099c0:	308cb03a 	or	r6,r6,r2
100099c4:	3100052e 	bgeu	r6,r4,100099dc <__udivdi3+0x29c>
100099c8:	340d883a 	add	r6,r6,r16
100099cc:	90bfffc4 	addi	r2,r18,-1
100099d0:	34000136 	bltu	r6,r16,100099d8 <__udivdi3+0x298>
100099d4:	3100e836 	bltu	r6,r4,10009d78 <__udivdi3+0x638>
100099d8:	1025883a 	mov	r18,r2
100099dc:	3123c83a 	sub	r17,r6,r4
100099e0:	8809883a 	mov	r4,r17
100099e4:	a00b883a 	mov	r5,r20
100099e8:	d8c00015 	stw	r3,0(sp)
100099ec:	000b2100 	call	1000b210 <__umodsi3>
100099f0:	102d883a 	mov	r22,r2
100099f4:	8809883a 	mov	r4,r17
100099f8:	a00b883a 	mov	r5,r20
100099fc:	b02c943a 	slli	r22,r22,16
10009a00:	000b2080 	call	1000b208 <__udivsi3>
10009a04:	1009883a 	mov	r4,r2
10009a08:	a80b883a 	mov	r5,r21
10009a0c:	9cffffcc 	andi	r19,r19,65535
10009a10:	1023883a 	mov	r17,r2
10009a14:	b4e6b03a 	or	r19,r22,r19
10009a18:	000b2180 	call	1000b218 <__mulsi3>
10009a1c:	d8c00017 	ldw	r3,0(sp)
10009a20:	9880052e 	bgeu	r19,r2,10009a38 <__udivdi3+0x2f8>
10009a24:	9c27883a 	add	r19,r19,r16
10009a28:	893fffc4 	addi	r4,r17,-1
10009a2c:	9c00aa36 	bltu	r19,r16,10009cd8 <__udivdi3+0x598>
10009a30:	9880a92e 	bgeu	r19,r2,10009cd8 <__udivdi3+0x598>
10009a34:	8c7fff84 	addi	r17,r17,-2
10009a38:	9004943a 	slli	r2,r18,16
10009a3c:	8884b03a 	or	r2,r17,r2
10009a40:	003faa06 	br	100098ec <__alt_data_end+0xf80098ec>
10009a44:	0007883a 	mov	r3,zero
10009a48:	003fa706 	br	100098e8 <__alt_data_end+0xf80098e8>
10009a4c:	00803fc4 	movi	r2,255
10009a50:	11c0ae36 	bltu	r2,r7,10009d0c <__udivdi3+0x5cc>
10009a54:	0007883a 	mov	r3,zero
10009a58:	000b883a 	mov	r5,zero
10009a5c:	003f9606 	br	100098b8 <__alt_data_end+0xf80098b8>
10009a60:	00804034 	movhi	r2,256
10009a64:	10bfffc4 	addi	r2,r2,-1
10009a68:	1180ae36 	bltu	r2,r6,10009d24 <__udivdi3+0x5e4>
10009a6c:	00800404 	movi	r2,16
10009a70:	1007883a 	mov	r3,r2
10009a74:	003f4a06 	br	100097a0 <__alt_data_end+0xf80097a0>
10009a78:	00803fc4 	movi	r2,255
10009a7c:	1400af36 	bltu	r2,r16,10009d3c <__udivdi3+0x5fc>
10009a80:	0005883a 	mov	r2,zero
10009a84:	0007883a 	mov	r3,zero
10009a88:	003fb006 	br	1000994c <__alt_data_end+0xf800994c>
10009a8c:	00800044 	movi	r2,1
10009a90:	003f9606 	br	100098ec <__alt_data_end+0xf80098ec>
10009a94:	3c0e983a 	sll	r7,r7,r16
10009a98:	3086d83a 	srl	r3,r6,r2
10009a9c:	88aed83a 	srl	r23,r17,r2
10009aa0:	9084d83a 	srl	r2,r18,r2
10009aa4:	38e6b03a 	or	r19,r7,r3
10009aa8:	9828d43a 	srli	r20,r19,16
10009aac:	8c22983a 	sll	r17,r17,r16
10009ab0:	b809883a 	mov	r4,r23
10009ab4:	a00b883a 	mov	r5,r20
10009ab8:	342a983a 	sll	r21,r6,r16
10009abc:	88a2b03a 	or	r17,r17,r2
10009ac0:	000b2100 	call	1000b210 <__umodsi3>
10009ac4:	b809883a 	mov	r4,r23
10009ac8:	a00b883a 	mov	r5,r20
10009acc:	1039883a 	mov	fp,r2
10009ad0:	9dbfffcc 	andi	r22,r19,65535
10009ad4:	000b2080 	call	1000b208 <__udivsi3>
10009ad8:	1009883a 	mov	r4,r2
10009adc:	b00b883a 	mov	r5,r22
10009ae0:	102f883a 	mov	r23,r2
10009ae4:	000b2180 	call	1000b218 <__mulsi3>
10009ae8:	1009883a 	mov	r4,r2
10009aec:	e00e943a 	slli	r7,fp,16
10009af0:	8804d43a 	srli	r2,r17,16
10009af4:	388eb03a 	or	r7,r7,r2
10009af8:	3900042e 	bgeu	r7,r4,10009b0c <__udivdi3+0x3cc>
10009afc:	3ccf883a 	add	r7,r7,r19
10009b00:	b8bfffc4 	addi	r2,r23,-1
10009b04:	3cc0942e 	bgeu	r7,r19,10009d58 <__udivdi3+0x618>
10009b08:	102f883a 	mov	r23,r2
10009b0c:	3939c83a 	sub	fp,r7,r4
10009b10:	a00b883a 	mov	r5,r20
10009b14:	e009883a 	mov	r4,fp
10009b18:	000b2100 	call	1000b210 <__umodsi3>
10009b1c:	a00b883a 	mov	r5,r20
10009b20:	e009883a 	mov	r4,fp
10009b24:	d8800015 	stw	r2,0(sp)
10009b28:	000b2080 	call	1000b208 <__udivsi3>
10009b2c:	1009883a 	mov	r4,r2
10009b30:	b00b883a 	mov	r5,r22
10009b34:	1029883a 	mov	r20,r2
10009b38:	000b2180 	call	1000b218 <__mulsi3>
10009b3c:	d8c00017 	ldw	r3,0(sp)
10009b40:	8c7fffcc 	andi	r17,r17,65535
10009b44:	1806943a 	slli	r3,r3,16
10009b48:	1c46b03a 	or	r3,r3,r17
10009b4c:	1880042e 	bgeu	r3,r2,10009b60 <__udivdi3+0x420>
10009b50:	1cc7883a 	add	r3,r3,r19
10009b54:	a13fffc4 	addi	r4,r20,-1
10009b58:	1cc07b2e 	bgeu	r3,r19,10009d48 <__udivdi3+0x608>
10009b5c:	2029883a 	mov	r20,r4
10009b60:	b82e943a 	slli	r23,r23,16
10009b64:	a822d43a 	srli	r17,r21,16
10009b68:	ad7fffcc 	andi	r21,r21,65535
10009b6c:	a5e8b03a 	or	r20,r20,r23
10009b70:	a5bfffcc 	andi	r22,r20,65535
10009b74:	b009883a 	mov	r4,r22
10009b78:	a80b883a 	mov	r5,r21
10009b7c:	18afc83a 	sub	r23,r3,r2
10009b80:	a026d43a 	srli	r19,r20,16
10009b84:	000b2180 	call	1000b218 <__mulsi3>
10009b88:	b009883a 	mov	r4,r22
10009b8c:	880b883a 	mov	r5,r17
10009b90:	1039883a 	mov	fp,r2
10009b94:	000b2180 	call	1000b218 <__mulsi3>
10009b98:	a80b883a 	mov	r5,r21
10009b9c:	9809883a 	mov	r4,r19
10009ba0:	102d883a 	mov	r22,r2
10009ba4:	000b2180 	call	1000b218 <__mulsi3>
10009ba8:	9809883a 	mov	r4,r19
10009bac:	880b883a 	mov	r5,r17
10009bb0:	102b883a 	mov	r21,r2
10009bb4:	000b2180 	call	1000b218 <__mulsi3>
10009bb8:	100b883a 	mov	r5,r2
10009bbc:	e004d43a 	srli	r2,fp,16
10009bc0:	ad89883a 	add	r4,r21,r22
10009bc4:	2089883a 	add	r4,r4,r2
10009bc8:	2540022e 	bgeu	r4,r21,10009bd4 <__udivdi3+0x494>
10009bcc:	00800074 	movhi	r2,1
10009bd0:	288b883a 	add	r5,r5,r2
10009bd4:	2004d43a 	srli	r2,r4,16
10009bd8:	288b883a 	add	r5,r5,r2
10009bdc:	b9404536 	bltu	r23,r5,10009cf4 <__udivdi3+0x5b4>
10009be0:	b9403f26 	beq	r23,r5,10009ce0 <__udivdi3+0x5a0>
10009be4:	a005883a 	mov	r2,r20
10009be8:	0007883a 	mov	r3,zero
10009bec:	003f3f06 	br	100098ec <__alt_data_end+0xf80098ec>
10009bf0:	80a0983a 	sll	r16,r16,r2
10009bf4:	88eed83a 	srl	r23,r17,r3
10009bf8:	90c6d83a 	srl	r3,r18,r3
10009bfc:	8028d43a 	srli	r20,r16,16
10009c00:	88a2983a 	sll	r17,r17,r2
10009c04:	b809883a 	mov	r4,r23
10009c08:	a00b883a 	mov	r5,r20
10009c0c:	88ecb03a 	or	r22,r17,r3
10009c10:	90a6983a 	sll	r19,r18,r2
10009c14:	000b2100 	call	1000b210 <__umodsi3>
10009c18:	b809883a 	mov	r4,r23
10009c1c:	a00b883a 	mov	r5,r20
10009c20:	1023883a 	mov	r17,r2
10009c24:	857fffcc 	andi	r21,r16,65535
10009c28:	000b2080 	call	1000b208 <__udivsi3>
10009c2c:	1009883a 	mov	r4,r2
10009c30:	a80b883a 	mov	r5,r21
10009c34:	102f883a 	mov	r23,r2
10009c38:	000b2180 	call	1000b218 <__mulsi3>
10009c3c:	1009883a 	mov	r4,r2
10009c40:	880a943a 	slli	r5,r17,16
10009c44:	b004d43a 	srli	r2,r22,16
10009c48:	288ab03a 	or	r5,r5,r2
10009c4c:	2900062e 	bgeu	r5,r4,10009c68 <__udivdi3+0x528>
10009c50:	2c0b883a 	add	r5,r5,r16
10009c54:	b8bfffc4 	addi	r2,r23,-1
10009c58:	2c004536 	bltu	r5,r16,10009d70 <__udivdi3+0x630>
10009c5c:	2900442e 	bgeu	r5,r4,10009d70 <__udivdi3+0x630>
10009c60:	bdffff84 	addi	r23,r23,-2
10009c64:	2c0b883a 	add	r5,r5,r16
10009c68:	2925c83a 	sub	r18,r5,r4
10009c6c:	9009883a 	mov	r4,r18
10009c70:	a00b883a 	mov	r5,r20
10009c74:	000b2100 	call	1000b210 <__umodsi3>
10009c78:	1023883a 	mov	r17,r2
10009c7c:	9009883a 	mov	r4,r18
10009c80:	a00b883a 	mov	r5,r20
10009c84:	8822943a 	slli	r17,r17,16
10009c88:	000b2080 	call	1000b208 <__udivsi3>
10009c8c:	1009883a 	mov	r4,r2
10009c90:	a80b883a 	mov	r5,r21
10009c94:	b5bfffcc 	andi	r22,r22,65535
10009c98:	1025883a 	mov	r18,r2
10009c9c:	8da2b03a 	or	r17,r17,r22
10009ca0:	000b2180 	call	1000b218 <__mulsi3>
10009ca4:	8880062e 	bgeu	r17,r2,10009cc0 <__udivdi3+0x580>
10009ca8:	8c23883a 	add	r17,r17,r16
10009cac:	90ffffc4 	addi	r3,r18,-1
10009cb0:	8c002d36 	bltu	r17,r16,10009d68 <__udivdi3+0x628>
10009cb4:	88802c2e 	bgeu	r17,r2,10009d68 <__udivdi3+0x628>
10009cb8:	94bfff84 	addi	r18,r18,-2
10009cbc:	8c23883a 	add	r17,r17,r16
10009cc0:	b806943a 	slli	r3,r23,16
10009cc4:	88a3c83a 	sub	r17,r17,r2
10009cc8:	90c6b03a 	or	r3,r18,r3
10009ccc:	003f2c06 	br	10009980 <__alt_data_end+0xf8009980>
10009cd0:	1823883a 	mov	r17,r3
10009cd4:	003eec06 	br	10009888 <__alt_data_end+0xf8009888>
10009cd8:	2023883a 	mov	r17,r4
10009cdc:	003f5606 	br	10009a38 <__alt_data_end+0xf8009a38>
10009ce0:	2008943a 	slli	r4,r4,16
10009ce4:	9420983a 	sll	r16,r18,r16
10009ce8:	e73fffcc 	andi	fp,fp,65535
10009cec:	2709883a 	add	r4,r4,fp
10009cf0:	813fbc2e 	bgeu	r16,r4,10009be4 <__alt_data_end+0xf8009be4>
10009cf4:	a0bfffc4 	addi	r2,r20,-1
10009cf8:	0007883a 	mov	r3,zero
10009cfc:	003efb06 	br	100098ec <__alt_data_end+0xf80098ec>
10009d00:	00c00604 	movi	r3,24
10009d04:	180b883a 	mov	r5,r3
10009d08:	003eeb06 	br	100098b8 <__alt_data_end+0xf80098b8>
10009d0c:	00c00204 	movi	r3,8
10009d10:	180b883a 	mov	r5,r3
10009d14:	003ee806 	br	100098b8 <__alt_data_end+0xf80098b8>
10009d18:	00800604 	movi	r2,24
10009d1c:	1007883a 	mov	r3,r2
10009d20:	003f0a06 	br	1000994c <__alt_data_end+0xf800994c>
10009d24:	00800604 	movi	r2,24
10009d28:	1007883a 	mov	r3,r2
10009d2c:	003e9c06 	br	100097a0 <__alt_data_end+0xf80097a0>
10009d30:	00800204 	movi	r2,8
10009d34:	1007883a 	mov	r3,r2
10009d38:	003e9906 	br	100097a0 <__alt_data_end+0xf80097a0>
10009d3c:	00800204 	movi	r2,8
10009d40:	1007883a 	mov	r3,r2
10009d44:	003f0106 	br	1000994c <__alt_data_end+0xf800994c>
10009d48:	18bf842e 	bgeu	r3,r2,10009b5c <__alt_data_end+0xf8009b5c>
10009d4c:	a53fff84 	addi	r20,r20,-2
10009d50:	1cc7883a 	add	r3,r3,r19
10009d54:	003f8206 	br	10009b60 <__alt_data_end+0xf8009b60>
10009d58:	393f6b2e 	bgeu	r7,r4,10009b08 <__alt_data_end+0xf8009b08>
10009d5c:	bdffff84 	addi	r23,r23,-2
10009d60:	3ccf883a 	add	r7,r7,r19
10009d64:	003f6906 	br	10009b0c <__alt_data_end+0xf8009b0c>
10009d68:	1825883a 	mov	r18,r3
10009d6c:	003fd406 	br	10009cc0 <__alt_data_end+0xf8009cc0>
10009d70:	102f883a 	mov	r23,r2
10009d74:	003fbc06 	br	10009c68 <__alt_data_end+0xf8009c68>
10009d78:	94bfff84 	addi	r18,r18,-2
10009d7c:	340d883a 	add	r6,r6,r16
10009d80:	003f1606 	br	100099dc <__alt_data_end+0xf80099dc>
10009d84:	94bfff84 	addi	r18,r18,-2
10009d88:	1c07883a 	add	r3,r3,r16
10009d8c:	003ea906 	br	10009834 <__alt_data_end+0xf8009834>

10009d90 <__umoddi3>:
10009d90:	defff304 	addi	sp,sp,-52
10009d94:	dd000715 	stw	r20,28(sp)
10009d98:	dcc00615 	stw	r19,24(sp)
10009d9c:	dc800515 	stw	r18,20(sp)
10009da0:	dc400415 	stw	r17,16(sp)
10009da4:	dc000315 	stw	r16,12(sp)
10009da8:	dfc00c15 	stw	ra,48(sp)
10009dac:	df000b15 	stw	fp,44(sp)
10009db0:	ddc00a15 	stw	r23,40(sp)
10009db4:	dd800915 	stw	r22,36(sp)
10009db8:	dd400815 	stw	r21,32(sp)
10009dbc:	2025883a 	mov	r18,r4
10009dc0:	2823883a 	mov	r17,r5
10009dc4:	3021883a 	mov	r16,r6
10009dc8:	2027883a 	mov	r19,r4
10009dcc:	2829883a 	mov	r20,r5
10009dd0:	38003a1e 	bne	r7,zero,10009ebc <__umoddi3+0x12c>
10009dd4:	2980522e 	bgeu	r5,r6,10009f20 <__umoddi3+0x190>
10009dd8:	00bfffd4 	movui	r2,65535
10009ddc:	1180a436 	bltu	r2,r6,1000a070 <__umoddi3+0x2e0>
10009de0:	00803fc4 	movi	r2,255
10009de4:	11816036 	bltu	r2,r6,1000a368 <__umoddi3+0x5d8>
10009de8:	0005883a 	mov	r2,zero
10009dec:	0009883a 	mov	r4,zero
10009df0:	3084d83a 	srl	r2,r6,r2
10009df4:	00c40074 	movhi	r3,4097
10009df8:	18fa8604 	addi	r3,r3,-5608
10009dfc:	05400804 	movi	r21,32
10009e00:	1885883a 	add	r2,r3,r2
10009e04:	10800003 	ldbu	r2,0(r2)
10009e08:	1109883a 	add	r4,r2,r4
10009e0c:	a92bc83a 	sub	r21,r21,r4
10009e10:	a8010e26 	beq	r21,zero,1000a24c <__umoddi3+0x4bc>
10009e14:	8d62983a 	sll	r17,r17,r21
10009e18:	9108d83a 	srl	r4,r18,r4
10009e1c:	3560983a 	sll	r16,r6,r21
10009e20:	9566983a 	sll	r19,r18,r21
10009e24:	8928b03a 	or	r20,r17,r4
10009e28:	8022d43a 	srli	r17,r16,16
10009e2c:	a009883a 	mov	r4,r20
10009e30:	84bfffcc 	andi	r18,r16,65535
10009e34:	880b883a 	mov	r5,r17
10009e38:	000b2100 	call	1000b210 <__umodsi3>
10009e3c:	a009883a 	mov	r4,r20
10009e40:	880b883a 	mov	r5,r17
10009e44:	102d883a 	mov	r22,r2
10009e48:	000b2080 	call	1000b208 <__udivsi3>
10009e4c:	1009883a 	mov	r4,r2
10009e50:	900b883a 	mov	r5,r18
10009e54:	000b2180 	call	1000b218 <__mulsi3>
10009e58:	1009883a 	mov	r4,r2
10009e5c:	b006943a 	slli	r3,r22,16
10009e60:	9804d43a 	srli	r2,r19,16
10009e64:	1886b03a 	or	r3,r3,r2
10009e68:	1900042e 	bgeu	r3,r4,10009e7c <__umoddi3+0xec>
10009e6c:	1c07883a 	add	r3,r3,r16
10009e70:	1c000236 	bltu	r3,r16,10009e7c <__umoddi3+0xec>
10009e74:	1900012e 	bgeu	r3,r4,10009e7c <__umoddi3+0xec>
10009e78:	1c07883a 	add	r3,r3,r16
10009e7c:	1929c83a 	sub	r20,r3,r4
10009e80:	a009883a 	mov	r4,r20
10009e84:	880b883a 	mov	r5,r17
10009e88:	000b2100 	call	1000b210 <__umodsi3>
10009e8c:	102d883a 	mov	r22,r2
10009e90:	a009883a 	mov	r4,r20
10009e94:	880b883a 	mov	r5,r17
10009e98:	b02c943a 	slli	r22,r22,16
10009e9c:	000b2080 	call	1000b208 <__udivsi3>
10009ea0:	1009883a 	mov	r4,r2
10009ea4:	900b883a 	mov	r5,r18
10009ea8:	9cffffcc 	andi	r19,r19,65535
10009eac:	000b2180 	call	1000b218 <__mulsi3>
10009eb0:	b4e6b03a 	or	r19,r22,r19
10009eb4:	9880572e 	bgeu	r19,r2,1000a014 <__umoddi3+0x284>
10009eb8:	00005206 	br	1000a004 <__umoddi3+0x274>
10009ebc:	29c05936 	bltu	r5,r7,1000a024 <__umoddi3+0x294>
10009ec0:	00bfffd4 	movui	r2,65535
10009ec4:	11c0652e 	bgeu	r2,r7,1000a05c <__umoddi3+0x2cc>
10009ec8:	00804034 	movhi	r2,256
10009ecc:	10bfffc4 	addi	r2,r2,-1
10009ed0:	11c11936 	bltu	r2,r7,1000a338 <__umoddi3+0x5a8>
10009ed4:	00c00404 	movi	r3,16
10009ed8:	1827883a 	mov	r19,r3
10009edc:	38c6d83a 	srl	r3,r7,r3
10009ee0:	01040074 	movhi	r4,4097
10009ee4:	213a8604 	addi	r4,r4,-5608
10009ee8:	04000804 	movi	r16,32
10009eec:	20c7883a 	add	r3,r4,r3
10009ef0:	18800003 	ldbu	r2,0(r3)
10009ef4:	14e7883a 	add	r19,r2,r19
10009ef8:	84e1c83a 	sub	r16,r16,r19
10009efc:	8000671e 	bne	r16,zero,1000a09c <__umoddi3+0x30c>
10009f00:	3c400136 	bltu	r7,r17,10009f08 <__umoddi3+0x178>
10009f04:	91812536 	bltu	r18,r6,1000a39c <__umoddi3+0x60c>
10009f08:	9185c83a 	sub	r2,r18,r6
10009f0c:	89e3c83a 	sub	r17,r17,r7
10009f10:	90a5803a 	cmpltu	r18,r18,r2
10009f14:	8ca9c83a 	sub	r20,r17,r18
10009f18:	a007883a 	mov	r3,r20
10009f1c:	00004306 	br	1000a02c <__umoddi3+0x29c>
10009f20:	3000041e 	bne	r6,zero,10009f34 <__umoddi3+0x1a4>
10009f24:	01000044 	movi	r4,1
10009f28:	000b883a 	mov	r5,zero
10009f2c:	000b2080 	call	1000b208 <__udivsi3>
10009f30:	1021883a 	mov	r16,r2
10009f34:	00bfffd4 	movui	r2,65535
10009f38:	1400532e 	bgeu	r2,r16,1000a088 <__umoddi3+0x2f8>
10009f3c:	00804034 	movhi	r2,256
10009f40:	10bfffc4 	addi	r2,r2,-1
10009f44:	14010536 	bltu	r2,r16,1000a35c <__umoddi3+0x5cc>
10009f48:	00800404 	movi	r2,16
10009f4c:	1007883a 	mov	r3,r2
10009f50:	8084d83a 	srl	r2,r16,r2
10009f54:	01040074 	movhi	r4,4097
10009f58:	213a8604 	addi	r4,r4,-5608
10009f5c:	05400804 	movi	r21,32
10009f60:	2085883a 	add	r2,r4,r2
10009f64:	10800003 	ldbu	r2,0(r2)
10009f68:	10c7883a 	add	r3,r2,r3
10009f6c:	a8ebc83a 	sub	r21,r21,r3
10009f70:	a800b81e 	bne	r21,zero,1000a254 <__umoddi3+0x4c4>
10009f74:	8028d43a 	srli	r20,r16,16
10009f78:	8c23c83a 	sub	r17,r17,r16
10009f7c:	85bfffcc 	andi	r22,r16,65535
10009f80:	8809883a 	mov	r4,r17
10009f84:	a00b883a 	mov	r5,r20
10009f88:	000b2100 	call	1000b210 <__umodsi3>
10009f8c:	8809883a 	mov	r4,r17
10009f90:	a00b883a 	mov	r5,r20
10009f94:	1025883a 	mov	r18,r2
10009f98:	000b2080 	call	1000b208 <__udivsi3>
10009f9c:	1009883a 	mov	r4,r2
10009fa0:	b00b883a 	mov	r5,r22
10009fa4:	000b2180 	call	1000b218 <__mulsi3>
10009fa8:	1009883a 	mov	r4,r2
10009fac:	9006943a 	slli	r3,r18,16
10009fb0:	9804d43a 	srli	r2,r19,16
10009fb4:	1886b03a 	or	r3,r3,r2
10009fb8:	1900032e 	bgeu	r3,r4,10009fc8 <__umoddi3+0x238>
10009fbc:	1c07883a 	add	r3,r3,r16
10009fc0:	1c000136 	bltu	r3,r16,10009fc8 <__umoddi3+0x238>
10009fc4:	1900f336 	bltu	r3,r4,1000a394 <__umoddi3+0x604>
10009fc8:	1923c83a 	sub	r17,r3,r4
10009fcc:	8809883a 	mov	r4,r17
10009fd0:	a00b883a 	mov	r5,r20
10009fd4:	000b2100 	call	1000b210 <__umodsi3>
10009fd8:	102f883a 	mov	r23,r2
10009fdc:	8809883a 	mov	r4,r17
10009fe0:	a00b883a 	mov	r5,r20
10009fe4:	b82e943a 	slli	r23,r23,16
10009fe8:	000b2080 	call	1000b208 <__udivsi3>
10009fec:	1009883a 	mov	r4,r2
10009ff0:	b00b883a 	mov	r5,r22
10009ff4:	9cffffcc 	andi	r19,r19,65535
10009ff8:	000b2180 	call	1000b218 <__mulsi3>
10009ffc:	bce6b03a 	or	r19,r23,r19
1000a000:	9880042e 	bgeu	r19,r2,1000a014 <__umoddi3+0x284>
1000a004:	9c27883a 	add	r19,r19,r16
1000a008:	9c000236 	bltu	r19,r16,1000a014 <__umoddi3+0x284>
1000a00c:	9880012e 	bgeu	r19,r2,1000a014 <__umoddi3+0x284>
1000a010:	9c27883a 	add	r19,r19,r16
1000a014:	9885c83a 	sub	r2,r19,r2
1000a018:	1544d83a 	srl	r2,r2,r21
1000a01c:	0007883a 	mov	r3,zero
1000a020:	00000206 	br	1000a02c <__umoddi3+0x29c>
1000a024:	2005883a 	mov	r2,r4
1000a028:	2807883a 	mov	r3,r5
1000a02c:	dfc00c17 	ldw	ra,48(sp)
1000a030:	df000b17 	ldw	fp,44(sp)
1000a034:	ddc00a17 	ldw	r23,40(sp)
1000a038:	dd800917 	ldw	r22,36(sp)
1000a03c:	dd400817 	ldw	r21,32(sp)
1000a040:	dd000717 	ldw	r20,28(sp)
1000a044:	dcc00617 	ldw	r19,24(sp)
1000a048:	dc800517 	ldw	r18,20(sp)
1000a04c:	dc400417 	ldw	r17,16(sp)
1000a050:	dc000317 	ldw	r16,12(sp)
1000a054:	dec00d04 	addi	sp,sp,52
1000a058:	f800283a 	ret
1000a05c:	00803fc4 	movi	r2,255
1000a060:	11c0b236 	bltu	r2,r7,1000a32c <__umoddi3+0x59c>
1000a064:	0007883a 	mov	r3,zero
1000a068:	0027883a 	mov	r19,zero
1000a06c:	003f9b06 	br	10009edc <__alt_data_end+0xf8009edc>
1000a070:	00804034 	movhi	r2,256
1000a074:	10bfffc4 	addi	r2,r2,-1
1000a078:	1180b236 	bltu	r2,r6,1000a344 <__umoddi3+0x5b4>
1000a07c:	00800404 	movi	r2,16
1000a080:	1009883a 	mov	r4,r2
1000a084:	003f5a06 	br	10009df0 <__alt_data_end+0xf8009df0>
1000a088:	00803fc4 	movi	r2,255
1000a08c:	1400b036 	bltu	r2,r16,1000a350 <__umoddi3+0x5c0>
1000a090:	0005883a 	mov	r2,zero
1000a094:	0007883a 	mov	r3,zero
1000a098:	003fad06 	br	10009f50 <__alt_data_end+0xf8009f50>
1000a09c:	34c4d83a 	srl	r2,r6,r19
1000a0a0:	3c0e983a 	sll	r7,r7,r16
1000a0a4:	8cf8d83a 	srl	fp,r17,r19
1000a0a8:	8c22983a 	sll	r17,r17,r16
1000a0ac:	38a8b03a 	or	r20,r7,r2
1000a0b0:	a02ad43a 	srli	r21,r20,16
1000a0b4:	94c4d83a 	srl	r2,r18,r19
1000a0b8:	e009883a 	mov	r4,fp
1000a0bc:	a80b883a 	mov	r5,r21
1000a0c0:	342c983a 	sll	r22,r6,r16
1000a0c4:	88a2b03a 	or	r17,r17,r2
1000a0c8:	000b2100 	call	1000b210 <__umodsi3>
1000a0cc:	e009883a 	mov	r4,fp
1000a0d0:	a80b883a 	mov	r5,r21
1000a0d4:	a5ffffcc 	andi	r23,r20,65535
1000a0d8:	d8800215 	stw	r2,8(sp)
1000a0dc:	000b2080 	call	1000b208 <__udivsi3>
1000a0e0:	1009883a 	mov	r4,r2
1000a0e4:	b80b883a 	mov	r5,r23
1000a0e8:	1039883a 	mov	fp,r2
1000a0ec:	000b2180 	call	1000b218 <__mulsi3>
1000a0f0:	d8c00217 	ldw	r3,8(sp)
1000a0f4:	1009883a 	mov	r4,r2
1000a0f8:	8804d43a 	srli	r2,r17,16
1000a0fc:	1806943a 	slli	r3,r3,16
1000a100:	9424983a 	sll	r18,r18,r16
1000a104:	1886b03a 	or	r3,r3,r2
1000a108:	1900042e 	bgeu	r3,r4,1000a11c <__umoddi3+0x38c>
1000a10c:	1d07883a 	add	r3,r3,r20
1000a110:	e0bfffc4 	addi	r2,fp,-1
1000a114:	1d009b2e 	bgeu	r3,r20,1000a384 <__umoddi3+0x5f4>
1000a118:	1039883a 	mov	fp,r2
1000a11c:	1907c83a 	sub	r3,r3,r4
1000a120:	1809883a 	mov	r4,r3
1000a124:	a80b883a 	mov	r5,r21
1000a128:	d8c00215 	stw	r3,8(sp)
1000a12c:	000b2100 	call	1000b210 <__umodsi3>
1000a130:	d8c00217 	ldw	r3,8(sp)
1000a134:	a80b883a 	mov	r5,r21
1000a138:	d8800015 	stw	r2,0(sp)
1000a13c:	1809883a 	mov	r4,r3
1000a140:	000b2080 	call	1000b208 <__udivsi3>
1000a144:	1009883a 	mov	r4,r2
1000a148:	b80b883a 	mov	r5,r23
1000a14c:	102b883a 	mov	r21,r2
1000a150:	000b2180 	call	1000b218 <__mulsi3>
1000a154:	d9c00017 	ldw	r7,0(sp)
1000a158:	8c7fffcc 	andi	r17,r17,65535
1000a15c:	380e943a 	slli	r7,r7,16
1000a160:	3c4eb03a 	or	r7,r7,r17
1000a164:	3880042e 	bgeu	r7,r2,1000a178 <__umoddi3+0x3e8>
1000a168:	3d0f883a 	add	r7,r7,r20
1000a16c:	a8ffffc4 	addi	r3,r21,-1
1000a170:	3d00802e 	bgeu	r7,r20,1000a374 <__umoddi3+0x5e4>
1000a174:	182b883a 	mov	r21,r3
1000a178:	e038943a 	slli	fp,fp,16
1000a17c:	b010d43a 	srli	r8,r22,16
1000a180:	b1bfffcc 	andi	r6,r22,65535
1000a184:	af2ab03a 	or	r21,r21,fp
1000a188:	a82ed43a 	srli	r23,r21,16
1000a18c:	ad7fffcc 	andi	r21,r21,65535
1000a190:	300b883a 	mov	r5,r6
1000a194:	a809883a 	mov	r4,r21
1000a198:	38a3c83a 	sub	r17,r7,r2
1000a19c:	d9800115 	stw	r6,4(sp)
1000a1a0:	da000015 	stw	r8,0(sp)
1000a1a4:	000b2180 	call	1000b218 <__mulsi3>
1000a1a8:	da000017 	ldw	r8,0(sp)
1000a1ac:	a809883a 	mov	r4,r21
1000a1b0:	1039883a 	mov	fp,r2
1000a1b4:	400b883a 	mov	r5,r8
1000a1b8:	da000215 	stw	r8,8(sp)
1000a1bc:	000b2180 	call	1000b218 <__mulsi3>
1000a1c0:	d9800117 	ldw	r6,4(sp)
1000a1c4:	b809883a 	mov	r4,r23
1000a1c8:	d8800015 	stw	r2,0(sp)
1000a1cc:	300b883a 	mov	r5,r6
1000a1d0:	000b2180 	call	1000b218 <__mulsi3>
1000a1d4:	d8c00217 	ldw	r3,8(sp)
1000a1d8:	b809883a 	mov	r4,r23
1000a1dc:	102b883a 	mov	r21,r2
1000a1e0:	180b883a 	mov	r5,r3
1000a1e4:	000b2180 	call	1000b218 <__mulsi3>
1000a1e8:	d9c00017 	ldw	r7,0(sp)
1000a1ec:	1007883a 	mov	r3,r2
1000a1f0:	e004d43a 	srli	r2,fp,16
1000a1f4:	a9c9883a 	add	r4,r21,r7
1000a1f8:	2089883a 	add	r4,r4,r2
1000a1fc:	2540022e 	bgeu	r4,r21,1000a208 <__umoddi3+0x478>
1000a200:	00800074 	movhi	r2,1
1000a204:	1887883a 	add	r3,r3,r2
1000a208:	2004d43a 	srli	r2,r4,16
1000a20c:	2008943a 	slli	r4,r4,16
1000a210:	e73fffcc 	andi	fp,fp,65535
1000a214:	1887883a 	add	r3,r3,r2
1000a218:	2709883a 	add	r4,r4,fp
1000a21c:	88c03d36 	bltu	r17,r3,1000a314 <__umoddi3+0x584>
1000a220:	88c06126 	beq	r17,r3,1000a3a8 <__umoddi3+0x618>
1000a224:	88c7c83a 	sub	r3,r17,r3
1000a228:	202d883a 	mov	r22,r4
1000a22c:	95adc83a 	sub	r22,r18,r22
1000a230:	95a5803a 	cmpltu	r18,r18,r22
1000a234:	1c87c83a 	sub	r3,r3,r18
1000a238:	1cc4983a 	sll	r2,r3,r19
1000a23c:	b42cd83a 	srl	r22,r22,r16
1000a240:	1c06d83a 	srl	r3,r3,r16
1000a244:	1584b03a 	or	r2,r2,r22
1000a248:	003f7806 	br	1000a02c <__alt_data_end+0xf800a02c>
1000a24c:	002b883a 	mov	r21,zero
1000a250:	003ef506 	br	10009e28 <__alt_data_end+0xf8009e28>
1000a254:	8560983a 	sll	r16,r16,r21
1000a258:	88e6d83a 	srl	r19,r17,r3
1000a25c:	90c6d83a 	srl	r3,r18,r3
1000a260:	8028d43a 	srli	r20,r16,16
1000a264:	8d62983a 	sll	r17,r17,r21
1000a268:	9809883a 	mov	r4,r19
1000a26c:	a00b883a 	mov	r5,r20
1000a270:	88eeb03a 	or	r23,r17,r3
1000a274:	000b2100 	call	1000b210 <__umodsi3>
1000a278:	9809883a 	mov	r4,r19
1000a27c:	a00b883a 	mov	r5,r20
1000a280:	1023883a 	mov	r17,r2
1000a284:	85bfffcc 	andi	r22,r16,65535
1000a288:	000b2080 	call	1000b208 <__udivsi3>
1000a28c:	1009883a 	mov	r4,r2
1000a290:	b00b883a 	mov	r5,r22
1000a294:	000b2180 	call	1000b218 <__mulsi3>
1000a298:	1007883a 	mov	r3,r2
1000a29c:	8808943a 	slli	r4,r17,16
1000a2a0:	b804d43a 	srli	r2,r23,16
1000a2a4:	9566983a 	sll	r19,r18,r21
1000a2a8:	2088b03a 	or	r4,r4,r2
1000a2ac:	20c0042e 	bgeu	r4,r3,1000a2c0 <__umoddi3+0x530>
1000a2b0:	2409883a 	add	r4,r4,r16
1000a2b4:	24000236 	bltu	r4,r16,1000a2c0 <__umoddi3+0x530>
1000a2b8:	20c0012e 	bgeu	r4,r3,1000a2c0 <__umoddi3+0x530>
1000a2bc:	2409883a 	add	r4,r4,r16
1000a2c0:	20e5c83a 	sub	r18,r4,r3
1000a2c4:	9009883a 	mov	r4,r18
1000a2c8:	a00b883a 	mov	r5,r20
1000a2cc:	000b2100 	call	1000b210 <__umodsi3>
1000a2d0:	1023883a 	mov	r17,r2
1000a2d4:	9009883a 	mov	r4,r18
1000a2d8:	a00b883a 	mov	r5,r20
1000a2dc:	8822943a 	slli	r17,r17,16
1000a2e0:	000b2080 	call	1000b208 <__udivsi3>
1000a2e4:	1009883a 	mov	r4,r2
1000a2e8:	b00b883a 	mov	r5,r22
1000a2ec:	bdffffcc 	andi	r23,r23,65535
1000a2f0:	000b2180 	call	1000b218 <__mulsi3>
1000a2f4:	8de2b03a 	or	r17,r17,r23
1000a2f8:	8880042e 	bgeu	r17,r2,1000a30c <__umoddi3+0x57c>
1000a2fc:	8c23883a 	add	r17,r17,r16
1000a300:	8c000236 	bltu	r17,r16,1000a30c <__umoddi3+0x57c>
1000a304:	8880012e 	bgeu	r17,r2,1000a30c <__umoddi3+0x57c>
1000a308:	8c23883a 	add	r17,r17,r16
1000a30c:	88a3c83a 	sub	r17,r17,r2
1000a310:	003f1b06 	br	10009f80 <__alt_data_end+0xf8009f80>
1000a314:	25adc83a 	sub	r22,r4,r22
1000a318:	1d07c83a 	sub	r3,r3,r20
1000a31c:	2589803a 	cmpltu	r4,r4,r22
1000a320:	1907c83a 	sub	r3,r3,r4
1000a324:	88c7c83a 	sub	r3,r17,r3
1000a328:	003fc006 	br	1000a22c <__alt_data_end+0xf800a22c>
1000a32c:	00c00204 	movi	r3,8
1000a330:	1827883a 	mov	r19,r3
1000a334:	003ee906 	br	10009edc <__alt_data_end+0xf8009edc>
1000a338:	00c00604 	movi	r3,24
1000a33c:	1827883a 	mov	r19,r3
1000a340:	003ee606 	br	10009edc <__alt_data_end+0xf8009edc>
1000a344:	00800604 	movi	r2,24
1000a348:	1009883a 	mov	r4,r2
1000a34c:	003ea806 	br	10009df0 <__alt_data_end+0xf8009df0>
1000a350:	00800204 	movi	r2,8
1000a354:	1007883a 	mov	r3,r2
1000a358:	003efd06 	br	10009f50 <__alt_data_end+0xf8009f50>
1000a35c:	00800604 	movi	r2,24
1000a360:	1007883a 	mov	r3,r2
1000a364:	003efa06 	br	10009f50 <__alt_data_end+0xf8009f50>
1000a368:	00800204 	movi	r2,8
1000a36c:	1009883a 	mov	r4,r2
1000a370:	003e9f06 	br	10009df0 <__alt_data_end+0xf8009df0>
1000a374:	38bf7f2e 	bgeu	r7,r2,1000a174 <__alt_data_end+0xf800a174>
1000a378:	ad7fff84 	addi	r21,r21,-2
1000a37c:	3d0f883a 	add	r7,r7,r20
1000a380:	003f7d06 	br	1000a178 <__alt_data_end+0xf800a178>
1000a384:	193f642e 	bgeu	r3,r4,1000a118 <__alt_data_end+0xf800a118>
1000a388:	e73fff84 	addi	fp,fp,-2
1000a38c:	1d07883a 	add	r3,r3,r20
1000a390:	003f6206 	br	1000a11c <__alt_data_end+0xf800a11c>
1000a394:	1c07883a 	add	r3,r3,r16
1000a398:	003f0b06 	br	10009fc8 <__alt_data_end+0xf8009fc8>
1000a39c:	9005883a 	mov	r2,r18
1000a3a0:	a007883a 	mov	r3,r20
1000a3a4:	003f2106 	br	1000a02c <__alt_data_end+0xf800a02c>
1000a3a8:	913fda36 	bltu	r18,r4,1000a314 <__alt_data_end+0xf800a314>
1000a3ac:	202d883a 	mov	r22,r4
1000a3b0:	0007883a 	mov	r3,zero
1000a3b4:	003f9d06 	br	1000a22c <__alt_data_end+0xf800a22c>

1000a3b8 <_fpadd_parts>:
1000a3b8:	2005883a 	mov	r2,r4
1000a3bc:	21000017 	ldw	r4,0(r4)
1000a3c0:	01c00044 	movi	r7,1
1000a3c4:	3900622e 	bgeu	r7,r4,1000a550 <_fpadd_parts+0x198>
1000a3c8:	28c00017 	ldw	r3,0(r5)
1000a3cc:	38c05f2e 	bgeu	r7,r3,1000a54c <_fpadd_parts+0x194>
1000a3d0:	01c00104 	movi	r7,4
1000a3d4:	21c0c626 	beq	r4,r7,1000a6f0 <_fpadd_parts+0x338>
1000a3d8:	19c05c26 	beq	r3,r7,1000a54c <_fpadd_parts+0x194>
1000a3dc:	01c00084 	movi	r7,2
1000a3e0:	19c06b26 	beq	r3,r7,1000a590 <_fpadd_parts+0x1d8>
1000a3e4:	21c05926 	beq	r4,r7,1000a54c <_fpadd_parts+0x194>
1000a3e8:	11c00217 	ldw	r7,8(r2)
1000a3ec:	2ac00217 	ldw	r11,8(r5)
1000a3f0:	13000317 	ldw	r12,12(r2)
1000a3f4:	13400417 	ldw	r13,16(r2)
1000a3f8:	3ac9c83a 	sub	r4,r7,r11
1000a3fc:	2a000317 	ldw	r8,12(r5)
1000a400:	2a400417 	ldw	r9,16(r5)
1000a404:	2015883a 	mov	r10,r4
1000a408:	20007516 	blt	r4,zero,1000a5e0 <_fpadd_parts+0x228>
1000a40c:	00c00fc4 	movi	r3,63
1000a410:	1a805016 	blt	r3,r10,1000a554 <_fpadd_parts+0x19c>
1000a414:	0100870e 	bge	zero,r4,1000a634 <_fpadd_parts+0x27c>
1000a418:	50fff804 	addi	r3,r10,-32
1000a41c:	18009916 	blt	r3,zero,1000a684 <_fpadd_parts+0x2cc>
1000a420:	48d6d83a 	srl	r11,r9,r3
1000a424:	001d883a 	mov	r14,zero
1000a428:	18009e16 	blt	r3,zero,1000a6a4 <_fpadd_parts+0x2ec>
1000a42c:	01000044 	movi	r4,1
1000a430:	20c6983a 	sll	r3,r4,r3
1000a434:	0015883a 	mov	r10,zero
1000a438:	513fffc4 	addi	r4,r10,-1
1000a43c:	2295403a 	cmpgeu	r10,r4,r10
1000a440:	1a87c83a 	sub	r3,r3,r10
1000a444:	1a52703a 	and	r9,r3,r9
1000a448:	2210703a 	and	r8,r4,r8
1000a44c:	4250b03a 	or	r8,r8,r9
1000a450:	4010c03a 	cmpne	r8,r8,zero
1000a454:	42d0b03a 	or	r8,r8,r11
1000a458:	7013883a 	mov	r9,r14
1000a45c:	11000117 	ldw	r4,4(r2)
1000a460:	28800117 	ldw	r2,4(r5)
1000a464:	20804126 	beq	r4,r2,1000a56c <_fpadd_parts+0x1b4>
1000a468:	20006326 	beq	r4,zero,1000a5f8 <_fpadd_parts+0x240>
1000a46c:	4305c83a 	sub	r2,r8,r12
1000a470:	4091803a 	cmpltu	r8,r8,r2
1000a474:	4b47c83a 	sub	r3,r9,r13
1000a478:	1a07c83a 	sub	r3,r3,r8
1000a47c:	18006316 	blt	r3,zero,1000a60c <_fpadd_parts+0x254>
1000a480:	30000115 	stw	zero,4(r6)
1000a484:	31c00215 	stw	r7,8(r6)
1000a488:	30800315 	stw	r2,12(r6)
1000a48c:	30c00415 	stw	r3,16(r6)
1000a490:	11ffffc4 	addi	r7,r2,-1
1000a494:	388b403a 	cmpgeu	r5,r7,r2
1000a498:	194bc83a 	sub	r5,r3,r5
1000a49c:	01040034 	movhi	r4,4096
1000a4a0:	213fffc4 	addi	r4,r4,-1
1000a4a4:	21401736 	bltu	r4,r5,1000a504 <_fpadd_parts+0x14c>
1000a4a8:	29008226 	beq	r5,r4,1000a6b4 <_fpadd_parts+0x2fc>
1000a4ac:	31400217 	ldw	r5,8(r6)
1000a4b0:	02840034 	movhi	r10,4096
1000a4b4:	52bfffc4 	addi	r10,r10,-1
1000a4b8:	033fff84 	movi	r12,-2
1000a4bc:	297fffc4 	addi	r5,r5,-1
1000a4c0:	00000106 	br	1000a4c8 <_fpadd_parts+0x110>
1000a4c4:	3a804a26 	beq	r7,r10,1000a5f0 <_fpadd_parts+0x238>
1000a4c8:	1089883a 	add	r4,r2,r2
1000a4cc:	2091803a 	cmpltu	r8,r4,r2
1000a4d0:	18c7883a 	add	r3,r3,r3
1000a4d4:	227fffc4 	addi	r9,r4,-1
1000a4d8:	40d1883a 	add	r8,r8,r3
1000a4dc:	490f403a 	cmpgeu	r7,r9,r4
1000a4e0:	41cfc83a 	sub	r7,r8,r7
1000a4e4:	2817883a 	mov	r11,r5
1000a4e8:	2005883a 	mov	r2,r4
1000a4ec:	4007883a 	mov	r3,r8
1000a4f0:	297fffc4 	addi	r5,r5,-1
1000a4f4:	51fff32e 	bgeu	r10,r7,1000a4c4 <__alt_data_end+0xf800a4c4>
1000a4f8:	31000315 	stw	r4,12(r6)
1000a4fc:	32000415 	stw	r8,16(r6)
1000a500:	32c00215 	stw	r11,8(r6)
1000a504:	010000c4 	movi	r4,3
1000a508:	31000015 	stw	r4,0(r6)
1000a50c:	01080034 	movhi	r4,8192
1000a510:	213fffc4 	addi	r4,r4,-1
1000a514:	20c00b2e 	bgeu	r4,r3,1000a544 <_fpadd_parts+0x18c>
1000a518:	180e97fa 	slli	r7,r3,31
1000a51c:	1008d07a 	srli	r4,r2,1
1000a520:	31400217 	ldw	r5,8(r6)
1000a524:	1806d07a 	srli	r3,r3,1
1000a528:	1080004c 	andi	r2,r2,1
1000a52c:	3908b03a 	or	r4,r7,r4
1000a530:	1108b03a 	or	r4,r2,r4
1000a534:	29400044 	addi	r5,r5,1
1000a538:	31000315 	stw	r4,12(r6)
1000a53c:	30c00415 	stw	r3,16(r6)
1000a540:	31400215 	stw	r5,8(r6)
1000a544:	3005883a 	mov	r2,r6
1000a548:	f800283a 	ret
1000a54c:	2805883a 	mov	r2,r5
1000a550:	f800283a 	ret
1000a554:	59c01e0e 	bge	r11,r7,1000a5d0 <_fpadd_parts+0x218>
1000a558:	11000117 	ldw	r4,4(r2)
1000a55c:	28800117 	ldw	r2,4(r5)
1000a560:	0011883a 	mov	r8,zero
1000a564:	0013883a 	mov	r9,zero
1000a568:	20bfbf1e 	bne	r4,r2,1000a468 <__alt_data_end+0xf800a468>
1000a56c:	4305883a 	add	r2,r8,r12
1000a570:	1207803a 	cmpltu	r3,r2,r8
1000a574:	4b53883a 	add	r9,r9,r13
1000a578:	1a47883a 	add	r3,r3,r9
1000a57c:	31000115 	stw	r4,4(r6)
1000a580:	31c00215 	stw	r7,8(r6)
1000a584:	30800315 	stw	r2,12(r6)
1000a588:	30c00415 	stw	r3,16(r6)
1000a58c:	003fdd06 	br	1000a504 <__alt_data_end+0xf800a504>
1000a590:	20ffef1e 	bne	r4,r3,1000a550 <__alt_data_end+0xf800a550>
1000a594:	31000015 	stw	r4,0(r6)
1000a598:	10c00117 	ldw	r3,4(r2)
1000a59c:	30c00115 	stw	r3,4(r6)
1000a5a0:	10c00217 	ldw	r3,8(r2)
1000a5a4:	11000117 	ldw	r4,4(r2)
1000a5a8:	29400117 	ldw	r5,4(r5)
1000a5ac:	30c00215 	stw	r3,8(r6)
1000a5b0:	10c00317 	ldw	r3,12(r2)
1000a5b4:	2908703a 	and	r4,r5,r4
1000a5b8:	30c00315 	stw	r3,12(r6)
1000a5bc:	10c00417 	ldw	r3,16(r2)
1000a5c0:	31000115 	stw	r4,4(r6)
1000a5c4:	3005883a 	mov	r2,r6
1000a5c8:	30c00415 	stw	r3,16(r6)
1000a5cc:	f800283a 	ret
1000a5d0:	580f883a 	mov	r7,r11
1000a5d4:	0019883a 	mov	r12,zero
1000a5d8:	001b883a 	mov	r13,zero
1000a5dc:	003f9f06 	br	1000a45c <__alt_data_end+0xf800a45c>
1000a5e0:	0115c83a 	sub	r10,zero,r4
1000a5e4:	00c00fc4 	movi	r3,63
1000a5e8:	1abfda16 	blt	r3,r10,1000a554 <__alt_data_end+0xf800a554>
1000a5ec:	003f8906 	br	1000a414 <__alt_data_end+0xf800a414>
1000a5f0:	627fb52e 	bgeu	r12,r9,1000a4c8 <__alt_data_end+0xf800a4c8>
1000a5f4:	003fc006 	br	1000a4f8 <__alt_data_end+0xf800a4f8>
1000a5f8:	6205c83a 	sub	r2,r12,r8
1000a5fc:	6099803a 	cmpltu	r12,r12,r2
1000a600:	6a47c83a 	sub	r3,r13,r9
1000a604:	1b07c83a 	sub	r3,r3,r12
1000a608:	183f9d0e 	bge	r3,zero,1000a480 <__alt_data_end+0xf800a480>
1000a60c:	0085c83a 	sub	r2,zero,r2
1000a610:	1008c03a 	cmpne	r4,r2,zero
1000a614:	00c7c83a 	sub	r3,zero,r3
1000a618:	1907c83a 	sub	r3,r3,r4
1000a61c:	01000044 	movi	r4,1
1000a620:	31000115 	stw	r4,4(r6)
1000a624:	31c00215 	stw	r7,8(r6)
1000a628:	30800315 	stw	r2,12(r6)
1000a62c:	30c00415 	stw	r3,16(r6)
1000a630:	003f9706 	br	1000a490 <__alt_data_end+0xf800a490>
1000a634:	203f8926 	beq	r4,zero,1000a45c <__alt_data_end+0xf800a45c>
1000a638:	50fff804 	addi	r3,r10,-32
1000a63c:	3a8f883a 	add	r7,r7,r10
1000a640:	18002316 	blt	r3,zero,1000a6d0 <_fpadd_parts+0x318>
1000a644:	68d6d83a 	srl	r11,r13,r3
1000a648:	001d883a 	mov	r14,zero
1000a64c:	18001c16 	blt	r3,zero,1000a6c0 <_fpadd_parts+0x308>
1000a650:	01000044 	movi	r4,1
1000a654:	20c6983a 	sll	r3,r4,r3
1000a658:	0015883a 	mov	r10,zero
1000a65c:	513fffc4 	addi	r4,r10,-1
1000a660:	2295403a 	cmpgeu	r10,r4,r10
1000a664:	1a87c83a 	sub	r3,r3,r10
1000a668:	1b5a703a 	and	r13,r3,r13
1000a66c:	2318703a 	and	r12,r4,r12
1000a670:	6358b03a 	or	r12,r12,r13
1000a674:	6018c03a 	cmpne	r12,r12,zero
1000a678:	62d8b03a 	or	r12,r12,r11
1000a67c:	701b883a 	mov	r13,r14
1000a680:	003f7606 	br	1000a45c <__alt_data_end+0xf800a45c>
1000a684:	4808907a 	slli	r4,r9,1
1000a688:	02c007c4 	movi	r11,31
1000a68c:	5a97c83a 	sub	r11,r11,r10
1000a690:	22c8983a 	sll	r4,r4,r11
1000a694:	4296d83a 	srl	r11,r8,r10
1000a698:	4a9cd83a 	srl	r14,r9,r10
1000a69c:	22d6b03a 	or	r11,r4,r11
1000a6a0:	003f6106 	br	1000a428 <__alt_data_end+0xf800a428>
1000a6a4:	00c00044 	movi	r3,1
1000a6a8:	1a94983a 	sll	r10,r3,r10
1000a6ac:	0007883a 	mov	r3,zero
1000a6b0:	003f6106 	br	1000a438 <__alt_data_end+0xf800a438>
1000a6b4:	013fff84 	movi	r4,-2
1000a6b8:	21ff7c2e 	bgeu	r4,r7,1000a4ac <__alt_data_end+0xf800a4ac>
1000a6bc:	003f9106 	br	1000a504 <__alt_data_end+0xf800a504>
1000a6c0:	00c00044 	movi	r3,1
1000a6c4:	1a94983a 	sll	r10,r3,r10
1000a6c8:	0007883a 	mov	r3,zero
1000a6cc:	003fe306 	br	1000a65c <__alt_data_end+0xf800a65c>
1000a6d0:	6816907a 	slli	r11,r13,1
1000a6d4:	010007c4 	movi	r4,31
1000a6d8:	2289c83a 	sub	r4,r4,r10
1000a6dc:	5908983a 	sll	r4,r11,r4
1000a6e0:	6296d83a 	srl	r11,r12,r10
1000a6e4:	6a9cd83a 	srl	r14,r13,r10
1000a6e8:	22d6b03a 	or	r11,r4,r11
1000a6ec:	003fd706 	br	1000a64c <__alt_data_end+0xf800a64c>
1000a6f0:	193f971e 	bne	r3,r4,1000a550 <__alt_data_end+0xf800a550>
1000a6f4:	11000117 	ldw	r4,4(r2)
1000a6f8:	28c00117 	ldw	r3,4(r5)
1000a6fc:	20ff9426 	beq	r4,r3,1000a550 <__alt_data_end+0xf800a550>
1000a700:	00840074 	movhi	r2,4097
1000a704:	10ba8104 	addi	r2,r2,-5628
1000a708:	f800283a 	ret

1000a70c <__adddf3>:
1000a70c:	deffec04 	addi	sp,sp,-80
1000a710:	d9001115 	stw	r4,68(sp)
1000a714:	d9401215 	stw	r5,72(sp)
1000a718:	d9001104 	addi	r4,sp,68
1000a71c:	d9400a04 	addi	r5,sp,40
1000a720:	dfc01315 	stw	ra,76(sp)
1000a724:	d9c01015 	stw	r7,64(sp)
1000a728:	d9800f15 	stw	r6,60(sp)
1000a72c:	000b6200 	call	1000b620 <__unpack_d>
1000a730:	d9000f04 	addi	r4,sp,60
1000a734:	d9400504 	addi	r5,sp,20
1000a738:	000b6200 	call	1000b620 <__unpack_d>
1000a73c:	d9000a04 	addi	r4,sp,40
1000a740:	d9400504 	addi	r5,sp,20
1000a744:	d80d883a 	mov	r6,sp
1000a748:	000a3b80 	call	1000a3b8 <_fpadd_parts>
1000a74c:	1009883a 	mov	r4,r2
1000a750:	000b3fc0 	call	1000b3fc <__pack_d>
1000a754:	dfc01317 	ldw	ra,76(sp)
1000a758:	dec01404 	addi	sp,sp,80
1000a75c:	f800283a 	ret

1000a760 <__subdf3>:
1000a760:	deffec04 	addi	sp,sp,-80
1000a764:	d9001115 	stw	r4,68(sp)
1000a768:	d9401215 	stw	r5,72(sp)
1000a76c:	d9001104 	addi	r4,sp,68
1000a770:	d9400a04 	addi	r5,sp,40
1000a774:	dfc01315 	stw	ra,76(sp)
1000a778:	d9c01015 	stw	r7,64(sp)
1000a77c:	d9800f15 	stw	r6,60(sp)
1000a780:	000b6200 	call	1000b620 <__unpack_d>
1000a784:	d9000f04 	addi	r4,sp,60
1000a788:	d9400504 	addi	r5,sp,20
1000a78c:	000b6200 	call	1000b620 <__unpack_d>
1000a790:	d8800617 	ldw	r2,24(sp)
1000a794:	d9000a04 	addi	r4,sp,40
1000a798:	d9400504 	addi	r5,sp,20
1000a79c:	d80d883a 	mov	r6,sp
1000a7a0:	1080005c 	xori	r2,r2,1
1000a7a4:	d8800615 	stw	r2,24(sp)
1000a7a8:	000a3b80 	call	1000a3b8 <_fpadd_parts>
1000a7ac:	1009883a 	mov	r4,r2
1000a7b0:	000b3fc0 	call	1000b3fc <__pack_d>
1000a7b4:	dfc01317 	ldw	ra,76(sp)
1000a7b8:	dec01404 	addi	sp,sp,80
1000a7bc:	f800283a 	ret

1000a7c0 <__muldf3>:
1000a7c0:	deffe404 	addi	sp,sp,-112
1000a7c4:	d9001115 	stw	r4,68(sp)
1000a7c8:	d9401215 	stw	r5,72(sp)
1000a7cc:	d9001104 	addi	r4,sp,68
1000a7d0:	d9400a04 	addi	r5,sp,40
1000a7d4:	dfc01b15 	stw	ra,108(sp)
1000a7d8:	d9800f15 	stw	r6,60(sp)
1000a7dc:	d9c01015 	stw	r7,64(sp)
1000a7e0:	ddc01a15 	stw	r23,104(sp)
1000a7e4:	dd801915 	stw	r22,100(sp)
1000a7e8:	dd401815 	stw	r21,96(sp)
1000a7ec:	dd001715 	stw	r20,92(sp)
1000a7f0:	dcc01615 	stw	r19,88(sp)
1000a7f4:	dc801515 	stw	r18,84(sp)
1000a7f8:	dc401415 	stw	r17,80(sp)
1000a7fc:	dc001315 	stw	r16,76(sp)
1000a800:	000b6200 	call	1000b620 <__unpack_d>
1000a804:	d9000f04 	addi	r4,sp,60
1000a808:	d9400504 	addi	r5,sp,20
1000a80c:	000b6200 	call	1000b620 <__unpack_d>
1000a810:	d8c00a17 	ldw	r3,40(sp)
1000a814:	00800044 	movi	r2,1
1000a818:	10c01136 	bltu	r2,r3,1000a860 <__muldf3+0xa0>
1000a81c:	d8c00b17 	ldw	r3,44(sp)
1000a820:	d8800617 	ldw	r2,24(sp)
1000a824:	d9000a04 	addi	r4,sp,40
1000a828:	1884c03a 	cmpne	r2,r3,r2
1000a82c:	d8800b15 	stw	r2,44(sp)
1000a830:	000b3fc0 	call	1000b3fc <__pack_d>
1000a834:	dfc01b17 	ldw	ra,108(sp)
1000a838:	ddc01a17 	ldw	r23,104(sp)
1000a83c:	dd801917 	ldw	r22,100(sp)
1000a840:	dd401817 	ldw	r21,96(sp)
1000a844:	dd001717 	ldw	r20,92(sp)
1000a848:	dcc01617 	ldw	r19,88(sp)
1000a84c:	dc801517 	ldw	r18,84(sp)
1000a850:	dc401417 	ldw	r17,80(sp)
1000a854:	dc001317 	ldw	r16,76(sp)
1000a858:	dec01c04 	addi	sp,sp,112
1000a85c:	f800283a 	ret
1000a860:	d9000517 	ldw	r4,20(sp)
1000a864:	11000636 	bltu	r2,r4,1000a880 <__muldf3+0xc0>
1000a868:	d8800617 	ldw	r2,24(sp)
1000a86c:	d8c00b17 	ldw	r3,44(sp)
1000a870:	d9000504 	addi	r4,sp,20
1000a874:	1884c03a 	cmpne	r2,r3,r2
1000a878:	d8800615 	stw	r2,24(sp)
1000a87c:	003fec06 	br	1000a830 <__alt_data_end+0xf800a830>
1000a880:	00800104 	movi	r2,4
1000a884:	1880051e 	bne	r3,r2,1000a89c <__muldf3+0xdc>
1000a888:	00800084 	movi	r2,2
1000a88c:	20bfe31e 	bne	r4,r2,1000a81c <__alt_data_end+0xf800a81c>
1000a890:	01040074 	movhi	r4,4097
1000a894:	213a8104 	addi	r4,r4,-5628
1000a898:	003fe506 	br	1000a830 <__alt_data_end+0xf800a830>
1000a89c:	2080031e 	bne	r4,r2,1000a8ac <__muldf3+0xec>
1000a8a0:	00800084 	movi	r2,2
1000a8a4:	18bffa26 	beq	r3,r2,1000a890 <__alt_data_end+0xf800a890>
1000a8a8:	003fef06 	br	1000a868 <__alt_data_end+0xf800a868>
1000a8ac:	00800084 	movi	r2,2
1000a8b0:	18bfda26 	beq	r3,r2,1000a81c <__alt_data_end+0xf800a81c>
1000a8b4:	20bfec26 	beq	r4,r2,1000a868 <__alt_data_end+0xf800a868>
1000a8b8:	dc000d17 	ldw	r16,52(sp)
1000a8bc:	dd000817 	ldw	r20,32(sp)
1000a8c0:	dc800917 	ldw	r18,36(sp)
1000a8c4:	8009883a 	mov	r4,r16
1000a8c8:	000b883a 	mov	r5,zero
1000a8cc:	a00d883a 	mov	r6,r20
1000a8d0:	000f883a 	mov	r7,zero
1000a8d4:	000b2400 	call	1000b240 <__muldi3>
1000a8d8:	dc400e17 	ldw	r17,56(sp)
1000a8dc:	9009883a 	mov	r4,r18
1000a8e0:	800d883a 	mov	r6,r16
1000a8e4:	000b883a 	mov	r5,zero
1000a8e8:	000f883a 	mov	r7,zero
1000a8ec:	102f883a 	mov	r23,r2
1000a8f0:	1827883a 	mov	r19,r3
1000a8f4:	000b2400 	call	1000b240 <__muldi3>
1000a8f8:	900d883a 	mov	r6,r18
1000a8fc:	8809883a 	mov	r4,r17
1000a900:	000b883a 	mov	r5,zero
1000a904:	000f883a 	mov	r7,zero
1000a908:	102b883a 	mov	r21,r2
1000a90c:	1821883a 	mov	r16,r3
1000a910:	000b2400 	call	1000b240 <__muldi3>
1000a914:	8809883a 	mov	r4,r17
1000a918:	000b883a 	mov	r5,zero
1000a91c:	a00d883a 	mov	r6,r20
1000a920:	000f883a 	mov	r7,zero
1000a924:	102d883a 	mov	r22,r2
1000a928:	1825883a 	mov	r18,r3
1000a92c:	000b2400 	call	1000b240 <__muldi3>
1000a930:	154b883a 	add	r5,r2,r21
1000a934:	2889803a 	cmpltu	r4,r5,r2
1000a938:	1c07883a 	add	r3,r3,r16
1000a93c:	20c9883a 	add	r4,r4,r3
1000a940:	24004b36 	bltu	r4,r16,1000aa70 <__muldf3+0x2b0>
1000a944:	8100011e 	bne	r16,r4,1000a94c <__muldf3+0x18c>
1000a948:	2d404936 	bltu	r5,r21,1000aa70 <__muldf3+0x2b0>
1000a94c:	0011883a 	mov	r8,zero
1000a950:	0007883a 	mov	r3,zero
1000a954:	2ccb883a 	add	r5,r5,r19
1000a958:	b80d883a 	mov	r6,r23
1000a95c:	2cc0012e 	bgeu	r5,r19,1000a964 <__muldf3+0x1a4>
1000a960:	02000044 	movi	r8,1
1000a964:	258f883a 	add	r7,r4,r22
1000a968:	3909803a 	cmpltu	r4,r7,r4
1000a96c:	da400c17 	ldw	r9,48(sp)
1000a970:	2489883a 	add	r4,r4,r18
1000a974:	d8800717 	ldw	r2,28(sp)
1000a978:	20c9883a 	add	r4,r4,r3
1000a97c:	da800b17 	ldw	r10,44(sp)
1000a980:	d8c00617 	ldw	r3,24(sp)
1000a984:	3a11883a 	add	r8,r7,r8
1000a988:	4885883a 	add	r2,r9,r2
1000a98c:	50c6c03a 	cmpne	r3,r10,r3
1000a990:	41cf803a 	cmpltu	r7,r8,r7
1000a994:	12400104 	addi	r9,r2,4
1000a998:	d8c00115 	stw	r3,4(sp)
1000a99c:	3909883a 	add	r4,r7,r4
1000a9a0:	da400215 	stw	r9,8(sp)
1000a9a4:	03480034 	movhi	r13,8192
1000a9a8:	6b7fffc4 	addi	r13,r13,-1
1000a9ac:	4007883a 	mov	r3,r8
1000a9b0:	6900102e 	bgeu	r13,r4,1000a9f4 <__muldf3+0x234>
1000a9b4:	10800144 	addi	r2,r2,5
1000a9b8:	180ed07a 	srli	r7,r3,1
1000a9bc:	18c0004c 	andi	r3,r3,1
1000a9c0:	201097fa 	slli	r8,r4,31
1000a9c4:	281697fa 	slli	r11,r5,31
1000a9c8:	2008d07a 	srli	r4,r4,1
1000a9cc:	3014d07a 	srli	r10,r6,1
1000a9d0:	2812d07a 	srli	r9,r5,1
1000a9d4:	1019883a 	mov	r12,r2
1000a9d8:	18000226 	beq	r3,zero,1000a9e4 <__muldf3+0x224>
1000a9dc:	5a8cb03a 	or	r6,r11,r10
1000a9e0:	49600034 	orhi	r5,r9,32768
1000a9e4:	41c6b03a 	or	r3,r8,r7
1000a9e8:	10800044 	addi	r2,r2,1
1000a9ec:	693ff236 	bltu	r13,r4,1000a9b8 <__alt_data_end+0xf800a9b8>
1000a9f0:	db000215 	stw	r12,8(sp)
1000a9f4:	03440034 	movhi	r13,4096
1000a9f8:	6b7fffc4 	addi	r13,r13,-1
1000a9fc:	69001336 	bltu	r13,r4,1000aa4c <__muldf3+0x28c>
1000aa00:	d8800217 	ldw	r2,8(sp)
1000aa04:	10bfffc4 	addi	r2,r2,-1
1000aa08:	18d3883a 	add	r9,r3,r3
1000aa0c:	48c7803a 	cmpltu	r3,r9,r3
1000aa10:	2109883a 	add	r4,r4,r4
1000aa14:	190f883a 	add	r7,r3,r4
1000aa18:	3191883a 	add	r8,r6,r6
1000aa1c:	4197803a 	cmpltu	r11,r8,r6
1000aa20:	2955883a 	add	r10,r5,r5
1000aa24:	1019883a 	mov	r12,r2
1000aa28:	4807883a 	mov	r3,r9
1000aa2c:	3809883a 	mov	r4,r7
1000aa30:	2800010e 	bge	r5,zero,1000aa38 <__muldf3+0x278>
1000aa34:	48c00054 	ori	r3,r9,1
1000aa38:	400d883a 	mov	r6,r8
1000aa3c:	5a8b883a 	add	r5,r11,r10
1000aa40:	10bfffc4 	addi	r2,r2,-1
1000aa44:	69fff02e 	bgeu	r13,r7,1000aa08 <__alt_data_end+0xf800aa08>
1000aa48:	db000215 	stw	r12,8(sp)
1000aa4c:	18803fcc 	andi	r2,r3,255
1000aa50:	01c02004 	movi	r7,128
1000aa54:	11c00926 	beq	r2,r7,1000aa7c <__muldf3+0x2bc>
1000aa58:	008000c4 	movi	r2,3
1000aa5c:	d9000415 	stw	r4,16(sp)
1000aa60:	d8c00315 	stw	r3,12(sp)
1000aa64:	d8800015 	stw	r2,0(sp)
1000aa68:	d809883a 	mov	r4,sp
1000aa6c:	003f7006 	br	1000a830 <__alt_data_end+0xf800a830>
1000aa70:	0011883a 	mov	r8,zero
1000aa74:	00c00044 	movi	r3,1
1000aa78:	003fb606 	br	1000a954 <__alt_data_end+0xf800a954>
1000aa7c:	19c0400c 	andi	r7,r3,256
1000aa80:	383ff51e 	bne	r7,zero,1000aa58 <__alt_data_end+0xf800aa58>
1000aa84:	314ab03a 	or	r5,r6,r5
1000aa88:	283ff326 	beq	r5,zero,1000aa58 <__alt_data_end+0xf800aa58>
1000aa8c:	1885883a 	add	r2,r3,r2
1000aa90:	10cb803a 	cmpltu	r5,r2,r3
1000aa94:	00ffc004 	movi	r3,-256
1000aa98:	10c6703a 	and	r3,r2,r3
1000aa9c:	2909883a 	add	r4,r5,r4
1000aaa0:	003fed06 	br	1000aa58 <__alt_data_end+0xf800aa58>

1000aaa4 <__divdf3>:
1000aaa4:	defff104 	addi	sp,sp,-60
1000aaa8:	d9000c15 	stw	r4,48(sp)
1000aaac:	d9400d15 	stw	r5,52(sp)
1000aab0:	d9000c04 	addi	r4,sp,48
1000aab4:	d9400504 	addi	r5,sp,20
1000aab8:	dfc00e15 	stw	ra,56(sp)
1000aabc:	d9800a15 	stw	r6,40(sp)
1000aac0:	d9c00b15 	stw	r7,44(sp)
1000aac4:	000b6200 	call	1000b620 <__unpack_d>
1000aac8:	d9000a04 	addi	r4,sp,40
1000aacc:	d80b883a 	mov	r5,sp
1000aad0:	000b6200 	call	1000b620 <__unpack_d>
1000aad4:	d8c00517 	ldw	r3,20(sp)
1000aad8:	00800044 	movi	r2,1
1000aadc:	10c00536 	bltu	r2,r3,1000aaf4 <__divdf3+0x50>
1000aae0:	d9000504 	addi	r4,sp,20
1000aae4:	000b3fc0 	call	1000b3fc <__pack_d>
1000aae8:	dfc00e17 	ldw	ra,56(sp)
1000aaec:	dec00f04 	addi	sp,sp,60
1000aaf0:	f800283a 	ret
1000aaf4:	d9000017 	ldw	r4,0(sp)
1000aaf8:	11000536 	bltu	r2,r4,1000ab10 <__divdf3+0x6c>
1000aafc:	d809883a 	mov	r4,sp
1000ab00:	000b3fc0 	call	1000b3fc <__pack_d>
1000ab04:	dfc00e17 	ldw	ra,56(sp)
1000ab08:	dec00f04 	addi	sp,sp,60
1000ab0c:	f800283a 	ret
1000ab10:	d9800617 	ldw	r6,24(sp)
1000ab14:	d9400117 	ldw	r5,4(sp)
1000ab18:	00800104 	movi	r2,4
1000ab1c:	314af03a 	xor	r5,r6,r5
1000ab20:	d9400615 	stw	r5,24(sp)
1000ab24:	18800226 	beq	r3,r2,1000ab30 <__divdf3+0x8c>
1000ab28:	01400084 	movi	r5,2
1000ab2c:	1940041e 	bne	r3,r5,1000ab40 <__divdf3+0x9c>
1000ab30:	193feb1e 	bne	r3,r4,1000aae0 <__alt_data_end+0xf800aae0>
1000ab34:	01040074 	movhi	r4,4097
1000ab38:	213a8104 	addi	r4,r4,-5628
1000ab3c:	003fe906 	br	1000aae4 <__alt_data_end+0xf800aae4>
1000ab40:	20803326 	beq	r4,r2,1000ac10 <__divdf3+0x16c>
1000ab44:	21403726 	beq	r4,r5,1000ac24 <__divdf3+0x180>
1000ab48:	d8800217 	ldw	r2,8(sp)
1000ab4c:	d9000717 	ldw	r4,28(sp)
1000ab50:	d8c00917 	ldw	r3,36(sp)
1000ab54:	da000417 	ldw	r8,16(sp)
1000ab58:	2089c83a 	sub	r4,r4,r2
1000ab5c:	d9000715 	stw	r4,28(sp)
1000ab60:	d8800817 	ldw	r2,32(sp)
1000ab64:	dbc00317 	ldw	r15,12(sp)
1000ab68:	1a000236 	bltu	r3,r8,1000ab74 <__divdf3+0xd0>
1000ab6c:	40c0081e 	bne	r8,r3,1000ab90 <__divdf3+0xec>
1000ab70:	13c0072e 	bgeu	r2,r15,1000ab90 <__divdf3+0xec>
1000ab74:	108b883a 	add	r5,r2,r2
1000ab78:	288d803a 	cmpltu	r6,r5,r2
1000ab7c:	18c7883a 	add	r3,r3,r3
1000ab80:	213fffc4 	addi	r4,r4,-1
1000ab84:	2805883a 	mov	r2,r5
1000ab88:	30c7883a 	add	r3,r6,r3
1000ab8c:	d9000715 	stw	r4,28(sp)
1000ab90:	01400f44 	movi	r5,61
1000ab94:	000f883a 	mov	r7,zero
1000ab98:	01040034 	movhi	r4,4096
1000ab9c:	0019883a 	mov	r12,zero
1000aba0:	001b883a 	mov	r13,zero
1000aba4:	201697fa 	slli	r11,r4,31
1000aba8:	3814d07a 	srli	r10,r7,1
1000abac:	297fffc4 	addi	r5,r5,-1
1000abb0:	1a000936 	bltu	r3,r8,1000abd8 <__divdf3+0x134>
1000abb4:	13cdc83a 	sub	r6,r2,r15
1000abb8:	1193803a 	cmpltu	r9,r2,r6
1000abbc:	1a1dc83a 	sub	r14,r3,r8
1000abc0:	40c0011e 	bne	r8,r3,1000abc8 <__divdf3+0x124>
1000abc4:	13c00436 	bltu	r2,r15,1000abd8 <__divdf3+0x134>
1000abc8:	3005883a 	mov	r2,r6
1000abcc:	7247c83a 	sub	r3,r14,r9
1000abd0:	61d8b03a 	or	r12,r12,r7
1000abd4:	691ab03a 	or	r13,r13,r4
1000abd8:	108d883a 	add	r6,r2,r2
1000abdc:	3093803a 	cmpltu	r9,r6,r2
1000abe0:	18c7883a 	add	r3,r3,r3
1000abe4:	5a8eb03a 	or	r7,r11,r10
1000abe8:	2008d07a 	srli	r4,r4,1
1000abec:	3005883a 	mov	r2,r6
1000abf0:	48c7883a 	add	r3,r9,r3
1000abf4:	283feb1e 	bne	r5,zero,1000aba4 <__alt_data_end+0xf800aba4>
1000abf8:	61003fcc 	andi	r4,r12,255
1000abfc:	01402004 	movi	r5,128
1000ac00:	21400b26 	beq	r4,r5,1000ac30 <__divdf3+0x18c>
1000ac04:	db000815 	stw	r12,32(sp)
1000ac08:	db400915 	stw	r13,36(sp)
1000ac0c:	003fb406 	br	1000aae0 <__alt_data_end+0xf800aae0>
1000ac10:	d8000815 	stw	zero,32(sp)
1000ac14:	d8000915 	stw	zero,36(sp)
1000ac18:	d8000715 	stw	zero,28(sp)
1000ac1c:	d9000504 	addi	r4,sp,20
1000ac20:	003fb006 	br	1000aae4 <__alt_data_end+0xf800aae4>
1000ac24:	d8800515 	stw	r2,20(sp)
1000ac28:	d9000504 	addi	r4,sp,20
1000ac2c:	003fad06 	br	1000aae4 <__alt_data_end+0xf800aae4>
1000ac30:	6140400c 	andi	r5,r12,256
1000ac34:	283ff31e 	bne	r5,zero,1000ac04 <__alt_data_end+0xf800ac04>
1000ac38:	30c4b03a 	or	r2,r6,r3
1000ac3c:	103ff126 	beq	r2,zero,1000ac04 <__alt_data_end+0xf800ac04>
1000ac40:	6109883a 	add	r4,r12,r4
1000ac44:	2305803a 	cmpltu	r2,r4,r12
1000ac48:	033fc004 	movi	r12,-256
1000ac4c:	2318703a 	and	r12,r4,r12
1000ac50:	135b883a 	add	r13,r2,r13
1000ac54:	003feb06 	br	1000ac04 <__alt_data_end+0xf800ac04>

1000ac58 <__eqdf2>:
1000ac58:	defff104 	addi	sp,sp,-60
1000ac5c:	d9000c15 	stw	r4,48(sp)
1000ac60:	d9400d15 	stw	r5,52(sp)
1000ac64:	d9000c04 	addi	r4,sp,48
1000ac68:	d9400504 	addi	r5,sp,20
1000ac6c:	dfc00e15 	stw	ra,56(sp)
1000ac70:	d9800a15 	stw	r6,40(sp)
1000ac74:	d9c00b15 	stw	r7,44(sp)
1000ac78:	000b6200 	call	1000b620 <__unpack_d>
1000ac7c:	d9000a04 	addi	r4,sp,40
1000ac80:	d80b883a 	mov	r5,sp
1000ac84:	000b6200 	call	1000b620 <__unpack_d>
1000ac88:	d8c00517 	ldw	r3,20(sp)
1000ac8c:	00800044 	movi	r2,1
1000ac90:	10c0052e 	bgeu	r2,r3,1000aca8 <__eqdf2+0x50>
1000ac94:	d8c00017 	ldw	r3,0(sp)
1000ac98:	10c0032e 	bgeu	r2,r3,1000aca8 <__eqdf2+0x50>
1000ac9c:	d9000504 	addi	r4,sp,20
1000aca0:	d80b883a 	mov	r5,sp
1000aca4:	000b7240 	call	1000b724 <__fpcmp_parts_d>
1000aca8:	dfc00e17 	ldw	ra,56(sp)
1000acac:	dec00f04 	addi	sp,sp,60
1000acb0:	f800283a 	ret

1000acb4 <__nedf2>:
1000acb4:	defff104 	addi	sp,sp,-60
1000acb8:	d9000c15 	stw	r4,48(sp)
1000acbc:	d9400d15 	stw	r5,52(sp)
1000acc0:	d9000c04 	addi	r4,sp,48
1000acc4:	d9400504 	addi	r5,sp,20
1000acc8:	dfc00e15 	stw	ra,56(sp)
1000accc:	d9800a15 	stw	r6,40(sp)
1000acd0:	d9c00b15 	stw	r7,44(sp)
1000acd4:	000b6200 	call	1000b620 <__unpack_d>
1000acd8:	d9000a04 	addi	r4,sp,40
1000acdc:	d80b883a 	mov	r5,sp
1000ace0:	000b6200 	call	1000b620 <__unpack_d>
1000ace4:	d8c00517 	ldw	r3,20(sp)
1000ace8:	00800044 	movi	r2,1
1000acec:	10c0052e 	bgeu	r2,r3,1000ad04 <__nedf2+0x50>
1000acf0:	d8c00017 	ldw	r3,0(sp)
1000acf4:	10c0032e 	bgeu	r2,r3,1000ad04 <__nedf2+0x50>
1000acf8:	d9000504 	addi	r4,sp,20
1000acfc:	d80b883a 	mov	r5,sp
1000ad00:	000b7240 	call	1000b724 <__fpcmp_parts_d>
1000ad04:	dfc00e17 	ldw	ra,56(sp)
1000ad08:	dec00f04 	addi	sp,sp,60
1000ad0c:	f800283a 	ret

1000ad10 <__gtdf2>:
1000ad10:	defff104 	addi	sp,sp,-60
1000ad14:	d9000c15 	stw	r4,48(sp)
1000ad18:	d9400d15 	stw	r5,52(sp)
1000ad1c:	d9000c04 	addi	r4,sp,48
1000ad20:	d9400504 	addi	r5,sp,20
1000ad24:	dfc00e15 	stw	ra,56(sp)
1000ad28:	d9800a15 	stw	r6,40(sp)
1000ad2c:	d9c00b15 	stw	r7,44(sp)
1000ad30:	000b6200 	call	1000b620 <__unpack_d>
1000ad34:	d9000a04 	addi	r4,sp,40
1000ad38:	d80b883a 	mov	r5,sp
1000ad3c:	000b6200 	call	1000b620 <__unpack_d>
1000ad40:	d8c00517 	ldw	r3,20(sp)
1000ad44:	00800044 	movi	r2,1
1000ad48:	10c0082e 	bgeu	r2,r3,1000ad6c <__gtdf2+0x5c>
1000ad4c:	d8c00017 	ldw	r3,0(sp)
1000ad50:	10c0062e 	bgeu	r2,r3,1000ad6c <__gtdf2+0x5c>
1000ad54:	d9000504 	addi	r4,sp,20
1000ad58:	d80b883a 	mov	r5,sp
1000ad5c:	000b7240 	call	1000b724 <__fpcmp_parts_d>
1000ad60:	dfc00e17 	ldw	ra,56(sp)
1000ad64:	dec00f04 	addi	sp,sp,60
1000ad68:	f800283a 	ret
1000ad6c:	00bfffc4 	movi	r2,-1
1000ad70:	003ffb06 	br	1000ad60 <__alt_data_end+0xf800ad60>

1000ad74 <__gedf2>:
1000ad74:	defff104 	addi	sp,sp,-60
1000ad78:	d9000c15 	stw	r4,48(sp)
1000ad7c:	d9400d15 	stw	r5,52(sp)
1000ad80:	d9000c04 	addi	r4,sp,48
1000ad84:	d9400504 	addi	r5,sp,20
1000ad88:	dfc00e15 	stw	ra,56(sp)
1000ad8c:	d9800a15 	stw	r6,40(sp)
1000ad90:	d9c00b15 	stw	r7,44(sp)
1000ad94:	000b6200 	call	1000b620 <__unpack_d>
1000ad98:	d9000a04 	addi	r4,sp,40
1000ad9c:	d80b883a 	mov	r5,sp
1000ada0:	000b6200 	call	1000b620 <__unpack_d>
1000ada4:	d8c00517 	ldw	r3,20(sp)
1000ada8:	00800044 	movi	r2,1
1000adac:	10c0082e 	bgeu	r2,r3,1000add0 <__gedf2+0x5c>
1000adb0:	d8c00017 	ldw	r3,0(sp)
1000adb4:	10c0062e 	bgeu	r2,r3,1000add0 <__gedf2+0x5c>
1000adb8:	d9000504 	addi	r4,sp,20
1000adbc:	d80b883a 	mov	r5,sp
1000adc0:	000b7240 	call	1000b724 <__fpcmp_parts_d>
1000adc4:	dfc00e17 	ldw	ra,56(sp)
1000adc8:	dec00f04 	addi	sp,sp,60
1000adcc:	f800283a 	ret
1000add0:	00bfffc4 	movi	r2,-1
1000add4:	003ffb06 	br	1000adc4 <__alt_data_end+0xf800adc4>

1000add8 <__ltdf2>:
1000add8:	defff104 	addi	sp,sp,-60
1000addc:	d9000c15 	stw	r4,48(sp)
1000ade0:	d9400d15 	stw	r5,52(sp)
1000ade4:	d9000c04 	addi	r4,sp,48
1000ade8:	d9400504 	addi	r5,sp,20
1000adec:	dfc00e15 	stw	ra,56(sp)
1000adf0:	d9800a15 	stw	r6,40(sp)
1000adf4:	d9c00b15 	stw	r7,44(sp)
1000adf8:	000b6200 	call	1000b620 <__unpack_d>
1000adfc:	d9000a04 	addi	r4,sp,40
1000ae00:	d80b883a 	mov	r5,sp
1000ae04:	000b6200 	call	1000b620 <__unpack_d>
1000ae08:	d8c00517 	ldw	r3,20(sp)
1000ae0c:	00800044 	movi	r2,1
1000ae10:	10c0052e 	bgeu	r2,r3,1000ae28 <__ltdf2+0x50>
1000ae14:	d8c00017 	ldw	r3,0(sp)
1000ae18:	10c0032e 	bgeu	r2,r3,1000ae28 <__ltdf2+0x50>
1000ae1c:	d9000504 	addi	r4,sp,20
1000ae20:	d80b883a 	mov	r5,sp
1000ae24:	000b7240 	call	1000b724 <__fpcmp_parts_d>
1000ae28:	dfc00e17 	ldw	ra,56(sp)
1000ae2c:	dec00f04 	addi	sp,sp,60
1000ae30:	f800283a 	ret

1000ae34 <__floatsidf>:
1000ae34:	2004d7fa 	srli	r2,r4,31
1000ae38:	defff904 	addi	sp,sp,-28
1000ae3c:	00c000c4 	movi	r3,3
1000ae40:	dfc00615 	stw	ra,24(sp)
1000ae44:	dc000515 	stw	r16,20(sp)
1000ae48:	d8c00015 	stw	r3,0(sp)
1000ae4c:	d8800115 	stw	r2,4(sp)
1000ae50:	2000081e 	bne	r4,zero,1000ae74 <__floatsidf+0x40>
1000ae54:	00800084 	movi	r2,2
1000ae58:	d8800015 	stw	r2,0(sp)
1000ae5c:	d809883a 	mov	r4,sp
1000ae60:	000b3fc0 	call	1000b3fc <__pack_d>
1000ae64:	dfc00617 	ldw	ra,24(sp)
1000ae68:	dc000517 	ldw	r16,20(sp)
1000ae6c:	dec00704 	addi	sp,sp,28
1000ae70:	f800283a 	ret
1000ae74:	00c00f04 	movi	r3,60
1000ae78:	d8c00215 	stw	r3,8(sp)
1000ae7c:	10000f1e 	bne	r2,zero,1000aebc <__floatsidf+0x88>
1000ae80:	2021883a 	mov	r16,r4
1000ae84:	8009883a 	mov	r4,r16
1000ae88:	000b3500 	call	1000b350 <__clzsi2>
1000ae8c:	11000744 	addi	r4,r2,29
1000ae90:	0100110e 	bge	zero,r4,1000aed8 <__floatsidf+0xa4>
1000ae94:	10ffff44 	addi	r3,r2,-3
1000ae98:	18001216 	blt	r3,zero,1000aee4 <__floatsidf+0xb0>
1000ae9c:	80c6983a 	sll	r3,r16,r3
1000aea0:	0009883a 	mov	r4,zero
1000aea4:	014007c4 	movi	r5,31
1000aea8:	2885c83a 	sub	r2,r5,r2
1000aeac:	d9000315 	stw	r4,12(sp)
1000aeb0:	d8c00415 	stw	r3,16(sp)
1000aeb4:	d8800215 	stw	r2,8(sp)
1000aeb8:	003fe806 	br	1000ae5c <__alt_data_end+0xf800ae5c>
1000aebc:	00a00034 	movhi	r2,32768
1000aec0:	20800e26 	beq	r4,r2,1000aefc <__floatsidf+0xc8>
1000aec4:	0121c83a 	sub	r16,zero,r4
1000aec8:	8009883a 	mov	r4,r16
1000aecc:	000b3500 	call	1000b350 <__clzsi2>
1000aed0:	11000744 	addi	r4,r2,29
1000aed4:	013fef16 	blt	zero,r4,1000ae94 <__alt_data_end+0xf800ae94>
1000aed8:	dc000315 	stw	r16,12(sp)
1000aedc:	d8000415 	stw	zero,16(sp)
1000aee0:	003fde06 	br	1000ae5c <__alt_data_end+0xf800ae5c>
1000aee4:	800ad07a 	srli	r5,r16,1
1000aee8:	00c007c4 	movi	r3,31
1000aeec:	1907c83a 	sub	r3,r3,r4
1000aef0:	28c6d83a 	srl	r3,r5,r3
1000aef4:	8108983a 	sll	r4,r16,r4
1000aef8:	003fea06 	br	1000aea4 <__alt_data_end+0xf800aea4>
1000aefc:	0005883a 	mov	r2,zero
1000af00:	00f07834 	movhi	r3,49632
1000af04:	003fd706 	br	1000ae64 <__alt_data_end+0xf800ae64>

1000af08 <__fixdfsi>:
1000af08:	defff804 	addi	sp,sp,-32
1000af0c:	d9000515 	stw	r4,20(sp)
1000af10:	d9400615 	stw	r5,24(sp)
1000af14:	d9000504 	addi	r4,sp,20
1000af18:	d80b883a 	mov	r5,sp
1000af1c:	dfc00715 	stw	ra,28(sp)
1000af20:	000b6200 	call	1000b620 <__unpack_d>
1000af24:	d8800017 	ldw	r2,0(sp)
1000af28:	00c00084 	movi	r3,2
1000af2c:	10c01c26 	beq	r2,r3,1000afa0 <__fixdfsi+0x98>
1000af30:	00c00044 	movi	r3,1
1000af34:	18801a2e 	bgeu	r3,r2,1000afa0 <__fixdfsi+0x98>
1000af38:	00c00104 	movi	r3,4
1000af3c:	10c01126 	beq	r2,r3,1000af84 <__fixdfsi+0x7c>
1000af40:	d8800217 	ldw	r2,8(sp)
1000af44:	10001616 	blt	r2,zero,1000afa0 <__fixdfsi+0x98>
1000af48:	00c00784 	movi	r3,30
1000af4c:	18800d16 	blt	r3,r2,1000af84 <__fixdfsi+0x7c>
1000af50:	00c00f04 	movi	r3,60
1000af54:	1885c83a 	sub	r2,r3,r2
1000af58:	10fff804 	addi	r3,r2,-32
1000af5c:	d9400317 	ldw	r5,12(sp)
1000af60:	d9000417 	ldw	r4,16(sp)
1000af64:	18001216 	blt	r3,zero,1000afb0 <__fixdfsi+0xa8>
1000af68:	20c4d83a 	srl	r2,r4,r3
1000af6c:	d8c00117 	ldw	r3,4(sp)
1000af70:	18000826 	beq	r3,zero,1000af94 <__fixdfsi+0x8c>
1000af74:	0085c83a 	sub	r2,zero,r2
1000af78:	dfc00717 	ldw	ra,28(sp)
1000af7c:	dec00804 	addi	sp,sp,32
1000af80:	f800283a 	ret
1000af84:	d8800117 	ldw	r2,4(sp)
1000af88:	00e00034 	movhi	r3,32768
1000af8c:	1005003a 	cmpeq	r2,r2,zero
1000af90:	1885c83a 	sub	r2,r3,r2
1000af94:	dfc00717 	ldw	ra,28(sp)
1000af98:	dec00804 	addi	sp,sp,32
1000af9c:	f800283a 	ret
1000afa0:	0005883a 	mov	r2,zero
1000afa4:	dfc00717 	ldw	ra,28(sp)
1000afa8:	dec00804 	addi	sp,sp,32
1000afac:	f800283a 	ret
1000afb0:	2008907a 	slli	r4,r4,1
1000afb4:	018007c4 	movi	r6,31
1000afb8:	308dc83a 	sub	r6,r6,r2
1000afbc:	2188983a 	sll	r4,r4,r6
1000afc0:	2884d83a 	srl	r2,r5,r2
1000afc4:	2084b03a 	or	r2,r4,r2
1000afc8:	003fe806 	br	1000af6c <__alt_data_end+0xf800af6c>

1000afcc <__floatunsidf>:
1000afcc:	defff904 	addi	sp,sp,-28
1000afd0:	dc000515 	stw	r16,20(sp)
1000afd4:	dfc00615 	stw	ra,24(sp)
1000afd8:	d8000115 	stw	zero,4(sp)
1000afdc:	2021883a 	mov	r16,r4
1000afe0:	20001726 	beq	r4,zero,1000b040 <__floatunsidf+0x74>
1000afe4:	008000c4 	movi	r2,3
1000afe8:	d8800015 	stw	r2,0(sp)
1000afec:	00800f04 	movi	r2,60
1000aff0:	d8800215 	stw	r2,8(sp)
1000aff4:	000b3500 	call	1000b350 <__clzsi2>
1000aff8:	10c00744 	addi	r3,r2,29
1000affc:	18001816 	blt	r3,zero,1000b060 <__floatunsidf+0x94>
1000b000:	18002d26 	beq	r3,zero,1000b0b8 <__floatunsidf+0xec>
1000b004:	113fff44 	addi	r4,r2,-3
1000b008:	20002e16 	blt	r4,zero,1000b0c4 <__floatunsidf+0xf8>
1000b00c:	8108983a 	sll	r4,r16,r4
1000b010:	0021883a 	mov	r16,zero
1000b014:	014007c4 	movi	r5,31
1000b018:	2885c83a 	sub	r2,r5,r2
1000b01c:	dc000315 	stw	r16,12(sp)
1000b020:	d9000415 	stw	r4,16(sp)
1000b024:	d8800215 	stw	r2,8(sp)
1000b028:	d809883a 	mov	r4,sp
1000b02c:	000b3fc0 	call	1000b3fc <__pack_d>
1000b030:	dfc00617 	ldw	ra,24(sp)
1000b034:	dc000517 	ldw	r16,20(sp)
1000b038:	dec00704 	addi	sp,sp,28
1000b03c:	f800283a 	ret
1000b040:	00800084 	movi	r2,2
1000b044:	d809883a 	mov	r4,sp
1000b048:	d8800015 	stw	r2,0(sp)
1000b04c:	000b3fc0 	call	1000b3fc <__pack_d>
1000b050:	dfc00617 	ldw	ra,24(sp)
1000b054:	dc000517 	ldw	r16,20(sp)
1000b058:	dec00704 	addi	sp,sp,28
1000b05c:	f800283a 	ret
1000b060:	00c7c83a 	sub	r3,zero,r3
1000b064:	193ff804 	addi	r4,r3,-32
1000b068:	20001c16 	blt	r4,zero,1000b0dc <__floatunsidf+0x110>
1000b06c:	000b883a 	mov	r5,zero
1000b070:	2009d7fa 	srai	r4,r4,31
1000b074:	80c6d83a 	srl	r3,r16,r3
1000b078:	297fffc4 	addi	r5,r5,-1
1000b07c:	2c20703a 	and	r16,r5,r16
1000b080:	8020c03a 	cmpne	r16,r16,zero
1000b084:	1906703a 	and	r3,r3,r4
1000b088:	010007c4 	movi	r4,31
1000b08c:	80c6b03a 	or	r3,r16,r3
1000b090:	2085c83a 	sub	r2,r4,r2
1000b094:	d809883a 	mov	r4,sp
1000b098:	d8c00315 	stw	r3,12(sp)
1000b09c:	d8000415 	stw	zero,16(sp)
1000b0a0:	d8800215 	stw	r2,8(sp)
1000b0a4:	000b3fc0 	call	1000b3fc <__pack_d>
1000b0a8:	dfc00617 	ldw	ra,24(sp)
1000b0ac:	dc000517 	ldw	r16,20(sp)
1000b0b0:	dec00704 	addi	sp,sp,28
1000b0b4:	f800283a 	ret
1000b0b8:	dc000315 	stw	r16,12(sp)
1000b0bc:	d8000415 	stw	zero,16(sp)
1000b0c0:	003fd906 	br	1000b028 <__alt_data_end+0xf800b028>
1000b0c4:	800ad07a 	srli	r5,r16,1
1000b0c8:	010007c4 	movi	r4,31
1000b0cc:	20c9c83a 	sub	r4,r4,r3
1000b0d0:	2908d83a 	srl	r4,r5,r4
1000b0d4:	80e0983a 	sll	r16,r16,r3
1000b0d8:	003fce06 	br	1000b014 <__alt_data_end+0xf800b014>
1000b0dc:	01400044 	movi	r5,1
1000b0e0:	28ca983a 	sll	r5,r5,r3
1000b0e4:	003fe206 	br	1000b070 <__alt_data_end+0xf800b070>

1000b0e8 <udivmodsi4>:
1000b0e8:	2005883a 	mov	r2,r4
1000b0ec:	2900182e 	bgeu	r5,r4,1000b150 <udivmodsi4+0x68>
1000b0f0:	28001716 	blt	r5,zero,1000b150 <udivmodsi4+0x68>
1000b0f4:	01000804 	movi	r4,32
1000b0f8:	00c00044 	movi	r3,1
1000b0fc:	00000206 	br	1000b108 <udivmodsi4+0x20>
1000b100:	20001126 	beq	r4,zero,1000b148 <udivmodsi4+0x60>
1000b104:	28000516 	blt	r5,zero,1000b11c <udivmodsi4+0x34>
1000b108:	294b883a 	add	r5,r5,r5
1000b10c:	213fffc4 	addi	r4,r4,-1
1000b110:	18c7883a 	add	r3,r3,r3
1000b114:	28bffa36 	bltu	r5,r2,1000b100 <__alt_data_end+0xf800b100>
1000b118:	18000b26 	beq	r3,zero,1000b148 <udivmodsi4+0x60>
1000b11c:	0009883a 	mov	r4,zero
1000b120:	11400236 	bltu	r2,r5,1000b12c <udivmodsi4+0x44>
1000b124:	1145c83a 	sub	r2,r2,r5
1000b128:	20c8b03a 	or	r4,r4,r3
1000b12c:	1806d07a 	srli	r3,r3,1
1000b130:	280ad07a 	srli	r5,r5,1
1000b134:	183ffa1e 	bne	r3,zero,1000b120 <__alt_data_end+0xf800b120>
1000b138:	3000021e 	bne	r6,zero,1000b144 <udivmodsi4+0x5c>
1000b13c:	2005883a 	mov	r2,r4
1000b140:	f800283a 	ret
1000b144:	f800283a 	ret
1000b148:	0009883a 	mov	r4,zero
1000b14c:	003ffa06 	br	1000b138 <__alt_data_end+0xf800b138>
1000b150:	00c00044 	movi	r3,1
1000b154:	0009883a 	mov	r4,zero
1000b158:	003ff106 	br	1000b120 <__alt_data_end+0xf800b120>

1000b15c <__divsi3>:
1000b15c:	defffe04 	addi	sp,sp,-8
1000b160:	dfc00115 	stw	ra,4(sp)
1000b164:	dc000015 	stw	r16,0(sp)
1000b168:	20000a16 	blt	r4,zero,1000b194 <__divsi3+0x38>
1000b16c:	0021883a 	mov	r16,zero
1000b170:	28000b16 	blt	r5,zero,1000b1a0 <__divsi3+0x44>
1000b174:	000d883a 	mov	r6,zero
1000b178:	000b0e80 	call	1000b0e8 <udivmodsi4>
1000b17c:	80000126 	beq	r16,zero,1000b184 <__divsi3+0x28>
1000b180:	0085c83a 	sub	r2,zero,r2
1000b184:	dfc00117 	ldw	ra,4(sp)
1000b188:	dc000017 	ldw	r16,0(sp)
1000b18c:	dec00204 	addi	sp,sp,8
1000b190:	f800283a 	ret
1000b194:	0109c83a 	sub	r4,zero,r4
1000b198:	04000044 	movi	r16,1
1000b19c:	283ff50e 	bge	r5,zero,1000b174 <__alt_data_end+0xf800b174>
1000b1a0:	014bc83a 	sub	r5,zero,r5
1000b1a4:	8400005c 	xori	r16,r16,1
1000b1a8:	003ff206 	br	1000b174 <__alt_data_end+0xf800b174>

1000b1ac <__modsi3>:
1000b1ac:	deffff04 	addi	sp,sp,-4
1000b1b0:	dfc00015 	stw	ra,0(sp)
1000b1b4:	20000516 	blt	r4,zero,1000b1cc <__modsi3+0x20>
1000b1b8:	28000c16 	blt	r5,zero,1000b1ec <__modsi3+0x40>
1000b1bc:	01800044 	movi	r6,1
1000b1c0:	dfc00017 	ldw	ra,0(sp)
1000b1c4:	dec00104 	addi	sp,sp,4
1000b1c8:	000b0e81 	jmpi	1000b0e8 <udivmodsi4>
1000b1cc:	0109c83a 	sub	r4,zero,r4
1000b1d0:	28000b16 	blt	r5,zero,1000b200 <__modsi3+0x54>
1000b1d4:	01800044 	movi	r6,1
1000b1d8:	000b0e80 	call	1000b0e8 <udivmodsi4>
1000b1dc:	0085c83a 	sub	r2,zero,r2
1000b1e0:	dfc00017 	ldw	ra,0(sp)
1000b1e4:	dec00104 	addi	sp,sp,4
1000b1e8:	f800283a 	ret
1000b1ec:	014bc83a 	sub	r5,zero,r5
1000b1f0:	01800044 	movi	r6,1
1000b1f4:	dfc00017 	ldw	ra,0(sp)
1000b1f8:	dec00104 	addi	sp,sp,4
1000b1fc:	000b0e81 	jmpi	1000b0e8 <udivmodsi4>
1000b200:	014bc83a 	sub	r5,zero,r5
1000b204:	003ff306 	br	1000b1d4 <__alt_data_end+0xf800b1d4>

1000b208 <__udivsi3>:
1000b208:	000d883a 	mov	r6,zero
1000b20c:	000b0e81 	jmpi	1000b0e8 <udivmodsi4>

1000b210 <__umodsi3>:
1000b210:	01800044 	movi	r6,1
1000b214:	000b0e81 	jmpi	1000b0e8 <udivmodsi4>

1000b218 <__mulsi3>:
1000b218:	0005883a 	mov	r2,zero
1000b21c:	20000726 	beq	r4,zero,1000b23c <__mulsi3+0x24>
1000b220:	20c0004c 	andi	r3,r4,1
1000b224:	2008d07a 	srli	r4,r4,1
1000b228:	18000126 	beq	r3,zero,1000b230 <__mulsi3+0x18>
1000b22c:	1145883a 	add	r2,r2,r5
1000b230:	294b883a 	add	r5,r5,r5
1000b234:	203ffa1e 	bne	r4,zero,1000b220 <__alt_data_end+0xf800b220>
1000b238:	f800283a 	ret
1000b23c:	f800283a 	ret

1000b240 <__muldi3>:
1000b240:	defff604 	addi	sp,sp,-40
1000b244:	dd400515 	stw	r21,20(sp)
1000b248:	dd000415 	stw	r20,16(sp)
1000b24c:	257fffcc 	andi	r21,r4,65535
1000b250:	353fffcc 	andi	r20,r6,65535
1000b254:	dcc00315 	stw	r19,12(sp)
1000b258:	3026d43a 	srli	r19,r6,16
1000b25c:	dd800615 	stw	r22,24(sp)
1000b260:	dc800215 	stw	r18,8(sp)
1000b264:	dc400115 	stw	r17,4(sp)
1000b268:	2024d43a 	srli	r18,r4,16
1000b26c:	2023883a 	mov	r17,r4
1000b270:	282d883a 	mov	r22,r5
1000b274:	a009883a 	mov	r4,r20
1000b278:	a80b883a 	mov	r5,r21
1000b27c:	dfc00915 	stw	ra,36(sp)
1000b280:	df000815 	stw	fp,32(sp)
1000b284:	ddc00715 	stw	r23,28(sp)
1000b288:	3839883a 	mov	fp,r7
1000b28c:	dc000015 	stw	r16,0(sp)
1000b290:	3021883a 	mov	r16,r6
1000b294:	000b2180 	call	1000b218 <__mulsi3>
1000b298:	a80b883a 	mov	r5,r21
1000b29c:	9809883a 	mov	r4,r19
1000b2a0:	102f883a 	mov	r23,r2
1000b2a4:	000b2180 	call	1000b218 <__mulsi3>
1000b2a8:	a009883a 	mov	r4,r20
1000b2ac:	900b883a 	mov	r5,r18
1000b2b0:	102b883a 	mov	r21,r2
1000b2b4:	000b2180 	call	1000b218 <__mulsi3>
1000b2b8:	9809883a 	mov	r4,r19
1000b2bc:	900b883a 	mov	r5,r18
1000b2c0:	1029883a 	mov	r20,r2
1000b2c4:	000b2180 	call	1000b218 <__mulsi3>
1000b2c8:	1007883a 	mov	r3,r2
1000b2cc:	b804d43a 	srli	r2,r23,16
1000b2d0:	a549883a 	add	r4,r20,r21
1000b2d4:	2089883a 	add	r4,r4,r2
1000b2d8:	2500022e 	bgeu	r4,r20,1000b2e4 <__muldi3+0xa4>
1000b2dc:	00800074 	movhi	r2,1
1000b2e0:	1887883a 	add	r3,r3,r2
1000b2e4:	200cd43a 	srli	r6,r4,16
1000b2e8:	2004943a 	slli	r2,r4,16
1000b2ec:	e00b883a 	mov	r5,fp
1000b2f0:	8809883a 	mov	r4,r17
1000b2f4:	bdffffcc 	andi	r23,r23,65535
1000b2f8:	19a3883a 	add	r17,r3,r6
1000b2fc:	15ef883a 	add	r23,r2,r23
1000b300:	000b2180 	call	1000b218 <__mulsi3>
1000b304:	8009883a 	mov	r4,r16
1000b308:	b00b883a 	mov	r5,r22
1000b30c:	1025883a 	mov	r18,r2
1000b310:	000b2180 	call	1000b218 <__mulsi3>
1000b314:	9085883a 	add	r2,r18,r2
1000b318:	1447883a 	add	r3,r2,r17
1000b31c:	b805883a 	mov	r2,r23
1000b320:	dfc00917 	ldw	ra,36(sp)
1000b324:	df000817 	ldw	fp,32(sp)
1000b328:	ddc00717 	ldw	r23,28(sp)
1000b32c:	dd800617 	ldw	r22,24(sp)
1000b330:	dd400517 	ldw	r21,20(sp)
1000b334:	dd000417 	ldw	r20,16(sp)
1000b338:	dcc00317 	ldw	r19,12(sp)
1000b33c:	dc800217 	ldw	r18,8(sp)
1000b340:	dc400117 	ldw	r17,4(sp)
1000b344:	dc000017 	ldw	r16,0(sp)
1000b348:	dec00a04 	addi	sp,sp,40
1000b34c:	f800283a 	ret

1000b350 <__clzsi2>:
1000b350:	00bfffd4 	movui	r2,65535
1000b354:	11000b36 	bltu	r2,r4,1000b384 <__clzsi2+0x34>
1000b358:	00803fc4 	movi	r2,255
1000b35c:	11001e2e 	bgeu	r2,r4,1000b3d8 <__clzsi2+0x88>
1000b360:	00c00204 	movi	r3,8
1000b364:	20c8d83a 	srl	r4,r4,r3
1000b368:	00c40074 	movhi	r3,4097
1000b36c:	18fa8604 	addi	r3,r3,-5608
1000b370:	00800604 	movi	r2,24
1000b374:	1909883a 	add	r4,r3,r4
1000b378:	20c00003 	ldbu	r3,0(r4)
1000b37c:	10c5c83a 	sub	r2,r2,r3
1000b380:	f800283a 	ret
1000b384:	00804034 	movhi	r2,256
1000b388:	10bfffc4 	addi	r2,r2,-1
1000b38c:	11000936 	bltu	r2,r4,1000b3b4 <__clzsi2+0x64>
1000b390:	00800404 	movi	r2,16
1000b394:	1007883a 	mov	r3,r2
1000b398:	20c8d83a 	srl	r4,r4,r3
1000b39c:	00c40074 	movhi	r3,4097
1000b3a0:	18fa8604 	addi	r3,r3,-5608
1000b3a4:	1909883a 	add	r4,r3,r4
1000b3a8:	20c00003 	ldbu	r3,0(r4)
1000b3ac:	10c5c83a 	sub	r2,r2,r3
1000b3b0:	f800283a 	ret
1000b3b4:	00c00604 	movi	r3,24
1000b3b8:	20c8d83a 	srl	r4,r4,r3
1000b3bc:	00c40074 	movhi	r3,4097
1000b3c0:	18fa8604 	addi	r3,r3,-5608
1000b3c4:	00800204 	movi	r2,8
1000b3c8:	1909883a 	add	r4,r3,r4
1000b3cc:	20c00003 	ldbu	r3,0(r4)
1000b3d0:	10c5c83a 	sub	r2,r2,r3
1000b3d4:	f800283a 	ret
1000b3d8:	0007883a 	mov	r3,zero
1000b3dc:	20c8d83a 	srl	r4,r4,r3
1000b3e0:	00c40074 	movhi	r3,4097
1000b3e4:	18fa8604 	addi	r3,r3,-5608
1000b3e8:	00800804 	movi	r2,32
1000b3ec:	1909883a 	add	r4,r3,r4
1000b3f0:	20c00003 	ldbu	r3,0(r4)
1000b3f4:	10c5c83a 	sub	r2,r2,r3
1000b3f8:	f800283a 	ret

1000b3fc <__pack_d>:
1000b3fc:	20800017 	ldw	r2,0(r4)
1000b400:	defff804 	addi	sp,sp,-32
1000b404:	dcc00315 	stw	r19,12(sp)
1000b408:	dc800215 	stw	r18,8(sp)
1000b40c:	dfc00715 	stw	ra,28(sp)
1000b410:	dd800615 	stw	r22,24(sp)
1000b414:	dd400515 	stw	r21,20(sp)
1000b418:	dd000415 	stw	r20,16(sp)
1000b41c:	dc400115 	stw	r17,4(sp)
1000b420:	dc000015 	stw	r16,0(sp)
1000b424:	04800044 	movi	r18,1
1000b428:	24400317 	ldw	r17,12(r4)
1000b42c:	24000417 	ldw	r16,16(r4)
1000b430:	24c00117 	ldw	r19,4(r4)
1000b434:	9080422e 	bgeu	r18,r2,1000b540 <__pack_d+0x144>
1000b438:	00c00104 	movi	r3,4
1000b43c:	10c03c26 	beq	r2,r3,1000b530 <__pack_d+0x134>
1000b440:	00c00084 	movi	r3,2
1000b444:	10c01926 	beq	r2,r3,1000b4ac <__pack_d+0xb0>
1000b448:	8c04b03a 	or	r2,r17,r16
1000b44c:	10001726 	beq	r2,zero,1000b4ac <__pack_d+0xb0>
1000b450:	21000217 	ldw	r4,8(r4)
1000b454:	00bf0084 	movi	r2,-1022
1000b458:	20804016 	blt	r4,r2,1000b55c <__pack_d+0x160>
1000b45c:	0080ffc4 	movi	r2,1023
1000b460:	11003316 	blt	r2,r4,1000b530 <__pack_d+0x134>
1000b464:	88803fcc 	andi	r2,r17,255
1000b468:	00c02004 	movi	r3,128
1000b46c:	10c02926 	beq	r2,r3,1000b514 <__pack_d+0x118>
1000b470:	88801fc4 	addi	r2,r17,127
1000b474:	1463803a 	cmpltu	r17,r2,r17
1000b478:	8c21883a 	add	r16,r17,r16
1000b47c:	1023883a 	mov	r17,r2
1000b480:	00880034 	movhi	r2,8192
1000b484:	10bfffc4 	addi	r2,r2,-1
1000b488:	14001c36 	bltu	r2,r16,1000b4fc <__pack_d+0x100>
1000b48c:	2100ffc4 	addi	r4,r4,1023
1000b490:	8006963a 	slli	r3,r16,24
1000b494:	8804d23a 	srli	r2,r17,8
1000b498:	8020913a 	slli	r16,r16,4
1000b49c:	2101ffcc 	andi	r4,r4,2047
1000b4a0:	1884b03a 	or	r2,r3,r2
1000b4a4:	8020d33a 	srli	r16,r16,12
1000b4a8:	00000306 	br	1000b4b8 <__pack_d+0xbc>
1000b4ac:	0009883a 	mov	r4,zero
1000b4b0:	0005883a 	mov	r2,zero
1000b4b4:	0021883a 	mov	r16,zero
1000b4b8:	2008953a 	slli	r4,r4,20
1000b4bc:	982697fa 	slli	r19,r19,31
1000b4c0:	00c00434 	movhi	r3,16
1000b4c4:	18ffffc4 	addi	r3,r3,-1
1000b4c8:	80e0703a 	and	r16,r16,r3
1000b4cc:	8106b03a 	or	r3,r16,r4
1000b4d0:	1cc6b03a 	or	r3,r3,r19
1000b4d4:	dfc00717 	ldw	ra,28(sp)
1000b4d8:	dd800617 	ldw	r22,24(sp)
1000b4dc:	dd400517 	ldw	r21,20(sp)
1000b4e0:	dd000417 	ldw	r20,16(sp)
1000b4e4:	dcc00317 	ldw	r19,12(sp)
1000b4e8:	dc800217 	ldw	r18,8(sp)
1000b4ec:	dc400117 	ldw	r17,4(sp)
1000b4f0:	dc000017 	ldw	r16,0(sp)
1000b4f4:	dec00804 	addi	sp,sp,32
1000b4f8:	f800283a 	ret
1000b4fc:	800697fa 	slli	r3,r16,31
1000b500:	8804d07a 	srli	r2,r17,1
1000b504:	21010004 	addi	r4,r4,1024
1000b508:	8020d07a 	srli	r16,r16,1
1000b50c:	18a2b03a 	or	r17,r3,r2
1000b510:	003fdf06 	br	1000b490 <__alt_data_end+0xf800b490>
1000b514:	88c0400c 	andi	r3,r17,256
1000b518:	183fd926 	beq	r3,zero,1000b480 <__alt_data_end+0xf800b480>
1000b51c:	8885883a 	add	r2,r17,r2
1000b520:	1463803a 	cmpltu	r17,r2,r17
1000b524:	8c21883a 	add	r16,r17,r16
1000b528:	1023883a 	mov	r17,r2
1000b52c:	003fd406 	br	1000b480 <__alt_data_end+0xf800b480>
1000b530:	0101ffc4 	movi	r4,2047
1000b534:	0005883a 	mov	r2,zero
1000b538:	0021883a 	mov	r16,zero
1000b53c:	003fde06 	br	1000b4b8 <__alt_data_end+0xf800b4b8>
1000b540:	84000234 	orhi	r16,r16,8
1000b544:	00c00434 	movhi	r3,16
1000b548:	18ffffc4 	addi	r3,r3,-1
1000b54c:	8805883a 	mov	r2,r17
1000b550:	80e0703a 	and	r16,r16,r3
1000b554:	0101ffc4 	movi	r4,2047
1000b558:	003fd706 	br	1000b4b8 <__alt_data_end+0xf800b4b8>
1000b55c:	1129c83a 	sub	r20,r2,r4
1000b560:	00800e04 	movi	r2,56
1000b564:	15002716 	blt	r2,r20,1000b604 <__pack_d+0x208>
1000b568:	800b883a 	mov	r5,r16
1000b56c:	a00d883a 	mov	r6,r20
1000b570:	8809883a 	mov	r4,r17
1000b574:	000b7f40 	call	1000b7f4 <__lshrdi3>
1000b578:	9009883a 	mov	r4,r18
1000b57c:	000b883a 	mov	r5,zero
1000b580:	a00d883a 	mov	r6,r20
1000b584:	102d883a 	mov	r22,r2
1000b588:	182b883a 	mov	r21,r3
1000b58c:	000b8380 	call	1000b838 <__ashldi3>
1000b590:	1009003a 	cmpeq	r4,r2,zero
1000b594:	1907c83a 	sub	r3,r3,r4
1000b598:	10bfffc4 	addi	r2,r2,-1
1000b59c:	1c20703a 	and	r16,r3,r16
1000b5a0:	1444703a 	and	r2,r2,r17
1000b5a4:	1404b03a 	or	r2,r2,r16
1000b5a8:	1004c03a 	cmpne	r2,r2,zero
1000b5ac:	1584b03a 	or	r2,r2,r22
1000b5b0:	11003fcc 	andi	r4,r2,255
1000b5b4:	01402004 	movi	r5,128
1000b5b8:	a807883a 	mov	r3,r21
1000b5bc:	2140131e 	bne	r4,r5,1000b60c <__pack_d+0x210>
1000b5c0:	1140400c 	andi	r5,r2,256
1000b5c4:	28000426 	beq	r5,zero,1000b5d8 <__pack_d+0x1dc>
1000b5c8:	1109883a 	add	r4,r2,r4
1000b5cc:	2085803a 	cmpltu	r2,r4,r2
1000b5d0:	1547883a 	add	r3,r2,r21
1000b5d4:	2005883a 	mov	r2,r4
1000b5d8:	1808963a 	slli	r4,r3,24
1000b5dc:	1004d23a 	srli	r2,r2,8
1000b5e0:	1820913a 	slli	r16,r3,4
1000b5e4:	01440034 	movhi	r5,4096
1000b5e8:	297fffc4 	addi	r5,r5,-1
1000b5ec:	2084b03a 	or	r2,r4,r2
1000b5f0:	8020d33a 	srli	r16,r16,12
1000b5f4:	01000044 	movi	r4,1
1000b5f8:	28ffaf36 	bltu	r5,r3,1000b4b8 <__alt_data_end+0xf800b4b8>
1000b5fc:	0009883a 	mov	r4,zero
1000b600:	003fad06 	br	1000b4b8 <__alt_data_end+0xf800b4b8>
1000b604:	0005883a 	mov	r2,zero
1000b608:	0007883a 	mov	r3,zero
1000b60c:	11001fc4 	addi	r4,r2,127
1000b610:	2085803a 	cmpltu	r2,r4,r2
1000b614:	10c7883a 	add	r3,r2,r3
1000b618:	2005883a 	mov	r2,r4
1000b61c:	003fee06 	br	1000b5d8 <__alt_data_end+0xf800b5d8>

1000b620 <__unpack_d>:
1000b620:	21800117 	ldw	r6,4(r4)
1000b624:	20c00017 	ldw	r3,0(r4)
1000b628:	3004d7fa 	srli	r2,r6,31
1000b62c:	3008d53a 	srli	r4,r6,20
1000b630:	28800115 	stw	r2,4(r5)
1000b634:	2101ffcc 	andi	r4,r4,2047
1000b638:	00800434 	movhi	r2,16
1000b63c:	10bfffc4 	addi	r2,r2,-1
1000b640:	3084703a 	and	r2,r6,r2
1000b644:	20001a1e 	bne	r4,zero,1000b6b0 <__unpack_d+0x90>
1000b648:	1888b03a 	or	r4,r3,r2
1000b64c:	20002626 	beq	r4,zero,1000b6e8 <__unpack_d+0xc8>
1000b650:	1808d63a 	srli	r4,r3,24
1000b654:	1004923a 	slli	r2,r2,8
1000b658:	01bf0084 	movi	r6,-1022
1000b65c:	29800215 	stw	r6,8(r5)
1000b660:	2084b03a 	or	r2,r4,r2
1000b664:	010000c4 	movi	r4,3
1000b668:	29000015 	stw	r4,0(r5)
1000b66c:	02040034 	movhi	r8,4096
1000b670:	423fffc4 	addi	r8,r8,-1
1000b674:	1806923a 	slli	r3,r3,8
1000b678:	40801836 	bltu	r8,r2,1000b6dc <__unpack_d+0xbc>
1000b67c:	013f0044 	movi	r4,-1023
1000b680:	18cd883a 	add	r6,r3,r3
1000b684:	30c7803a 	cmpltu	r3,r6,r3
1000b688:	1085883a 	add	r2,r2,r2
1000b68c:	1885883a 	add	r2,r3,r2
1000b690:	200f883a 	mov	r7,r4
1000b694:	3007883a 	mov	r3,r6
1000b698:	213fffc4 	addi	r4,r4,-1
1000b69c:	40bff82e 	bgeu	r8,r2,1000b680 <__alt_data_end+0xf800b680>
1000b6a0:	29c00215 	stw	r7,8(r5)
1000b6a4:	28c00315 	stw	r3,12(r5)
1000b6a8:	28800415 	stw	r2,16(r5)
1000b6ac:	f800283a 	ret
1000b6b0:	01c1ffc4 	movi	r7,2047
1000b6b4:	21c00f26 	beq	r4,r7,1000b6f4 <__unpack_d+0xd4>
1000b6b8:	180cd63a 	srli	r6,r3,24
1000b6bc:	1004923a 	slli	r2,r2,8
1000b6c0:	213f0044 	addi	r4,r4,-1023
1000b6c4:	1806923a 	slli	r3,r3,8
1000b6c8:	3084b03a 	or	r2,r6,r2
1000b6cc:	29000215 	stw	r4,8(r5)
1000b6d0:	010000c4 	movi	r4,3
1000b6d4:	10840034 	orhi	r2,r2,4096
1000b6d8:	29000015 	stw	r4,0(r5)
1000b6dc:	28c00315 	stw	r3,12(r5)
1000b6e0:	28800415 	stw	r2,16(r5)
1000b6e4:	f800283a 	ret
1000b6e8:	00800084 	movi	r2,2
1000b6ec:	28800015 	stw	r2,0(r5)
1000b6f0:	f800283a 	ret
1000b6f4:	1888b03a 	or	r4,r3,r2
1000b6f8:	20000526 	beq	r4,zero,1000b710 <__unpack_d+0xf0>
1000b6fc:	3180022c 	andhi	r6,r6,8
1000b700:	30000626 	beq	r6,zero,1000b71c <__unpack_d+0xfc>
1000b704:	01000044 	movi	r4,1
1000b708:	29000015 	stw	r4,0(r5)
1000b70c:	003ff306 	br	1000b6dc <__alt_data_end+0xf800b6dc>
1000b710:	00800104 	movi	r2,4
1000b714:	28800015 	stw	r2,0(r5)
1000b718:	f800283a 	ret
1000b71c:	28000015 	stw	zero,0(r5)
1000b720:	003fee06 	br	1000b6dc <__alt_data_end+0xf800b6dc>

1000b724 <__fpcmp_parts_d>:
1000b724:	20c00017 	ldw	r3,0(r4)
1000b728:	00800044 	movi	r2,1
1000b72c:	10c0142e 	bgeu	r2,r3,1000b780 <__fpcmp_parts_d+0x5c>
1000b730:	29800017 	ldw	r6,0(r5)
1000b734:	1180122e 	bgeu	r2,r6,1000b780 <__fpcmp_parts_d+0x5c>
1000b738:	01c00104 	movi	r7,4
1000b73c:	19c02826 	beq	r3,r7,1000b7e0 <__fpcmp_parts_d+0xbc>
1000b740:	31c00926 	beq	r6,r7,1000b768 <__fpcmp_parts_d+0x44>
1000b744:	01c00084 	movi	r7,2
1000b748:	19c00626 	beq	r3,r7,1000b764 <__fpcmp_parts_d+0x40>
1000b74c:	31c00a26 	beq	r6,r7,1000b778 <__fpcmp_parts_d+0x54>
1000b750:	20c00117 	ldw	r3,4(r4)
1000b754:	29800117 	ldw	r6,4(r5)
1000b758:	19800b26 	beq	r3,r6,1000b788 <__fpcmp_parts_d+0x64>
1000b75c:	1800041e 	bne	r3,zero,1000b770 <__fpcmp_parts_d+0x4c>
1000b760:	f800283a 	ret
1000b764:	30c01a26 	beq	r6,r3,1000b7d0 <__fpcmp_parts_d+0xac>
1000b768:	28800117 	ldw	r2,4(r5)
1000b76c:	1000041e 	bne	r2,zero,1000b780 <__fpcmp_parts_d+0x5c>
1000b770:	00bfffc4 	movi	r2,-1
1000b774:	f800283a 	ret
1000b778:	20800117 	ldw	r2,4(r4)
1000b77c:	103ffc1e 	bne	r2,zero,1000b770 <__alt_data_end+0xf800b770>
1000b780:	00800044 	movi	r2,1
1000b784:	f800283a 	ret
1000b788:	21c00217 	ldw	r7,8(r4)
1000b78c:	29800217 	ldw	r6,8(r5)
1000b790:	31c0020e 	bge	r6,r7,1000b79c <__fpcmp_parts_d+0x78>
1000b794:	183ff61e 	bne	r3,zero,1000b770 <__alt_data_end+0xf800b770>
1000b798:	f800283a 	ret
1000b79c:	39800a16 	blt	r7,r6,1000b7c8 <__fpcmp_parts_d+0xa4>
1000b7a0:	20800417 	ldw	r2,16(r4)
1000b7a4:	29800417 	ldw	r6,16(r5)
1000b7a8:	21c00317 	ldw	r7,12(r4)
1000b7ac:	29000317 	ldw	r4,12(r5)
1000b7b0:	30800936 	bltu	r6,r2,1000b7d8 <__fpcmp_parts_d+0xb4>
1000b7b4:	1180011e 	bne	r2,r6,1000b7bc <__fpcmp_parts_d+0x98>
1000b7b8:	21c00736 	bltu	r4,r7,1000b7d8 <__fpcmp_parts_d+0xb4>
1000b7bc:	11800236 	bltu	r2,r6,1000b7c8 <__fpcmp_parts_d+0xa4>
1000b7c0:	3080031e 	bne	r6,r2,1000b7d0 <__fpcmp_parts_d+0xac>
1000b7c4:	3900022e 	bgeu	r7,r4,1000b7d0 <__fpcmp_parts_d+0xac>
1000b7c8:	183fe926 	beq	r3,zero,1000b770 <__alt_data_end+0xf800b770>
1000b7cc:	003fec06 	br	1000b780 <__alt_data_end+0xf800b780>
1000b7d0:	0005883a 	mov	r2,zero
1000b7d4:	f800283a 	ret
1000b7d8:	183fe926 	beq	r3,zero,1000b780 <__alt_data_end+0xf800b780>
1000b7dc:	003fe406 	br	1000b770 <__alt_data_end+0xf800b770>
1000b7e0:	30ffe51e 	bne	r6,r3,1000b778 <__alt_data_end+0xf800b778>
1000b7e4:	28c00117 	ldw	r3,4(r5)
1000b7e8:	20800117 	ldw	r2,4(r4)
1000b7ec:	1885c83a 	sub	r2,r3,r2
1000b7f0:	f800283a 	ret

1000b7f4 <__lshrdi3>:
1000b7f4:	2005883a 	mov	r2,r4
1000b7f8:	2807883a 	mov	r3,r5
1000b7fc:	30000826 	beq	r6,zero,1000b820 <__lshrdi3+0x2c>
1000b800:	01000804 	movi	r4,32
1000b804:	2189c83a 	sub	r4,r4,r6
1000b808:	0100060e 	bge	zero,r4,1000b824 <__lshrdi3+0x30>
1000b80c:	1184d83a 	srl	r2,r2,r6
1000b810:	2908983a 	sll	r4,r5,r4
1000b814:	298cd83a 	srl	r6,r5,r6
1000b818:	2084b03a 	or	r2,r4,r2
1000b81c:	3007883a 	mov	r3,r6
1000b820:	f800283a 	ret
1000b824:	0105c83a 	sub	r2,zero,r4
1000b828:	000d883a 	mov	r6,zero
1000b82c:	2884d83a 	srl	r2,r5,r2
1000b830:	3007883a 	mov	r3,r6
1000b834:	003ffa06 	br	1000b820 <__alt_data_end+0xf800b820>

1000b838 <__ashldi3>:
1000b838:	2005883a 	mov	r2,r4
1000b83c:	2807883a 	mov	r3,r5
1000b840:	30000826 	beq	r6,zero,1000b864 <__ashldi3+0x2c>
1000b844:	01000804 	movi	r4,32
1000b848:	2189c83a 	sub	r4,r4,r6
1000b84c:	0100060e 	bge	zero,r4,1000b868 <__ashldi3+0x30>
1000b850:	1108d83a 	srl	r4,r2,r4
1000b854:	2986983a 	sll	r3,r5,r6
1000b858:	118c983a 	sll	r6,r2,r6
1000b85c:	20c6b03a 	or	r3,r4,r3
1000b860:	3005883a 	mov	r2,r6
1000b864:	f800283a 	ret
1000b868:	0107c83a 	sub	r3,zero,r4
1000b86c:	000d883a 	mov	r6,zero
1000b870:	10c6983a 	sll	r3,r2,r3
1000b874:	3005883a 	mov	r2,r6
1000b878:	003ffa06 	br	1000b864 <__alt_data_end+0xf800b864>

1000b87c <alt_get_errno>:
#undef errno

extern int errno;

static ALT_INLINE int* alt_get_errno(void)
{
1000b87c:	defffe04 	addi	sp,sp,-8
1000b880:	dfc00115 	stw	ra,4(sp)
1000b884:	df000015 	stw	fp,0(sp)
1000b888:	d839883a 	mov	fp,sp
  return ((alt_errno) ? alt_errno() : &errno);
1000b88c:	00840074 	movhi	r2,4097
1000b890:	10816404 	addi	r2,r2,1424
1000b894:	10800017 	ldw	r2,0(r2)
1000b898:	10000526 	beq	r2,zero,1000b8b0 <alt_get_errno+0x34>
1000b89c:	00840074 	movhi	r2,4097
1000b8a0:	10816404 	addi	r2,r2,1424
1000b8a4:	10800017 	ldw	r2,0(r2)
1000b8a8:	103ee83a 	callr	r2
1000b8ac:	00000206 	br	1000b8b8 <alt_get_errno+0x3c>
1000b8b0:	00840074 	movhi	r2,4097
1000b8b4:	10880604 	addi	r2,r2,8216
}
1000b8b8:	e037883a 	mov	sp,fp
1000b8bc:	dfc00117 	ldw	ra,4(sp)
1000b8c0:	df000017 	ldw	fp,0(sp)
1000b8c4:	dec00204 	addi	sp,sp,8
1000b8c8:	f800283a 	ret

1000b8cc <close>:
 *
 * ALT_CLOSE is mapped onto the close() system call in alt_syscall.h
 */
 
int ALT_CLOSE (int fildes)
{
1000b8cc:	defffb04 	addi	sp,sp,-20
1000b8d0:	dfc00415 	stw	ra,16(sp)
1000b8d4:	df000315 	stw	fp,12(sp)
1000b8d8:	df000304 	addi	fp,sp,12
1000b8dc:	e13fff15 	stw	r4,-4(fp)
   * A common error case is that when the file descriptor was created, the call
   * to open() failed resulting in a negative file descriptor. This is trapped
   * below so that we don't try and process an invalid file descriptor.
   */

  fd = (fildes < 0) ? NULL : &alt_fd_list[fildes];
1000b8e0:	e0bfff17 	ldw	r2,-4(fp)
1000b8e4:	10000716 	blt	r2,zero,1000b904 <close+0x38>
1000b8e8:	e13fff17 	ldw	r4,-4(fp)
1000b8ec:	01400304 	movi	r5,12
1000b8f0:	000b2180 	call	1000b218 <__mulsi3>
1000b8f4:	00c40074 	movhi	r3,4097
1000b8f8:	18fce204 	addi	r3,r3,-3192
1000b8fc:	10c5883a 	add	r2,r2,r3
1000b900:	00000106 	br	1000b908 <close+0x3c>
1000b904:	0005883a 	mov	r2,zero
1000b908:	e0bffd15 	stw	r2,-12(fp)

  if (fd)
1000b90c:	e0bffd17 	ldw	r2,-12(fp)
1000b910:	10001826 	beq	r2,zero,1000b974 <close+0xa8>
    /*
     * If the associated file system/device has a close function, call it so 
     * that any necessary cleanup code can run.
     */

    rval = (fd->dev->close) ? fd->dev->close(fd) : 0;
1000b914:	e0bffd17 	ldw	r2,-12(fp)
1000b918:	10800017 	ldw	r2,0(r2)
1000b91c:	10800417 	ldw	r2,16(r2)
1000b920:	10000626 	beq	r2,zero,1000b93c <close+0x70>
1000b924:	e0bffd17 	ldw	r2,-12(fp)
1000b928:	10800017 	ldw	r2,0(r2)
1000b92c:	10800417 	ldw	r2,16(r2)
1000b930:	e13ffd17 	ldw	r4,-12(fp)
1000b934:	103ee83a 	callr	r2
1000b938:	00000106 	br	1000b940 <close+0x74>
1000b93c:	0005883a 	mov	r2,zero
1000b940:	e0bffe15 	stw	r2,-8(fp)

    /* Free the file descriptor structure and return. */

    alt_release_fd (fildes);
1000b944:	e13fff17 	ldw	r4,-4(fp)
1000b948:	000bfc40 	call	1000bfc4 <alt_release_fd>
    if (rval < 0)
1000b94c:	e0bffe17 	ldw	r2,-8(fp)
1000b950:	1000060e 	bge	r2,zero,1000b96c <close+0xa0>
    {
      ALT_ERRNO = -rval;
1000b954:	000b87c0 	call	1000b87c <alt_get_errno>
1000b958:	e0fffe17 	ldw	r3,-8(fp)
1000b95c:	00c7c83a 	sub	r3,zero,r3
1000b960:	10c00015 	stw	r3,0(r2)
      return -1;
1000b964:	00bfffc4 	movi	r2,-1
1000b968:	00000606 	br	1000b984 <close+0xb8>
    }
    return 0;
1000b96c:	0005883a 	mov	r2,zero
1000b970:	00000406 	br	1000b984 <close+0xb8>
  }
  else
  {
    ALT_ERRNO = EBADFD;
1000b974:	000b87c0 	call	1000b87c <alt_get_errno>
1000b978:	00c01444 	movi	r3,81
1000b97c:	10c00015 	stw	r3,0(r2)
    return -1;
1000b980:	00bfffc4 	movi	r2,-1
  }
}
1000b984:	e037883a 	mov	sp,fp
1000b988:	dfc00117 	ldw	ra,4(sp)
1000b98c:	df000017 	ldw	fp,0(sp)
1000b990:	dec00204 	addi	sp,sp,8
1000b994:	f800283a 	ret

1000b998 <alt_dev_null_write>:
 * by the alt_dev_null device. It simple discards all data passed to it, and
 * indicates that the data has been successfully transmitted.
 */

static int alt_dev_null_write (alt_fd* fd, const char* ptr, int len)
{
1000b998:	defffc04 	addi	sp,sp,-16
1000b99c:	df000315 	stw	fp,12(sp)
1000b9a0:	df000304 	addi	fp,sp,12
1000b9a4:	e13ffd15 	stw	r4,-12(fp)
1000b9a8:	e17ffe15 	stw	r5,-8(fp)
1000b9ac:	e1bfff15 	stw	r6,-4(fp)
  return len;
1000b9b0:	e0bfff17 	ldw	r2,-4(fp)
}
1000b9b4:	e037883a 	mov	sp,fp
1000b9b8:	df000017 	ldw	fp,0(sp)
1000b9bc:	dec00104 	addi	sp,sp,4
1000b9c0:	f800283a 	ret

1000b9c4 <alt_get_errno>:
#undef errno

extern int errno;

static ALT_INLINE int* alt_get_errno(void)
{
1000b9c4:	defffe04 	addi	sp,sp,-8
1000b9c8:	dfc00115 	stw	ra,4(sp)
1000b9cc:	df000015 	stw	fp,0(sp)
1000b9d0:	d839883a 	mov	fp,sp
  return ((alt_errno) ? alt_errno() : &errno);
1000b9d4:	00840074 	movhi	r2,4097
1000b9d8:	10816404 	addi	r2,r2,1424
1000b9dc:	10800017 	ldw	r2,0(r2)
1000b9e0:	10000526 	beq	r2,zero,1000b9f8 <alt_get_errno+0x34>
1000b9e4:	00840074 	movhi	r2,4097
1000b9e8:	10816404 	addi	r2,r2,1424
1000b9ec:	10800017 	ldw	r2,0(r2)
1000b9f0:	103ee83a 	callr	r2
1000b9f4:	00000206 	br	1000ba00 <alt_get_errno+0x3c>
1000b9f8:	00840074 	movhi	r2,4097
1000b9fc:	10880604 	addi	r2,r2,8216
}
1000ba00:	e037883a 	mov	sp,fp
1000ba04:	dfc00117 	ldw	ra,4(sp)
1000ba08:	df000017 	ldw	fp,0(sp)
1000ba0c:	dec00204 	addi	sp,sp,8
1000ba10:	f800283a 	ret

1000ba14 <fstat>:
}

#else /* !ALT_USE_DIRECT_DRIVERS */

int ALT_FSTAT (int file, struct stat *st)
{
1000ba14:	defffb04 	addi	sp,sp,-20
1000ba18:	dfc00415 	stw	ra,16(sp)
1000ba1c:	df000315 	stw	fp,12(sp)
1000ba20:	df000304 	addi	fp,sp,12
1000ba24:	e13ffe15 	stw	r4,-8(fp)
1000ba28:	e17fff15 	stw	r5,-4(fp)
   * A common error case is that when the file descriptor was created, the call
   * to open() failed resulting in a negative file descriptor. This is trapped
   * below so that we don't try and process an invalid file descriptor.
   */

  fd = (file < 0) ? NULL : &alt_fd_list[file];
1000ba2c:	e0bffe17 	ldw	r2,-8(fp)
1000ba30:	10000716 	blt	r2,zero,1000ba50 <fstat+0x3c>
1000ba34:	e13ffe17 	ldw	r4,-8(fp)
1000ba38:	01400304 	movi	r5,12
1000ba3c:	000b2180 	call	1000b218 <__mulsi3>
1000ba40:	00c40074 	movhi	r3,4097
1000ba44:	18fce204 	addi	r3,r3,-3192
1000ba48:	10c5883a 	add	r2,r2,r3
1000ba4c:	00000106 	br	1000ba54 <fstat+0x40>
1000ba50:	0005883a 	mov	r2,zero
1000ba54:	e0bffd15 	stw	r2,-12(fp)
  
  if (fd)
1000ba58:	e0bffd17 	ldw	r2,-12(fp)
1000ba5c:	10001026 	beq	r2,zero,1000baa0 <fstat+0x8c>
  {
    /* Call the drivers fstat() function to fill out the "st" structure. */

    if (fd->dev->fstat)
1000ba60:	e0bffd17 	ldw	r2,-12(fp)
1000ba64:	10800017 	ldw	r2,0(r2)
1000ba68:	10800817 	ldw	r2,32(r2)
1000ba6c:	10000726 	beq	r2,zero,1000ba8c <fstat+0x78>
    {
      return fd->dev->fstat(fd, st);
1000ba70:	e0bffd17 	ldw	r2,-12(fp)
1000ba74:	10800017 	ldw	r2,0(r2)
1000ba78:	10800817 	ldw	r2,32(r2)
1000ba7c:	e13ffd17 	ldw	r4,-12(fp)
1000ba80:	e17fff17 	ldw	r5,-4(fp)
1000ba84:	103ee83a 	callr	r2
1000ba88:	00000906 	br	1000bab0 <fstat+0x9c>
     * device.
     */
 
    else
    {
      st->st_mode = _IFCHR;
1000ba8c:	e0bfff17 	ldw	r2,-4(fp)
1000ba90:	00c80004 	movi	r3,8192
1000ba94:	10c00115 	stw	r3,4(r2)
      return 0;
1000ba98:	0005883a 	mov	r2,zero
1000ba9c:	00000406 	br	1000bab0 <fstat+0x9c>
    }
  }
  else
  {
    ALT_ERRNO = EBADFD;
1000baa0:	000b9c40 	call	1000b9c4 <alt_get_errno>
1000baa4:	00c01444 	movi	r3,81
1000baa8:	10c00015 	stw	r3,0(r2)
    return -1;
1000baac:	00bfffc4 	movi	r2,-1
  }
}
1000bab0:	e037883a 	mov	sp,fp
1000bab4:	dfc00117 	ldw	ra,4(sp)
1000bab8:	df000017 	ldw	fp,0(sp)
1000babc:	dec00204 	addi	sp,sp,8
1000bac0:	f800283a 	ret

1000bac4 <alt_get_errno>:
#undef errno

extern int errno;

static ALT_INLINE int* alt_get_errno(void)
{
1000bac4:	defffe04 	addi	sp,sp,-8
1000bac8:	dfc00115 	stw	ra,4(sp)
1000bacc:	df000015 	stw	fp,0(sp)
1000bad0:	d839883a 	mov	fp,sp
  return ((alt_errno) ? alt_errno() : &errno);
1000bad4:	00840074 	movhi	r2,4097
1000bad8:	10816404 	addi	r2,r2,1424
1000badc:	10800017 	ldw	r2,0(r2)
1000bae0:	10000526 	beq	r2,zero,1000baf8 <alt_get_errno+0x34>
1000bae4:	00840074 	movhi	r2,4097
1000bae8:	10816404 	addi	r2,r2,1424
1000baec:	10800017 	ldw	r2,0(r2)
1000baf0:	103ee83a 	callr	r2
1000baf4:	00000206 	br	1000bb00 <alt_get_errno+0x3c>
1000baf8:	00840074 	movhi	r2,4097
1000bafc:	10880604 	addi	r2,r2,8216
}
1000bb00:	e037883a 	mov	sp,fp
1000bb04:	dfc00117 	ldw	ra,4(sp)
1000bb08:	df000017 	ldw	fp,0(sp)
1000bb0c:	dec00204 	addi	sp,sp,8
1000bb10:	f800283a 	ret

1000bb14 <isatty>:
 *
 * ALT_ISATTY is mapped onto the isatty() system call in alt_syscall.h
 */
 
int ALT_ISATTY (int file)
{
1000bb14:	deffed04 	addi	sp,sp,-76
1000bb18:	dfc01215 	stw	ra,72(sp)
1000bb1c:	df001115 	stw	fp,68(sp)
1000bb20:	df001104 	addi	fp,sp,68
1000bb24:	e13fff15 	stw	r4,-4(fp)
   * A common error case is that when the file descriptor was created, the call
   * to open() failed resulting in a negative file descriptor. This is trapped
   * below so that we don't try and process an invalid file descriptor.
   */

  fd = (file < 0) ? NULL : &alt_fd_list[file];
1000bb28:	e0bfff17 	ldw	r2,-4(fp)
1000bb2c:	10000716 	blt	r2,zero,1000bb4c <isatty+0x38>
1000bb30:	e13fff17 	ldw	r4,-4(fp)
1000bb34:	01400304 	movi	r5,12
1000bb38:	000b2180 	call	1000b218 <__mulsi3>
1000bb3c:	00c40074 	movhi	r3,4097
1000bb40:	18fce204 	addi	r3,r3,-3192
1000bb44:	10c5883a 	add	r2,r2,r3
1000bb48:	00000106 	br	1000bb50 <isatty+0x3c>
1000bb4c:	0005883a 	mov	r2,zero
1000bb50:	e0bfef15 	stw	r2,-68(fp)
  
  if (fd)
1000bb54:	e0bfef17 	ldw	r2,-68(fp)
1000bb58:	10000e26 	beq	r2,zero,1000bb94 <isatty+0x80>
    /*
     * If a device driver does not provide an fstat() function, then it is 
     * treated as a terminal device by default.
     */

    if (!fd->dev->fstat)
1000bb5c:	e0bfef17 	ldw	r2,-68(fp)
1000bb60:	10800017 	ldw	r2,0(r2)
1000bb64:	10800817 	ldw	r2,32(r2)
1000bb68:	1000021e 	bne	r2,zero,1000bb74 <isatty+0x60>
    {
      return 1;
1000bb6c:	00800044 	movi	r2,1
1000bb70:	00000c06 	br	1000bba4 <isatty+0x90>
     * this is called so that the device can identify itself.
     */ 

    else
    {
      fstat (file, &stat);
1000bb74:	e0bff004 	addi	r2,fp,-64
1000bb78:	e13fff17 	ldw	r4,-4(fp)
1000bb7c:	100b883a 	mov	r5,r2
1000bb80:	000ba140 	call	1000ba14 <fstat>
      return (stat.st_mode == _IFCHR) ? 1 : 0;
1000bb84:	e0bff117 	ldw	r2,-60(fp)
1000bb88:	10880020 	cmpeqi	r2,r2,8192
1000bb8c:	10803fcc 	andi	r2,r2,255
1000bb90:	00000406 	br	1000bba4 <isatty+0x90>
    }
  }
  else
  {
    ALT_ERRNO = EBADFD;
1000bb94:	000bac40 	call	1000bac4 <alt_get_errno>
1000bb98:	00c01444 	movi	r3,81
1000bb9c:	10c00015 	stw	r3,0(r2)
    return 0;
1000bba0:	0005883a 	mov	r2,zero
  }
}
1000bba4:	e037883a 	mov	sp,fp
1000bba8:	dfc00117 	ldw	ra,4(sp)
1000bbac:	df000017 	ldw	fp,0(sp)
1000bbb0:	dec00204 	addi	sp,sp,8
1000bbb4:	f800283a 	ret

1000bbb8 <alt_load_section>:
 */

static void ALT_INLINE alt_load_section (alt_u32* from, 
                                         alt_u32* to, 
                                         alt_u32* end)
{
1000bbb8:	defffc04 	addi	sp,sp,-16
1000bbbc:	df000315 	stw	fp,12(sp)
1000bbc0:	df000304 	addi	fp,sp,12
1000bbc4:	e13ffd15 	stw	r4,-12(fp)
1000bbc8:	e17ffe15 	stw	r5,-8(fp)
1000bbcc:	e1bfff15 	stw	r6,-4(fp)
  if (to != from)
1000bbd0:	e0fffe17 	ldw	r3,-8(fp)
1000bbd4:	e0bffd17 	ldw	r2,-12(fp)
1000bbd8:	18800e26 	beq	r3,r2,1000bc14 <alt_load_section+0x5c>
  {
    while( to != end )
1000bbdc:	00000a06 	br	1000bc08 <alt_load_section+0x50>
    {
      *to++ = *from++;
1000bbe0:	e0bffd17 	ldw	r2,-12(fp)
1000bbe4:	10c00017 	ldw	r3,0(r2)
1000bbe8:	e0bffe17 	ldw	r2,-8(fp)
1000bbec:	10c00015 	stw	r3,0(r2)
1000bbf0:	e0bffe17 	ldw	r2,-8(fp)
1000bbf4:	10800104 	addi	r2,r2,4
1000bbf8:	e0bffe15 	stw	r2,-8(fp)
1000bbfc:	e0bffd17 	ldw	r2,-12(fp)
1000bc00:	10800104 	addi	r2,r2,4
1000bc04:	e0bffd15 	stw	r2,-12(fp)
                                         alt_u32* to, 
                                         alt_u32* end)
{
  if (to != from)
  {
    while( to != end )
1000bc08:	e0fffe17 	ldw	r3,-8(fp)
1000bc0c:	e0bfff17 	ldw	r2,-4(fp)
1000bc10:	18bff31e 	bne	r3,r2,1000bbe0 <__alt_data_end+0xf800bbe0>
    {
      *to++ = *from++;
    }
  }
}
1000bc14:	e037883a 	mov	sp,fp
1000bc18:	df000017 	ldw	fp,0(sp)
1000bc1c:	dec00104 	addi	sp,sp,4
1000bc20:	f800283a 	ret

1000bc24 <alt_load>:
 * there is no bootloader, so this application is responsible for loading to
 * RAM any sections that are required.
 */  

void alt_load (void)
{
1000bc24:	defffe04 	addi	sp,sp,-8
1000bc28:	dfc00115 	stw	ra,4(sp)
1000bc2c:	df000015 	stw	fp,0(sp)
1000bc30:	d839883a 	mov	fp,sp
  /* 
   * Copy the .rwdata section. 
   */

  alt_load_section (&__flash_rwdata_start, 
1000bc34:	01040074 	movhi	r4,4097
1000bc38:	21016904 	addi	r4,r4,1444
1000bc3c:	01440074 	movhi	r5,4097
1000bc40:	297ad304 	addi	r5,r5,-5300
1000bc44:	01840074 	movhi	r6,4097
1000bc48:	31816904 	addi	r6,r6,1444
1000bc4c:	000bbb80 	call	1000bbb8 <alt_load_section>

  /*
   * Copy the exception handler.
   */

  alt_load_section (&__flash_exceptions_start, 
1000bc50:	01040034 	movhi	r4,4096
1000bc54:	21000804 	addi	r4,r4,32
1000bc58:	01440034 	movhi	r5,4096
1000bc5c:	29400804 	addi	r5,r5,32
1000bc60:	01840034 	movhi	r6,4096
1000bc64:	31806e04 	addi	r6,r6,440
1000bc68:	000bbb80 	call	1000bbb8 <alt_load_section>

  /*
   * Copy the .rodata section.
   */

  alt_load_section (&__flash_rodata_start, 
1000bc6c:	01040074 	movhi	r4,4097
1000bc70:	21382b04 	addi	r4,r4,-8020
1000bc74:	01440074 	movhi	r5,4097
1000bc78:	29782b04 	addi	r5,r5,-8020
1000bc7c:	01840074 	movhi	r6,4097
1000bc80:	31bad304 	addi	r6,r6,-5300
1000bc84:	000bbb80 	call	1000bbb8 <alt_load_section>
  
  /*
   * Now ensure that the caches are in synch.
   */
  
  alt_dcache_flush_all();
1000bc88:	000d00c0 	call	1000d00c <alt_dcache_flush_all>
  alt_icache_flush_all();
1000bc8c:	000d1d00 	call	1000d1d0 <alt_icache_flush_all>
}
1000bc90:	e037883a 	mov	sp,fp
1000bc94:	dfc00117 	ldw	ra,4(sp)
1000bc98:	df000017 	ldw	fp,0(sp)
1000bc9c:	dec00204 	addi	sp,sp,8
1000bca0:	f800283a 	ret

1000bca4 <alt_get_errno>:
#undef errno

extern int errno;

static ALT_INLINE int* alt_get_errno(void)
{
1000bca4:	defffe04 	addi	sp,sp,-8
1000bca8:	dfc00115 	stw	ra,4(sp)
1000bcac:	df000015 	stw	fp,0(sp)
1000bcb0:	d839883a 	mov	fp,sp
  return ((alt_errno) ? alt_errno() : &errno);
1000bcb4:	00840074 	movhi	r2,4097
1000bcb8:	10816404 	addi	r2,r2,1424
1000bcbc:	10800017 	ldw	r2,0(r2)
1000bcc0:	10000526 	beq	r2,zero,1000bcd8 <alt_get_errno+0x34>
1000bcc4:	00840074 	movhi	r2,4097
1000bcc8:	10816404 	addi	r2,r2,1424
1000bccc:	10800017 	ldw	r2,0(r2)
1000bcd0:	103ee83a 	callr	r2
1000bcd4:	00000206 	br	1000bce0 <alt_get_errno+0x3c>
1000bcd8:	00840074 	movhi	r2,4097
1000bcdc:	10880604 	addi	r2,r2,8216
}
1000bce0:	e037883a 	mov	sp,fp
1000bce4:	dfc00117 	ldw	ra,4(sp)
1000bce8:	df000017 	ldw	fp,0(sp)
1000bcec:	dec00204 	addi	sp,sp,8
1000bcf0:	f800283a 	ret

1000bcf4 <lseek>:
 * ALT_LSEEK is mapped onto the lseek() system call in alt_syscall.h
 *
 */

off_t ALT_LSEEK (int file, off_t ptr, int dir)
{
1000bcf4:	defff904 	addi	sp,sp,-28
1000bcf8:	dfc00615 	stw	ra,24(sp)
1000bcfc:	df000515 	stw	fp,20(sp)
1000bd00:	df000504 	addi	fp,sp,20
1000bd04:	e13ffd15 	stw	r4,-12(fp)
1000bd08:	e17ffe15 	stw	r5,-8(fp)
1000bd0c:	e1bfff15 	stw	r6,-4(fp)
  alt_fd* fd;
  off_t   rc = 0; 
1000bd10:	e03ffb15 	stw	zero,-20(fp)
   * A common error case is that when the file descriptor was created, the call
   * to open() failed resulting in a negative file descriptor. This is trapped
   * below so that we don't try and process an invalid file descriptor.
   */

  fd = (file < 0) ? NULL : &alt_fd_list[file];
1000bd14:	e0bffd17 	ldw	r2,-12(fp)
1000bd18:	10000716 	blt	r2,zero,1000bd38 <lseek+0x44>
1000bd1c:	e13ffd17 	ldw	r4,-12(fp)
1000bd20:	01400304 	movi	r5,12
1000bd24:	000b2180 	call	1000b218 <__mulsi3>
1000bd28:	00c40074 	movhi	r3,4097
1000bd2c:	18fce204 	addi	r3,r3,-3192
1000bd30:	10c5883a 	add	r2,r2,r3
1000bd34:	00000106 	br	1000bd3c <lseek+0x48>
1000bd38:	0005883a 	mov	r2,zero
1000bd3c:	e0bffc15 	stw	r2,-16(fp)
  
  if (fd) 
1000bd40:	e0bffc17 	ldw	r2,-16(fp)
1000bd44:	10001026 	beq	r2,zero,1000bd88 <lseek+0x94>
    /*
     * If the device driver provides an implementation of the lseek() function,
     * then call that to process the request.
     */
 
    if (fd->dev->lseek)
1000bd48:	e0bffc17 	ldw	r2,-16(fp)
1000bd4c:	10800017 	ldw	r2,0(r2)
1000bd50:	10800717 	ldw	r2,28(r2)
1000bd54:	10000926 	beq	r2,zero,1000bd7c <lseek+0x88>
    {
      rc = fd->dev->lseek(fd, ptr, dir);
1000bd58:	e0bffc17 	ldw	r2,-16(fp)
1000bd5c:	10800017 	ldw	r2,0(r2)
1000bd60:	10800717 	ldw	r2,28(r2)
1000bd64:	e13ffc17 	ldw	r4,-16(fp)
1000bd68:	e17ffe17 	ldw	r5,-8(fp)
1000bd6c:	e1bfff17 	ldw	r6,-4(fp)
1000bd70:	103ee83a 	callr	r2
1000bd74:	e0bffb15 	stw	r2,-20(fp)
1000bd78:	00000506 	br	1000bd90 <lseek+0x9c>
     * Otherwise return an error.
     */

    else
    {
      rc = -ENOTSUP;
1000bd7c:	00bfde84 	movi	r2,-134
1000bd80:	e0bffb15 	stw	r2,-20(fp)
1000bd84:	00000206 	br	1000bd90 <lseek+0x9c>
    }
  }
  else  
  {
    rc = -EBADFD;
1000bd88:	00bfebc4 	movi	r2,-81
1000bd8c:	e0bffb15 	stw	r2,-20(fp)
  }

  if (rc < 0)
1000bd90:	e0bffb17 	ldw	r2,-20(fp)
1000bd94:	1000060e 	bge	r2,zero,1000bdb0 <lseek+0xbc>
  {
    ALT_ERRNO = -rc;
1000bd98:	000bca40 	call	1000bca4 <alt_get_errno>
1000bd9c:	e0fffb17 	ldw	r3,-20(fp)
1000bda0:	00c7c83a 	sub	r3,zero,r3
1000bda4:	10c00015 	stw	r3,0(r2)
    rc = -1;
1000bda8:	00bfffc4 	movi	r2,-1
1000bdac:	e0bffb15 	stw	r2,-20(fp)
  }

  return rc;
1000bdb0:	e0bffb17 	ldw	r2,-20(fp)
}
1000bdb4:	e037883a 	mov	sp,fp
1000bdb8:	dfc00117 	ldw	ra,4(sp)
1000bdbc:	df000017 	ldw	fp,0(sp)
1000bdc0:	dec00204 	addi	sp,sp,8
1000bdc4:	f800283a 	ret

1000bdc8 <alt_main>:
 * devices/filesystems/components in the system; and call the entry point for
 * the users application, i.e. main().
 */

void alt_main (void)
{
1000bdc8:	defffd04 	addi	sp,sp,-12
1000bdcc:	dfc00215 	stw	ra,8(sp)
1000bdd0:	df000115 	stw	fp,4(sp)
1000bdd4:	df000104 	addi	fp,sp,4
#endif

  /* ALT LOG - please see HAL/sys/alt_log_printf.h for details */
  ALT_LOG_PRINT_BOOT("[alt_main.c] Entering alt_main, calling alt_irq_init.\r\n");
  /* Initialize the interrupt controller. */
  alt_irq_init (NULL);
1000bdd8:	0009883a 	mov	r4,zero
1000bddc:	000c29c0 	call	1000c29c <alt_irq_init>

  /* Initialize the operating system */
  ALT_LOG_PRINT_BOOT("[alt_main.c] Done alt_irq_init, calling alt_os_init.\r\n");
  ALT_OS_INIT();
1000bde0:	0001883a 	nop
  ALT_LOG_PRINT_BOOT("[alt_main.c] Done OS Init, calling alt_sem_create.\r\n");
  ALT_SEM_CREATE (&alt_fd_list_lock, 1);

  /* Initialize the device drivers/software components. */
  ALT_LOG_PRINT_BOOT("[alt_main.c] Calling alt_sys_init.\r\n");
  alt_sys_init();
1000bde4:	000c2d00 	call	1000c2d0 <alt_sys_init>
   * devices be present (not equal to /dev/null) and if direct drivers
   * aren't being used.
   */

    ALT_LOG_PRINT_BOOT("[alt_main.c] Redirecting IO.\r\n");
    alt_io_redirect(ALT_STDOUT, ALT_STDIN, ALT_STDERR);
1000bde8:	01040074 	movhi	r4,4097
1000bdec:	213ac904 	addi	r4,r4,-5340
1000bdf0:	01440074 	movhi	r5,4097
1000bdf4:	297ac904 	addi	r5,r5,-5340
1000bdf8:	01840074 	movhi	r6,4097
1000bdfc:	31bac904 	addi	r6,r6,-5340
1000be00:	000d5940 	call	1000d594 <alt_io_redirect>
  /* 
   * Call the C++ constructors 
   */

  ALT_LOG_PRINT_BOOT("[alt_main.c] Calling C++ constructors.\r\n");
  _do_ctors ();
1000be04:	000d1180 	call	1000d118 <_do_ctors>
   * redefined as _exit()). This is in the interest of reducing code footprint,
   * in that the atexit() overhead is removed when it's not needed.
   */

  ALT_LOG_PRINT_BOOT("[alt_main.c] Calling atexit.\r\n");
  atexit (_do_dtors);
1000be08:	01040074 	movhi	r4,4097
1000be0c:	21345d04 	addi	r4,r4,-11916
1000be10:	000dcd80 	call	1000dcd8 <atexit>
  ALT_LOG_PRINT_BOOT("[alt_main.c] Calling main.\r\n");

#ifdef ALT_NO_EXIT
  main (alt_argc, alt_argv, alt_envp);
#else
  result = main (alt_argc, alt_argv, alt_envp);
1000be14:	d126ad17 	ldw	r4,-25932(gp)
1000be18:	d0e6ae17 	ldw	r3,-25928(gp)
1000be1c:	d0a6af17 	ldw	r2,-25924(gp)
1000be20:	180b883a 	mov	r5,r3
1000be24:	100d883a 	mov	r6,r2
1000be28:	00003180 	call	10000318 <main>
1000be2c:	e0bfff15 	stw	r2,-4(fp)
  close(STDOUT_FILENO);
1000be30:	01000044 	movi	r4,1
1000be34:	000b8cc0 	call	1000b8cc <close>
  exit (result);
1000be38:	e13fff17 	ldw	r4,-4(fp)
1000be3c:	000dcec0 	call	1000dcec <exit>

1000be40 <__malloc_lock>:
 * configuration is single threaded, so there is nothing to do here. Note that 
 * this requires that malloc is never called by an interrupt service routine.
 */

void __malloc_lock ( struct _reent *_r )
{
1000be40:	defffe04 	addi	sp,sp,-8
1000be44:	df000115 	stw	fp,4(sp)
1000be48:	df000104 	addi	fp,sp,4
1000be4c:	e13fff15 	stw	r4,-4(fp)
}
1000be50:	e037883a 	mov	sp,fp
1000be54:	df000017 	ldw	fp,0(sp)
1000be58:	dec00104 	addi	sp,sp,4
1000be5c:	f800283a 	ret

1000be60 <__malloc_unlock>:
/*
 *
 */

void __malloc_unlock ( struct _reent *_r )
{
1000be60:	defffe04 	addi	sp,sp,-8
1000be64:	df000115 	stw	fp,4(sp)
1000be68:	df000104 	addi	fp,sp,4
1000be6c:	e13fff15 	stw	r4,-4(fp)
}
1000be70:	e037883a 	mov	sp,fp
1000be74:	df000017 	ldw	fp,0(sp)
1000be78:	dec00104 	addi	sp,sp,4
1000be7c:	f800283a 	ret

1000be80 <alt_get_errno>:
#undef errno

extern int errno;

static ALT_INLINE int* alt_get_errno(void)
{
1000be80:	defffe04 	addi	sp,sp,-8
1000be84:	dfc00115 	stw	ra,4(sp)
1000be88:	df000015 	stw	fp,0(sp)
1000be8c:	d839883a 	mov	fp,sp
  return ((alt_errno) ? alt_errno() : &errno);
1000be90:	00840074 	movhi	r2,4097
1000be94:	10816404 	addi	r2,r2,1424
1000be98:	10800017 	ldw	r2,0(r2)
1000be9c:	10000526 	beq	r2,zero,1000beb4 <alt_get_errno+0x34>
1000bea0:	00840074 	movhi	r2,4097
1000bea4:	10816404 	addi	r2,r2,1424
1000bea8:	10800017 	ldw	r2,0(r2)
1000beac:	103ee83a 	callr	r2
1000beb0:	00000206 	br	1000bebc <alt_get_errno+0x3c>
1000beb4:	00840074 	movhi	r2,4097
1000beb8:	10880604 	addi	r2,r2,8216
}
1000bebc:	e037883a 	mov	sp,fp
1000bec0:	dfc00117 	ldw	ra,4(sp)
1000bec4:	df000017 	ldw	fp,0(sp)
1000bec8:	dec00204 	addi	sp,sp,8
1000becc:	f800283a 	ret

1000bed0 <read>:
}

#else /* !ALT_USE_DIRECT_DRIVERS */

int ALT_READ (int file, void *ptr, size_t len)
{
1000bed0:	defff904 	addi	sp,sp,-28
1000bed4:	dfc00615 	stw	ra,24(sp)
1000bed8:	df000515 	stw	fp,20(sp)
1000bedc:	df000504 	addi	fp,sp,20
1000bee0:	e13ffd15 	stw	r4,-12(fp)
1000bee4:	e17ffe15 	stw	r5,-8(fp)
1000bee8:	e1bfff15 	stw	r6,-4(fp)
   * A common error case is that when the file descriptor was created, the call
   * to open() failed resulting in a negative file descriptor. This is trapped
   * below so that we don't try and process an invalid file descriptor.
   */

  fd = (file < 0) ? NULL : &alt_fd_list[file];
1000beec:	e0bffd17 	ldw	r2,-12(fp)
1000bef0:	10000716 	blt	r2,zero,1000bf10 <read+0x40>
1000bef4:	e13ffd17 	ldw	r4,-12(fp)
1000bef8:	01400304 	movi	r5,12
1000befc:	000b2180 	call	1000b218 <__mulsi3>
1000bf00:	00c40074 	movhi	r3,4097
1000bf04:	18fce204 	addi	r3,r3,-3192
1000bf08:	10c5883a 	add	r2,r2,r3
1000bf0c:	00000106 	br	1000bf14 <read+0x44>
1000bf10:	0005883a 	mov	r2,zero
1000bf14:	e0bffb15 	stw	r2,-20(fp)
  
  if (fd)
1000bf18:	e0bffb17 	ldw	r2,-20(fp)
1000bf1c:	10002026 	beq	r2,zero,1000bfa0 <read+0xd0>
     * If the file has not been opened with read access, or if the driver does
     * not provide an implementation of read(), generate an error. Otherwise
     * call the drivers read() function to process the request.
     */

    if (((fd->fd_flags & O_ACCMODE) != O_WRONLY) && 
1000bf20:	e0bffb17 	ldw	r2,-20(fp)
1000bf24:	10800217 	ldw	r2,8(r2)
1000bf28:	108000cc 	andi	r2,r2,3
1000bf2c:	10800060 	cmpeqi	r2,r2,1
1000bf30:	1000171e 	bne	r2,zero,1000bf90 <read+0xc0>
        (fd->dev->read))
1000bf34:	e0bffb17 	ldw	r2,-20(fp)
1000bf38:	10800017 	ldw	r2,0(r2)
1000bf3c:	10800517 	ldw	r2,20(r2)
     * If the file has not been opened with read access, or if the driver does
     * not provide an implementation of read(), generate an error. Otherwise
     * call the drivers read() function to process the request.
     */

    if (((fd->fd_flags & O_ACCMODE) != O_WRONLY) && 
1000bf40:	10001326 	beq	r2,zero,1000bf90 <read+0xc0>
        (fd->dev->read))
      {
        if ((rval = fd->dev->read(fd, ptr, len)) < 0)
1000bf44:	e0bffb17 	ldw	r2,-20(fp)
1000bf48:	10800017 	ldw	r2,0(r2)
1000bf4c:	10c00517 	ldw	r3,20(r2)
1000bf50:	e0bfff17 	ldw	r2,-4(fp)
1000bf54:	e13ffb17 	ldw	r4,-20(fp)
1000bf58:	e17ffe17 	ldw	r5,-8(fp)
1000bf5c:	100d883a 	mov	r6,r2
1000bf60:	183ee83a 	callr	r3
1000bf64:	e0bffc15 	stw	r2,-16(fp)
1000bf68:	e0bffc17 	ldw	r2,-16(fp)
1000bf6c:	1000060e 	bge	r2,zero,1000bf88 <read+0xb8>
        {
          ALT_ERRNO = -rval;
1000bf70:	000be800 	call	1000be80 <alt_get_errno>
1000bf74:	e0fffc17 	ldw	r3,-16(fp)
1000bf78:	00c7c83a 	sub	r3,zero,r3
1000bf7c:	10c00015 	stw	r3,0(r2)
          return -1;
1000bf80:	00bfffc4 	movi	r2,-1
1000bf84:	00000a06 	br	1000bfb0 <read+0xe0>
        }
        return rval;
1000bf88:	e0bffc17 	ldw	r2,-16(fp)
1000bf8c:	00000806 	br	1000bfb0 <read+0xe0>
      }
      else
      {
        ALT_ERRNO = EACCES;
1000bf90:	000be800 	call	1000be80 <alt_get_errno>
1000bf94:	00c00344 	movi	r3,13
1000bf98:	10c00015 	stw	r3,0(r2)
1000bf9c:	00000306 	br	1000bfac <read+0xdc>
      }
    }
  else
  {
    ALT_ERRNO = EBADFD;
1000bfa0:	000be800 	call	1000be80 <alt_get_errno>
1000bfa4:	00c01444 	movi	r3,81
1000bfa8:	10c00015 	stw	r3,0(r2)
  }
  return -1;
1000bfac:	00bfffc4 	movi	r2,-1
}
1000bfb0:	e037883a 	mov	sp,fp
1000bfb4:	dfc00117 	ldw	ra,4(sp)
1000bfb8:	df000017 	ldw	fp,0(sp)
1000bfbc:	dec00204 	addi	sp,sp,8
1000bfc0:	f800283a 	ret

1000bfc4 <alt_release_fd>:
 * File descriptors correcponding to standard in, standard out and standard 
 * error cannont be released backed to the pool. They are always reserved.
 */

void alt_release_fd (int fd)
{
1000bfc4:	defffc04 	addi	sp,sp,-16
1000bfc8:	dfc00315 	stw	ra,12(sp)
1000bfcc:	df000215 	stw	fp,8(sp)
1000bfd0:	dc000115 	stw	r16,4(sp)
1000bfd4:	df000104 	addi	fp,sp,4
1000bfd8:	e13fff15 	stw	r4,-4(fp)
  if (fd > 2)
1000bfdc:	e0bfff17 	ldw	r2,-4(fp)
1000bfe0:	108000d0 	cmplti	r2,r2,3
1000bfe4:	1000111e 	bne	r2,zero,1000c02c <alt_release_fd+0x68>
  {
    alt_fd_list[fd].fd_flags = 0;
1000bfe8:	04040074 	movhi	r16,4097
1000bfec:	843ce204 	addi	r16,r16,-3192
1000bff0:	e0bfff17 	ldw	r2,-4(fp)
1000bff4:	1009883a 	mov	r4,r2
1000bff8:	01400304 	movi	r5,12
1000bffc:	000b2180 	call	1000b218 <__mulsi3>
1000c000:	8085883a 	add	r2,r16,r2
1000c004:	10800204 	addi	r2,r2,8
1000c008:	10000015 	stw	zero,0(r2)
    alt_fd_list[fd].dev      = 0;
1000c00c:	04040074 	movhi	r16,4097
1000c010:	843ce204 	addi	r16,r16,-3192
1000c014:	e0bfff17 	ldw	r2,-4(fp)
1000c018:	1009883a 	mov	r4,r2
1000c01c:	01400304 	movi	r5,12
1000c020:	000b2180 	call	1000b218 <__mulsi3>
1000c024:	8085883a 	add	r2,r16,r2
1000c028:	10000015 	stw	zero,0(r2)
  }
}
1000c02c:	e037883a 	mov	sp,fp
1000c030:	dfc00217 	ldw	ra,8(sp)
1000c034:	df000117 	ldw	fp,4(sp)
1000c038:	dc000017 	ldw	r16,0(sp)
1000c03c:	dec00304 	addi	sp,sp,12
1000c040:	f800283a 	ret

1000c044 <sbrk>:
#endif
 
caddr_t ALT_SBRK (int incr) __attribute__ ((no_instrument_function ));

caddr_t ALT_SBRK (int incr)
{ 
1000c044:	defff904 	addi	sp,sp,-28
1000c048:	df000615 	stw	fp,24(sp)
1000c04c:	df000604 	addi	fp,sp,24
1000c050:	e13fff15 	stw	r4,-4(fp)
static ALT_INLINE alt_irq_context ALT_ALWAYS_INLINE 
       alt_irq_disable_all (void)
{
  alt_irq_context context;

  NIOS2_READ_STATUS (context);
1000c054:	0005303a 	rdctl	r2,status
1000c058:	e0bffc15 	stw	r2,-16(fp)

  NIOS2_WRITE_STATUS (context & ~NIOS2_STATUS_PIE_MSK);
1000c05c:	e0fffc17 	ldw	r3,-16(fp)
1000c060:	00bfff84 	movi	r2,-2
1000c064:	1884703a 	and	r2,r3,r2
1000c068:	1001703a 	wrctl	status,r2
  
  return context;
1000c06c:	e0bffc17 	ldw	r2,-16(fp)
  alt_irq_context context;
  char *prev_heap_end; 

  context = alt_irq_disable_all();
1000c070:	e0bffa15 	stw	r2,-24(fp)

  /* Always return data aligned on a word boundary */
  heap_end = (char *)(((unsigned int)heap_end + 3) & ~3);
1000c074:	d0a00b17 	ldw	r2,-32724(gp)
1000c078:	10c000c4 	addi	r3,r2,3
1000c07c:	00bfff04 	movi	r2,-4
1000c080:	1884703a 	and	r2,r3,r2
1000c084:	d0a00b15 	stw	r2,-32724(gp)
  if (((heap_end + incr) - __alt_heap_start) > ALT_MAX_HEAP_BYTES) {
    alt_irq_enable_all(context);
    return (caddr_t)-1;
  }
#else
  if ((heap_end + incr) > __alt_heap_limit) {
1000c088:	d0e00b17 	ldw	r3,-32724(gp)
1000c08c:	e0bfff17 	ldw	r2,-4(fp)
1000c090:	1885883a 	add	r2,r3,r2
1000c094:	00c60034 	movhi	r3,6144
1000c098:	18c00004 	addi	r3,r3,0
1000c09c:	1880062e 	bgeu	r3,r2,1000c0b8 <sbrk+0x74>
1000c0a0:	e0bffa17 	ldw	r2,-24(fp)
1000c0a4:	e0bffd15 	stw	r2,-12(fp)
  status &= ~NIOS2_STATUS_PIE_MSK;
  status |= (context & NIOS2_STATUS_PIE_MSK);
  
  NIOS2_WRITE_STATUS (status);
#else
  NIOS2_WRITE_STATUS (context);
1000c0a8:	e0bffd17 	ldw	r2,-12(fp)
1000c0ac:	1001703a 	wrctl	status,r2
    alt_irq_enable_all(context);
    return (caddr_t)-1;
1000c0b0:	00bfffc4 	movi	r2,-1
1000c0b4:	00000b06 	br	1000c0e4 <sbrk+0xa0>
  }
#endif

  prev_heap_end = heap_end; 
1000c0b8:	d0a00b17 	ldw	r2,-32724(gp)
1000c0bc:	e0bffb15 	stw	r2,-20(fp)
  heap_end += incr; 
1000c0c0:	d0e00b17 	ldw	r3,-32724(gp)
1000c0c4:	e0bfff17 	ldw	r2,-4(fp)
1000c0c8:	1885883a 	add	r2,r3,r2
1000c0cc:	d0a00b15 	stw	r2,-32724(gp)
1000c0d0:	e0bffa17 	ldw	r2,-24(fp)
1000c0d4:	e0bffe15 	stw	r2,-8(fp)
1000c0d8:	e0bffe17 	ldw	r2,-8(fp)
1000c0dc:	1001703a 	wrctl	status,r2

#endif

  alt_irq_enable_all(context);

  return (caddr_t) prev_heap_end; 
1000c0e0:	e0bffb17 	ldw	r2,-20(fp)
} 
1000c0e4:	e037883a 	mov	sp,fp
1000c0e8:	df000017 	ldw	fp,0(sp)
1000c0ec:	dec00104 	addi	sp,sp,4
1000c0f0:	f800283a 	ret

1000c0f4 <usleep>:
#if defined (__GNUC__) && __GNUC__ >= 4
int ALT_USLEEP (useconds_t us)
#else
unsigned int ALT_USLEEP (unsigned int us)
#endif
{
1000c0f4:	defffd04 	addi	sp,sp,-12
1000c0f8:	dfc00215 	stw	ra,8(sp)
1000c0fc:	df000115 	stw	fp,4(sp)
1000c100:	df000104 	addi	fp,sp,4
1000c104:	e13fff15 	stw	r4,-4(fp)
  return alt_busy_sleep(us);
1000c108:	e13fff17 	ldw	r4,-4(fp)
1000c10c:	000ceb80 	call	1000ceb8 <alt_busy_sleep>
}
1000c110:	e037883a 	mov	sp,fp
1000c114:	dfc00117 	ldw	ra,4(sp)
1000c118:	df000017 	ldw	fp,0(sp)
1000c11c:	dec00204 	addi	sp,sp,8
1000c120:	f800283a 	ret

1000c124 <alt_get_errno>:
#undef errno

extern int errno;

static ALT_INLINE int* alt_get_errno(void)
{
1000c124:	defffe04 	addi	sp,sp,-8
1000c128:	dfc00115 	stw	ra,4(sp)
1000c12c:	df000015 	stw	fp,0(sp)
1000c130:	d839883a 	mov	fp,sp
  return ((alt_errno) ? alt_errno() : &errno);
1000c134:	00840074 	movhi	r2,4097
1000c138:	10816404 	addi	r2,r2,1424
1000c13c:	10800017 	ldw	r2,0(r2)
1000c140:	10000526 	beq	r2,zero,1000c158 <alt_get_errno+0x34>
1000c144:	00840074 	movhi	r2,4097
1000c148:	10816404 	addi	r2,r2,1424
1000c14c:	10800017 	ldw	r2,0(r2)
1000c150:	103ee83a 	callr	r2
1000c154:	00000206 	br	1000c160 <alt_get_errno+0x3c>
1000c158:	00840074 	movhi	r2,4097
1000c15c:	10880604 	addi	r2,r2,8216
}
1000c160:	e037883a 	mov	sp,fp
1000c164:	dfc00117 	ldw	ra,4(sp)
1000c168:	df000017 	ldw	fp,0(sp)
1000c16c:	dec00204 	addi	sp,sp,8
1000c170:	f800283a 	ret

1000c174 <write>:
}

#else /* !ALT_USE_DIRECT_DRIVERS */

int ALT_WRITE (int file, const void *ptr, size_t len)
{
1000c174:	defff904 	addi	sp,sp,-28
1000c178:	dfc00615 	stw	ra,24(sp)
1000c17c:	df000515 	stw	fp,20(sp)
1000c180:	df000504 	addi	fp,sp,20
1000c184:	e13ffd15 	stw	r4,-12(fp)
1000c188:	e17ffe15 	stw	r5,-8(fp)
1000c18c:	e1bfff15 	stw	r6,-4(fp)
   * A common error case is that when the file descriptor was created, the call
   * to open() failed resulting in a negative file descriptor. This is trapped
   * below so that we don't try and process an invalid file descriptor.
   */

  fd = (file < 0) ? NULL : &alt_fd_list[file];
1000c190:	e0bffd17 	ldw	r2,-12(fp)
1000c194:	10000716 	blt	r2,zero,1000c1b4 <write+0x40>
1000c198:	e13ffd17 	ldw	r4,-12(fp)
1000c19c:	01400304 	movi	r5,12
1000c1a0:	000b2180 	call	1000b218 <__mulsi3>
1000c1a4:	00c40074 	movhi	r3,4097
1000c1a8:	18fce204 	addi	r3,r3,-3192
1000c1ac:	10c5883a 	add	r2,r2,r3
1000c1b0:	00000106 	br	1000c1b8 <write+0x44>
1000c1b4:	0005883a 	mov	r2,zero
1000c1b8:	e0bffb15 	stw	r2,-20(fp)
  
  if (fd)
1000c1bc:	e0bffb17 	ldw	r2,-20(fp)
1000c1c0:	10001f26 	beq	r2,zero,1000c240 <write+0xcc>
     * If the file has not been opened with write access, or if the driver does
     * not provide an implementation of write(), generate an error. Otherwise
     * call the drivers write() function to process the request.
     */

    if (((fd->fd_flags & O_ACCMODE) != O_RDONLY) && fd->dev->write)
1000c1c4:	e0bffb17 	ldw	r2,-20(fp)
1000c1c8:	10800217 	ldw	r2,8(r2)
1000c1cc:	108000cc 	andi	r2,r2,3
1000c1d0:	10001726 	beq	r2,zero,1000c230 <write+0xbc>
1000c1d4:	e0bffb17 	ldw	r2,-20(fp)
1000c1d8:	10800017 	ldw	r2,0(r2)
1000c1dc:	10800617 	ldw	r2,24(r2)
1000c1e0:	10001326 	beq	r2,zero,1000c230 <write+0xbc>
    {
      
      /* ALT_LOG - see altera_hal/HAL/inc/sys/alt_log_printf.h */
      ALT_LOG_WRITE_FUNCTION(ptr,len);

      if ((rval = fd->dev->write(fd, ptr, len)) < 0)
1000c1e4:	e0bffb17 	ldw	r2,-20(fp)
1000c1e8:	10800017 	ldw	r2,0(r2)
1000c1ec:	10c00617 	ldw	r3,24(r2)
1000c1f0:	e0bfff17 	ldw	r2,-4(fp)
1000c1f4:	e13ffb17 	ldw	r4,-20(fp)
1000c1f8:	e17ffe17 	ldw	r5,-8(fp)
1000c1fc:	100d883a 	mov	r6,r2
1000c200:	183ee83a 	callr	r3
1000c204:	e0bffc15 	stw	r2,-16(fp)
1000c208:	e0bffc17 	ldw	r2,-16(fp)
1000c20c:	1000060e 	bge	r2,zero,1000c228 <write+0xb4>
      {
        ALT_ERRNO = -rval;
1000c210:	000c1240 	call	1000c124 <alt_get_errno>
1000c214:	e0fffc17 	ldw	r3,-16(fp)
1000c218:	00c7c83a 	sub	r3,zero,r3
1000c21c:	10c00015 	stw	r3,0(r2)
        return -1;
1000c220:	00bfffc4 	movi	r2,-1
1000c224:	00000a06 	br	1000c250 <write+0xdc>
      }
      return rval;
1000c228:	e0bffc17 	ldw	r2,-16(fp)
1000c22c:	00000806 	br	1000c250 <write+0xdc>
    }
    else
    {
      ALT_ERRNO = EACCES;
1000c230:	000c1240 	call	1000c124 <alt_get_errno>
1000c234:	00c00344 	movi	r3,13
1000c238:	10c00015 	stw	r3,0(r2)
1000c23c:	00000306 	br	1000c24c <write+0xd8>
    }
  }
  else  
  {
    ALT_ERRNO = EBADFD;
1000c240:	000c1240 	call	1000c124 <alt_get_errno>
1000c244:	00c01444 	movi	r3,81
1000c248:	10c00015 	stw	r3,0(r2)
  }
  return -1;
1000c24c:	00bfffc4 	movi	r2,-1
}
1000c250:	e037883a 	mov	sp,fp
1000c254:	dfc00117 	ldw	ra,4(sp)
1000c258:	df000017 	ldw	fp,0(sp)
1000c25c:	dec00204 	addi	sp,sp,8
1000c260:	f800283a 	ret

1000c264 <alt_dev_reg>:
 */

extern int alt_fs_reg  (alt_dev* dev); 

static ALT_INLINE int alt_dev_reg (alt_dev* dev)
{
1000c264:	defffd04 	addi	sp,sp,-12
1000c268:	dfc00215 	stw	ra,8(sp)
1000c26c:	df000115 	stw	fp,4(sp)
1000c270:	df000104 	addi	fp,sp,4
1000c274:	e13fff15 	stw	r4,-4(fp)
  extern alt_llist alt_dev_list;

  return alt_dev_llist_insert ((alt_dev_llist*) dev, &alt_dev_list);
1000c278:	e13fff17 	ldw	r4,-4(fp)
1000c27c:	01440074 	movhi	r5,4097
1000c280:	29416104 	addi	r5,r5,1412
1000c284:	000d0780 	call	1000d078 <alt_dev_llist_insert>
}
1000c288:	e037883a 	mov	sp,fp
1000c28c:	dfc00117 	ldw	ra,4(sp)
1000c290:	df000017 	ldw	fp,0(sp)
1000c294:	dec00204 	addi	sp,sp,8
1000c298:	f800283a 	ret

1000c29c <alt_irq_init>:
 * The "base" parameter is ignored and only
 * present for backwards-compatibility.
 */

void alt_irq_init ( const void* base )
{
1000c29c:	defffd04 	addi	sp,sp,-12
1000c2a0:	dfc00215 	stw	ra,8(sp)
1000c2a4:	df000115 	stw	fp,4(sp)
1000c2a8:	df000104 	addi	fp,sp,4
1000c2ac:	e13fff15 	stw	r4,-4(fp)
    ALTERA_NIOS2_QSYS_IRQ_INIT ( NIOS2_QSYS_0, nios2_qsys_0);
1000c2b0:	000da400 	call	1000da40 <altera_nios2_qsys_irq_init>
 * alt_irq_cpu_enable_interrupts() enables the CPU to start taking interrupts.
 */
static ALT_INLINE void ALT_ALWAYS_INLINE 
       alt_irq_cpu_enable_interrupts ()
{
    NIOS2_WRITE_STATUS(NIOS2_STATUS_PIE_MSK
1000c2b4:	00800044 	movi	r2,1
1000c2b8:	1001703a 	wrctl	status,r2
    alt_irq_cpu_enable_interrupts();
}
1000c2bc:	e037883a 	mov	sp,fp
1000c2c0:	dfc00117 	ldw	ra,4(sp)
1000c2c4:	df000017 	ldw	fp,0(sp)
1000c2c8:	dec00204 	addi	sp,sp,8
1000c2cc:	f800283a 	ret

1000c2d0 <alt_sys_init>:
 * Initialize the non-interrupt controller devices.
 * Called after alt_irq_init().
 */

void alt_sys_init( void )
{
1000c2d0:	defffe04 	addi	sp,sp,-8
1000c2d4:	dfc00115 	stw	ra,4(sp)
1000c2d8:	df000015 	stw	fp,0(sp)
1000c2dc:	d839883a 	mov	fp,sp
    ALTERA_AVALON_JTAG_UART_INIT ( JTAG_UART_0, jtag_uart_0);
1000c2e0:	01040074 	movhi	r4,4097
1000c2e4:	213d4c04 	addi	r4,r4,-2768
1000c2e8:	000b883a 	mov	r5,zero
1000c2ec:	01800144 	movi	r6,5
1000c2f0:	000c47c0 	call	1000c47c <altera_avalon_jtag_uart_init>
1000c2f4:	01040074 	movhi	r4,4097
1000c2f8:	213d4204 	addi	r4,r4,-2808
1000c2fc:	000c2640 	call	1000c264 <alt_dev_reg>
    ALTERA_AVALON_SYSID_QSYS_INIT ( SYSID_QSYS_0, sysid_qsys_0);
1000c300:	0001883a 	nop
}
1000c304:	e037883a 	mov	sp,fp
1000c308:	dfc00117 	ldw	ra,4(sp)
1000c30c:	df000017 	ldw	fp,0(sp)
1000c310:	dec00204 	addi	sp,sp,8
1000c314:	f800283a 	ret

1000c318 <altera_avalon_jtag_uart_read_fd>:
 *
 */

int 
altera_avalon_jtag_uart_read_fd(alt_fd* fd, char* buffer, int space)
{
1000c318:	defffa04 	addi	sp,sp,-24
1000c31c:	dfc00515 	stw	ra,20(sp)
1000c320:	df000415 	stw	fp,16(sp)
1000c324:	df000404 	addi	fp,sp,16
1000c328:	e13ffd15 	stw	r4,-12(fp)
1000c32c:	e17ffe15 	stw	r5,-8(fp)
1000c330:	e1bfff15 	stw	r6,-4(fp)
    altera_avalon_jtag_uart_dev* dev = (altera_avalon_jtag_uart_dev*) fd->dev; 
1000c334:	e0bffd17 	ldw	r2,-12(fp)
1000c338:	10800017 	ldw	r2,0(r2)
1000c33c:	e0bffc15 	stw	r2,-16(fp)

    return altera_avalon_jtag_uart_read(&dev->state, buffer, space,
1000c340:	e0bffc17 	ldw	r2,-16(fp)
1000c344:	10c00a04 	addi	r3,r2,40
      fd->fd_flags);
1000c348:	e0bffd17 	ldw	r2,-12(fp)
int 
altera_avalon_jtag_uart_read_fd(alt_fd* fd, char* buffer, int space)
{
    altera_avalon_jtag_uart_dev* dev = (altera_avalon_jtag_uart_dev*) fd->dev; 

    return altera_avalon_jtag_uart_read(&dev->state, buffer, space,
1000c34c:	10800217 	ldw	r2,8(r2)
1000c350:	1809883a 	mov	r4,r3
1000c354:	e17ffe17 	ldw	r5,-8(fp)
1000c358:	e1bfff17 	ldw	r6,-4(fp)
1000c35c:	100f883a 	mov	r7,r2
1000c360:	000c9400 	call	1000c940 <altera_avalon_jtag_uart_read>
      fd->fd_flags);
}
1000c364:	e037883a 	mov	sp,fp
1000c368:	dfc00117 	ldw	ra,4(sp)
1000c36c:	df000017 	ldw	fp,0(sp)
1000c370:	dec00204 	addi	sp,sp,8
1000c374:	f800283a 	ret

1000c378 <altera_avalon_jtag_uart_write_fd>:

int 
altera_avalon_jtag_uart_write_fd(alt_fd* fd, const char* buffer, int space)
{
1000c378:	defffa04 	addi	sp,sp,-24
1000c37c:	dfc00515 	stw	ra,20(sp)
1000c380:	df000415 	stw	fp,16(sp)
1000c384:	df000404 	addi	fp,sp,16
1000c388:	e13ffd15 	stw	r4,-12(fp)
1000c38c:	e17ffe15 	stw	r5,-8(fp)
1000c390:	e1bfff15 	stw	r6,-4(fp)
    altera_avalon_jtag_uart_dev* dev = (altera_avalon_jtag_uart_dev*) fd->dev; 
1000c394:	e0bffd17 	ldw	r2,-12(fp)
1000c398:	10800017 	ldw	r2,0(r2)
1000c39c:	e0bffc15 	stw	r2,-16(fp)

    return altera_avalon_jtag_uart_write(&dev->state, buffer, space,
1000c3a0:	e0bffc17 	ldw	r2,-16(fp)
1000c3a4:	10c00a04 	addi	r3,r2,40
      fd->fd_flags);
1000c3a8:	e0bffd17 	ldw	r2,-12(fp)
int 
altera_avalon_jtag_uart_write_fd(alt_fd* fd, const char* buffer, int space)
{
    altera_avalon_jtag_uart_dev* dev = (altera_avalon_jtag_uart_dev*) fd->dev; 

    return altera_avalon_jtag_uart_write(&dev->state, buffer, space,
1000c3ac:	10800217 	ldw	r2,8(r2)
1000c3b0:	1809883a 	mov	r4,r3
1000c3b4:	e17ffe17 	ldw	r5,-8(fp)
1000c3b8:	e1bfff17 	ldw	r6,-4(fp)
1000c3bc:	100f883a 	mov	r7,r2
1000c3c0:	000cb580 	call	1000cb58 <altera_avalon_jtag_uart_write>
      fd->fd_flags);
}
1000c3c4:	e037883a 	mov	sp,fp
1000c3c8:	dfc00117 	ldw	ra,4(sp)
1000c3cc:	df000017 	ldw	fp,0(sp)
1000c3d0:	dec00204 	addi	sp,sp,8
1000c3d4:	f800283a 	ret

1000c3d8 <altera_avalon_jtag_uart_close_fd>:

#ifndef ALTERA_AVALON_JTAG_UART_SMALL

int 
altera_avalon_jtag_uart_close_fd(alt_fd* fd)
{
1000c3d8:	defffc04 	addi	sp,sp,-16
1000c3dc:	dfc00315 	stw	ra,12(sp)
1000c3e0:	df000215 	stw	fp,8(sp)
1000c3e4:	df000204 	addi	fp,sp,8
1000c3e8:	e13fff15 	stw	r4,-4(fp)
    altera_avalon_jtag_uart_dev* dev = (altera_avalon_jtag_uart_dev*) fd->dev; 
1000c3ec:	e0bfff17 	ldw	r2,-4(fp)
1000c3f0:	10800017 	ldw	r2,0(r2)
1000c3f4:	e0bffe15 	stw	r2,-8(fp)

    return altera_avalon_jtag_uart_close(&dev->state, fd->fd_flags);
1000c3f8:	e0bffe17 	ldw	r2,-8(fp)
1000c3fc:	10c00a04 	addi	r3,r2,40
1000c400:	e0bfff17 	ldw	r2,-4(fp)
1000c404:	10800217 	ldw	r2,8(r2)
1000c408:	1809883a 	mov	r4,r3
1000c40c:	100b883a 	mov	r5,r2
1000c410:	000c7e40 	call	1000c7e4 <altera_avalon_jtag_uart_close>
}
1000c414:	e037883a 	mov	sp,fp
1000c418:	dfc00117 	ldw	ra,4(sp)
1000c41c:	df000017 	ldw	fp,0(sp)
1000c420:	dec00204 	addi	sp,sp,8
1000c424:	f800283a 	ret

1000c428 <altera_avalon_jtag_uart_ioctl_fd>:

int 
altera_avalon_jtag_uart_ioctl_fd(alt_fd* fd, int req, void* arg)
{
1000c428:	defffa04 	addi	sp,sp,-24
1000c42c:	dfc00515 	stw	ra,20(sp)
1000c430:	df000415 	stw	fp,16(sp)
1000c434:	df000404 	addi	fp,sp,16
1000c438:	e13ffd15 	stw	r4,-12(fp)
1000c43c:	e17ffe15 	stw	r5,-8(fp)
1000c440:	e1bfff15 	stw	r6,-4(fp)
    altera_avalon_jtag_uart_dev* dev = (altera_avalon_jtag_uart_dev*) fd->dev;
1000c444:	e0bffd17 	ldw	r2,-12(fp)
1000c448:	10800017 	ldw	r2,0(r2)
1000c44c:	e0bffc15 	stw	r2,-16(fp)

    return altera_avalon_jtag_uart_ioctl(&dev->state, req, arg);
1000c450:	e0bffc17 	ldw	r2,-16(fp)
1000c454:	10800a04 	addi	r2,r2,40
1000c458:	1009883a 	mov	r4,r2
1000c45c:	e17ffe17 	ldw	r5,-8(fp)
1000c460:	e1bfff17 	ldw	r6,-4(fp)
1000c464:	000c84c0 	call	1000c84c <altera_avalon_jtag_uart_ioctl>
}
1000c468:	e037883a 	mov	sp,fp
1000c46c:	dfc00117 	ldw	ra,4(sp)
1000c470:	df000017 	ldw	fp,0(sp)
1000c474:	dec00204 	addi	sp,sp,8
1000c478:	f800283a 	ret

1000c47c <altera_avalon_jtag_uart_init>:
 * Return 1 on sucessful IRQ register and 0 on failure.
 */

void altera_avalon_jtag_uart_init(altera_avalon_jtag_uart_state* sp, 
                                  int irq_controller_id, int irq)
{
1000c47c:	defffa04 	addi	sp,sp,-24
1000c480:	dfc00515 	stw	ra,20(sp)
1000c484:	df000415 	stw	fp,16(sp)
1000c488:	df000404 	addi	fp,sp,16
1000c48c:	e13ffd15 	stw	r4,-12(fp)
1000c490:	e17ffe15 	stw	r5,-8(fp)
1000c494:	e1bfff15 	stw	r6,-4(fp)
  ALT_FLAG_CREATE(&sp->events, 0);
  ALT_SEM_CREATE(&sp->read_lock, 1);
  ALT_SEM_CREATE(&sp->write_lock, 1);

  /* enable read interrupts at the device */
  sp->irq_enable = ALTERA_AVALON_JTAG_UART_CONTROL_RE_MSK;
1000c498:	e0bffd17 	ldw	r2,-12(fp)
1000c49c:	00c00044 	movi	r3,1
1000c4a0:	10c00815 	stw	r3,32(r2)

  IOWR_ALTERA_AVALON_JTAG_UART_CONTROL(sp->base, sp->irq_enable); 
1000c4a4:	e0bffd17 	ldw	r2,-12(fp)
1000c4a8:	10800017 	ldw	r2,0(r2)
1000c4ac:	10800104 	addi	r2,r2,4
1000c4b0:	e0fffd17 	ldw	r3,-12(fp)
1000c4b4:	18c00817 	ldw	r3,32(r3)
1000c4b8:	10c00035 	stwio	r3,0(r2)
  
  /* register the interrupt handler */
#ifdef ALT_ENHANCED_INTERRUPT_API_PRESENT
  alt_ic_isr_register(irq_controller_id, irq, altera_avalon_jtag_uart_irq, 
1000c4bc:	e0fffe17 	ldw	r3,-8(fp)
1000c4c0:	e0bfff17 	ldw	r2,-4(fp)
1000c4c4:	d8000015 	stw	zero,0(sp)
1000c4c8:	1809883a 	mov	r4,r3
1000c4cc:	100b883a 	mov	r5,r2
1000c4d0:	01840074 	movhi	r6,4097
1000c4d4:	31b14f04 	addi	r6,r6,-15044
1000c4d8:	e1fffd17 	ldw	r7,-12(fp)
1000c4dc:	000d1ec0 	call	1000d1ec <alt_ic_isr_register>
#else
  alt_irq_register(irq, sp, altera_avalon_jtag_uart_irq);
#endif  

  /* Register an alarm to go off every second to check for presence of host */
  sp->host_inactive = 0;
1000c4e0:	e0bffd17 	ldw	r2,-12(fp)
1000c4e4:	10000915 	stw	zero,36(r2)

  if (alt_alarm_start(&sp->alarm, alt_ticks_per_second(), 
1000c4e8:	e0bffd17 	ldw	r2,-12(fp)
1000c4ec:	10c00204 	addi	r3,r2,8
 * Obtain the system clock rate in ticks/s. 
 */

static ALT_INLINE alt_u32 ALT_ALWAYS_INLINE alt_ticks_per_second (void)
{
  return _alt_tick_rate;
1000c4f0:	00840074 	movhi	r2,4097
1000c4f4:	10880b04 	addi	r2,r2,8236
1000c4f8:	10800017 	ldw	r2,0(r2)
1000c4fc:	1809883a 	mov	r4,r3
1000c500:	100b883a 	mov	r5,r2
1000c504:	01840074 	movhi	r6,4097
1000c508:	31b1d004 	addi	r6,r6,-14528
1000c50c:	e1fffd17 	ldw	r7,-12(fp)
1000c510:	000cd780 	call	1000cd78 <alt_alarm_start>
1000c514:	1000040e 	bge	r2,zero,1000c528 <altera_avalon_jtag_uart_init+0xac>
    &altera_avalon_jtag_uart_timeout, sp) < 0)
  {
    /* If we can't set the alarm then record "don't know if host present" 
     * and behave as though the host is present.
     */
    sp->timeout = INT_MAX;
1000c518:	e0bffd17 	ldw	r2,-12(fp)
1000c51c:	00e00034 	movhi	r3,32768
1000c520:	18ffffc4 	addi	r3,r3,-1
1000c524:	10c00115 	stw	r3,4(r2)
  }

  /* ALT_LOG - see altera_hal/HAL/inc/sys/alt_log_printf.h */ 
  ALT_LOG_JTAG_UART_ALARM_REGISTER(sp, sp->base);
}
1000c528:	e037883a 	mov	sp,fp
1000c52c:	dfc00117 	ldw	ra,4(sp)
1000c530:	df000017 	ldw	fp,0(sp)
1000c534:	dec00204 	addi	sp,sp,8
1000c538:	f800283a 	ret

1000c53c <altera_avalon_jtag_uart_irq>:
#ifdef ALT_ENHANCED_INTERRUPT_API_PRESENT
static void altera_avalon_jtag_uart_irq(void* context)
#else
static void altera_avalon_jtag_uart_irq(void* context, alt_u32 id)
#endif
{
1000c53c:	defff804 	addi	sp,sp,-32
1000c540:	df000715 	stw	fp,28(sp)
1000c544:	df000704 	addi	fp,sp,28
1000c548:	e13fff15 	stw	r4,-4(fp)
  altera_avalon_jtag_uart_state* sp = (altera_avalon_jtag_uart_state*) context;
1000c54c:	e0bfff17 	ldw	r2,-4(fp)
1000c550:	e0bffb15 	stw	r2,-20(fp)
  unsigned int base = sp->base;
1000c554:	e0bffb17 	ldw	r2,-20(fp)
1000c558:	10800017 	ldw	r2,0(r2)
1000c55c:	e0bffc15 	stw	r2,-16(fp)
1000c560:	00000106 	br	1000c568 <altera_avalon_jtag_uart_irq+0x2c>
        
        /* Dummy read to ensure IRQ is cleared prior to ISR completion */
        IORD_ALTERA_AVALON_JTAG_UART_CONTROL(base);
      }
    }
  }
1000c564:	0001883a 	nop
  /* ALT_LOG - see altera_hal/HAL/inc/sys/alt_log_printf.h */ 
  ALT_LOG_JTAG_UART_ISR_FUNCTION(base, sp);

  for ( ; ; )
  {
    unsigned int control = IORD_ALTERA_AVALON_JTAG_UART_CONTROL(base);
1000c568:	e0bffc17 	ldw	r2,-16(fp)
1000c56c:	10800104 	addi	r2,r2,4
1000c570:	10800037 	ldwio	r2,0(r2)
1000c574:	e0bffd15 	stw	r2,-12(fp)

    /* Return once nothing more to do */
    if ((control & (ALTERA_AVALON_JTAG_UART_CONTROL_RI_MSK | ALTERA_AVALON_JTAG_UART_CONTROL_WI_MSK)) == 0)
1000c578:	e0bffd17 	ldw	r2,-12(fp)
1000c57c:	1080c00c 	andi	r2,r2,768
1000c580:	10006a26 	beq	r2,zero,1000c72c <altera_avalon_jtag_uart_irq+0x1f0>
      break;

    if (control & ALTERA_AVALON_JTAG_UART_CONTROL_RI_MSK)
1000c584:	e0bffd17 	ldw	r2,-12(fp)
1000c588:	1080400c 	andi	r2,r2,256
1000c58c:	10003326 	beq	r2,zero,1000c65c <altera_avalon_jtag_uart_irq+0x120>
    {
      /* process a read irq.  Start by assuming that there is data in the
       * receive FIFO (otherwise why would we have been interrupted?)
       */
      unsigned int data = 1 << ALTERA_AVALON_JTAG_UART_DATA_RAVAIL_OFST;
1000c590:	00800074 	movhi	r2,1
1000c594:	e0bff915 	stw	r2,-28(fp)
      for ( ; ; )
      {
        /* Check whether there is space in the buffer.  If not then we must not
         * read any characters from the buffer as they will be lost.
         */
        unsigned int next = (sp->rx_in + 1) % ALTERA_AVALON_JTAG_UART_BUF_LEN;
1000c598:	e0bffb17 	ldw	r2,-20(fp)
1000c59c:	10800a17 	ldw	r2,40(r2)
1000c5a0:	10800044 	addi	r2,r2,1
1000c5a4:	1081ffcc 	andi	r2,r2,2047
1000c5a8:	e0bffe15 	stw	r2,-8(fp)
        if (next == sp->rx_out)
1000c5ac:	e0bffb17 	ldw	r2,-20(fp)
1000c5b0:	10c00b17 	ldw	r3,44(r2)
1000c5b4:	e0bffe17 	ldw	r2,-8(fp)
1000c5b8:	18801426 	beq	r3,r2,1000c60c <altera_avalon_jtag_uart_irq+0xd0>
          break;

        /* Try to remove a character from the FIFO and find out whether there
         * are any more characters remaining.
         */
        data = IORD_ALTERA_AVALON_JTAG_UART_DATA(base);
1000c5bc:	e0bffc17 	ldw	r2,-16(fp)
1000c5c0:	10800037 	ldwio	r2,0(r2)
1000c5c4:	e0bff915 	stw	r2,-28(fp)
        
        if ((data & ALTERA_AVALON_JTAG_UART_DATA_RVALID_MSK) == 0)
1000c5c8:	e0bff917 	ldw	r2,-28(fp)
1000c5cc:	10a0000c 	andi	r2,r2,32768
1000c5d0:	10001026 	beq	r2,zero,1000c614 <altera_avalon_jtag_uart_irq+0xd8>
          break;

        sp->rx_buf[sp->rx_in] = (data & ALTERA_AVALON_JTAG_UART_DATA_DATA_MSK) >> ALTERA_AVALON_JTAG_UART_DATA_DATA_OFST;
1000c5d4:	e0bffb17 	ldw	r2,-20(fp)
1000c5d8:	10800a17 	ldw	r2,40(r2)
1000c5dc:	e0fff917 	ldw	r3,-28(fp)
1000c5e0:	e13ffb17 	ldw	r4,-20(fp)
1000c5e4:	2085883a 	add	r2,r4,r2
1000c5e8:	10800e04 	addi	r2,r2,56
1000c5ec:	10c00005 	stb	r3,0(r2)
        sp->rx_in = (sp->rx_in + 1) % ALTERA_AVALON_JTAG_UART_BUF_LEN;
1000c5f0:	e0bffb17 	ldw	r2,-20(fp)
1000c5f4:	10800a17 	ldw	r2,40(r2)
1000c5f8:	10800044 	addi	r2,r2,1
1000c5fc:	10c1ffcc 	andi	r3,r2,2047
1000c600:	e0bffb17 	ldw	r2,-20(fp)
1000c604:	10c00a15 	stw	r3,40(r2)

        /* Post an event to notify jtag_uart_read that a character has been read */
        ALT_FLAG_POST (sp->events, ALT_JTAG_UART_READ_RDY, OS_FLAG_SET);
      }
1000c608:	003fe306 	br	1000c598 <__alt_data_end+0xf800c598>
        /* Check whether there is space in the buffer.  If not then we must not
         * read any characters from the buffer as they will be lost.
         */
        unsigned int next = (sp->rx_in + 1) % ALTERA_AVALON_JTAG_UART_BUF_LEN;
        if (next == sp->rx_out)
          break;
1000c60c:	0001883a 	nop
1000c610:	00000106 	br	1000c618 <altera_avalon_jtag_uart_irq+0xdc>
         * are any more characters remaining.
         */
        data = IORD_ALTERA_AVALON_JTAG_UART_DATA(base);
        
        if ((data & ALTERA_AVALON_JTAG_UART_DATA_RVALID_MSK) == 0)
          break;
1000c614:	0001883a 	nop

        /* Post an event to notify jtag_uart_read that a character has been read */
        ALT_FLAG_POST (sp->events, ALT_JTAG_UART_READ_RDY, OS_FLAG_SET);
      }

      if (data & ALTERA_AVALON_JTAG_UART_DATA_RAVAIL_MSK)
1000c618:	e0bff917 	ldw	r2,-28(fp)
1000c61c:	10bfffec 	andhi	r2,r2,65535
1000c620:	10000e26 	beq	r2,zero,1000c65c <altera_avalon_jtag_uart_irq+0x120>
      {
        /* If there is still data available here then the buffer is full 
         * so turn off receive interrupts until some space becomes available.
         */
        sp->irq_enable &= ~ALTERA_AVALON_JTAG_UART_CONTROL_RE_MSK;
1000c624:	e0bffb17 	ldw	r2,-20(fp)
1000c628:	10c00817 	ldw	r3,32(r2)
1000c62c:	00bfff84 	movi	r2,-2
1000c630:	1886703a 	and	r3,r3,r2
1000c634:	e0bffb17 	ldw	r2,-20(fp)
1000c638:	10c00815 	stw	r3,32(r2)
        IOWR_ALTERA_AVALON_JTAG_UART_CONTROL(base, sp->irq_enable);
1000c63c:	e0bffc17 	ldw	r2,-16(fp)
1000c640:	10800104 	addi	r2,r2,4
1000c644:	e0fffb17 	ldw	r3,-20(fp)
1000c648:	18c00817 	ldw	r3,32(r3)
1000c64c:	10c00035 	stwio	r3,0(r2)
        
        /* Dummy read to ensure IRQ is cleared prior to ISR completion */
        IORD_ALTERA_AVALON_JTAG_UART_CONTROL(base);
1000c650:	e0bffc17 	ldw	r2,-16(fp)
1000c654:	10800104 	addi	r2,r2,4
1000c658:	10800037 	ldwio	r2,0(r2)
      }
    }

    if (control & ALTERA_AVALON_JTAG_UART_CONTROL_WI_MSK)
1000c65c:	e0bffd17 	ldw	r2,-12(fp)
1000c660:	1080800c 	andi	r2,r2,512
1000c664:	103fbf26 	beq	r2,zero,1000c564 <__alt_data_end+0xf800c564>
    {
      /* process a write irq */
      unsigned int space = (control & ALTERA_AVALON_JTAG_UART_CONTROL_WSPACE_MSK) >> ALTERA_AVALON_JTAG_UART_CONTROL_WSPACE_OFST;
1000c668:	e0bffd17 	ldw	r2,-12(fp)
1000c66c:	1004d43a 	srli	r2,r2,16
1000c670:	e0bffa15 	stw	r2,-24(fp)

      while (space > 0 && sp->tx_out != sp->tx_in)
1000c674:	00001406 	br	1000c6c8 <altera_avalon_jtag_uart_irq+0x18c>
      {
        IOWR_ALTERA_AVALON_JTAG_UART_DATA(base, sp->tx_buf[sp->tx_out]);
1000c678:	e0bffc17 	ldw	r2,-16(fp)
1000c67c:	e0fffb17 	ldw	r3,-20(fp)
1000c680:	18c00d17 	ldw	r3,52(r3)
1000c684:	e13ffb17 	ldw	r4,-20(fp)
1000c688:	20c7883a 	add	r3,r4,r3
1000c68c:	18c20e04 	addi	r3,r3,2104
1000c690:	18c00003 	ldbu	r3,0(r3)
1000c694:	18c03fcc 	andi	r3,r3,255
1000c698:	18c0201c 	xori	r3,r3,128
1000c69c:	18ffe004 	addi	r3,r3,-128
1000c6a0:	10c00035 	stwio	r3,0(r2)

        sp->tx_out = (sp->tx_out + 1) % ALTERA_AVALON_JTAG_UART_BUF_LEN;
1000c6a4:	e0bffb17 	ldw	r2,-20(fp)
1000c6a8:	10800d17 	ldw	r2,52(r2)
1000c6ac:	10800044 	addi	r2,r2,1
1000c6b0:	10c1ffcc 	andi	r3,r2,2047
1000c6b4:	e0bffb17 	ldw	r2,-20(fp)
1000c6b8:	10c00d15 	stw	r3,52(r2)

        /* Post an event to notify jtag_uart_write that a character has been written */
        ALT_FLAG_POST (sp->events, ALT_JTAG_UART_WRITE_RDY, OS_FLAG_SET);

        space--;
1000c6bc:	e0bffa17 	ldw	r2,-24(fp)
1000c6c0:	10bfffc4 	addi	r2,r2,-1
1000c6c4:	e0bffa15 	stw	r2,-24(fp)
    if (control & ALTERA_AVALON_JTAG_UART_CONTROL_WI_MSK)
    {
      /* process a write irq */
      unsigned int space = (control & ALTERA_AVALON_JTAG_UART_CONTROL_WSPACE_MSK) >> ALTERA_AVALON_JTAG_UART_CONTROL_WSPACE_OFST;

      while (space > 0 && sp->tx_out != sp->tx_in)
1000c6c8:	e0bffa17 	ldw	r2,-24(fp)
1000c6cc:	10000526 	beq	r2,zero,1000c6e4 <altera_avalon_jtag_uart_irq+0x1a8>
1000c6d0:	e0bffb17 	ldw	r2,-20(fp)
1000c6d4:	10c00d17 	ldw	r3,52(r2)
1000c6d8:	e0bffb17 	ldw	r2,-20(fp)
1000c6dc:	10800c17 	ldw	r2,48(r2)
1000c6e0:	18bfe51e 	bne	r3,r2,1000c678 <__alt_data_end+0xf800c678>
        ALT_FLAG_POST (sp->events, ALT_JTAG_UART_WRITE_RDY, OS_FLAG_SET);

        space--;
      }

      if (space > 0)
1000c6e4:	e0bffa17 	ldw	r2,-24(fp)
1000c6e8:	103f9e26 	beq	r2,zero,1000c564 <__alt_data_end+0xf800c564>
      {
        /* If we don't have any more data available then turn off the TX interrupt */
        sp->irq_enable &= ~ALTERA_AVALON_JTAG_UART_CONTROL_WE_MSK;
1000c6ec:	e0bffb17 	ldw	r2,-20(fp)
1000c6f0:	10c00817 	ldw	r3,32(r2)
1000c6f4:	00bfff44 	movi	r2,-3
1000c6f8:	1886703a 	and	r3,r3,r2
1000c6fc:	e0bffb17 	ldw	r2,-20(fp)
1000c700:	10c00815 	stw	r3,32(r2)
        IOWR_ALTERA_AVALON_JTAG_UART_CONTROL(sp->base, sp->irq_enable);
1000c704:	e0bffb17 	ldw	r2,-20(fp)
1000c708:	10800017 	ldw	r2,0(r2)
1000c70c:	10800104 	addi	r2,r2,4
1000c710:	e0fffb17 	ldw	r3,-20(fp)
1000c714:	18c00817 	ldw	r3,32(r3)
1000c718:	10c00035 	stwio	r3,0(r2)
        
        /* Dummy read to ensure IRQ is cleared prior to ISR completion */
        IORD_ALTERA_AVALON_JTAG_UART_CONTROL(base);
1000c71c:	e0bffc17 	ldw	r2,-16(fp)
1000c720:	10800104 	addi	r2,r2,4
1000c724:	10800037 	ldwio	r2,0(r2)
      }
    }
  }
1000c728:	003f8e06 	br	1000c564 <__alt_data_end+0xf800c564>
  {
    unsigned int control = IORD_ALTERA_AVALON_JTAG_UART_CONTROL(base);

    /* Return once nothing more to do */
    if ((control & (ALTERA_AVALON_JTAG_UART_CONTROL_RI_MSK | ALTERA_AVALON_JTAG_UART_CONTROL_WI_MSK)) == 0)
      break;
1000c72c:	0001883a 	nop
        /* Dummy read to ensure IRQ is cleared prior to ISR completion */
        IORD_ALTERA_AVALON_JTAG_UART_CONTROL(base);
      }
    }
  }
}
1000c730:	e037883a 	mov	sp,fp
1000c734:	df000017 	ldw	fp,0(sp)
1000c738:	dec00104 	addi	sp,sp,4
1000c73c:	f800283a 	ret

1000c740 <altera_avalon_jtag_uart_timeout>:
 * Timeout routine is called every second
 */

static alt_u32 
altera_avalon_jtag_uart_timeout(void* context) 
{
1000c740:	defffc04 	addi	sp,sp,-16
1000c744:	df000315 	stw	fp,12(sp)
1000c748:	df000304 	addi	fp,sp,12
1000c74c:	e13fff15 	stw	r4,-4(fp)
  altera_avalon_jtag_uart_state* sp = (altera_avalon_jtag_uart_state *) context;
1000c750:	e0bfff17 	ldw	r2,-4(fp)
1000c754:	e0bffd15 	stw	r2,-12(fp)

  unsigned int control = IORD_ALTERA_AVALON_JTAG_UART_CONTROL(sp->base);
1000c758:	e0bffd17 	ldw	r2,-12(fp)
1000c75c:	10800017 	ldw	r2,0(r2)
1000c760:	10800104 	addi	r2,r2,4
1000c764:	10800037 	ldwio	r2,0(r2)
1000c768:	e0bffe15 	stw	r2,-8(fp)

  if (control & ALTERA_AVALON_JTAG_UART_CONTROL_AC_MSK)
1000c76c:	e0bffe17 	ldw	r2,-8(fp)
1000c770:	1081000c 	andi	r2,r2,1024
1000c774:	10000a26 	beq	r2,zero,1000c7a0 <altera_avalon_jtag_uart_timeout+0x60>
  {
    IOWR_ALTERA_AVALON_JTAG_UART_CONTROL(sp->base, sp->irq_enable | ALTERA_AVALON_JTAG_UART_CONTROL_AC_MSK);
1000c778:	e0bffd17 	ldw	r2,-12(fp)
1000c77c:	10800017 	ldw	r2,0(r2)
1000c780:	10800104 	addi	r2,r2,4
1000c784:	e0fffd17 	ldw	r3,-12(fp)
1000c788:	18c00817 	ldw	r3,32(r3)
1000c78c:	18c10014 	ori	r3,r3,1024
1000c790:	10c00035 	stwio	r3,0(r2)
    sp->host_inactive = 0;
1000c794:	e0bffd17 	ldw	r2,-12(fp)
1000c798:	10000915 	stw	zero,36(r2)
1000c79c:	00000a06 	br	1000c7c8 <altera_avalon_jtag_uart_timeout+0x88>
  }
  else if (sp->host_inactive < INT_MAX - 2) {
1000c7a0:	e0bffd17 	ldw	r2,-12(fp)
1000c7a4:	10800917 	ldw	r2,36(r2)
1000c7a8:	00e00034 	movhi	r3,32768
1000c7ac:	18ffff04 	addi	r3,r3,-4
1000c7b0:	18800536 	bltu	r3,r2,1000c7c8 <altera_avalon_jtag_uart_timeout+0x88>
    sp->host_inactive++;
1000c7b4:	e0bffd17 	ldw	r2,-12(fp)
1000c7b8:	10800917 	ldw	r2,36(r2)
1000c7bc:	10c00044 	addi	r3,r2,1
1000c7c0:	e0bffd17 	ldw	r2,-12(fp)
1000c7c4:	10c00915 	stw	r3,36(r2)
1000c7c8:	00840074 	movhi	r2,4097
1000c7cc:	10880b04 	addi	r2,r2,8236
1000c7d0:	10800017 	ldw	r2,0(r2)
      ALT_FLAG_POST (sp->events, ALT_JTAG_UART_TIMEOUT, OS_FLAG_SET);
    }
  }

  return alt_ticks_per_second();
}
1000c7d4:	e037883a 	mov	sp,fp
1000c7d8:	df000017 	ldw	fp,0(sp)
1000c7dc:	dec00104 	addi	sp,sp,4
1000c7e0:	f800283a 	ret

1000c7e4 <altera_avalon_jtag_uart_close>:
 * The close routine is not implemented for the small driver; instead it will
 * map to null. This is because the small driver simply waits while characters
 * are transmitted; there is no interrupt-serviced buffer to empty 
 */
int altera_avalon_jtag_uart_close(altera_avalon_jtag_uart_state* sp, int flags)
{
1000c7e4:	defffd04 	addi	sp,sp,-12
1000c7e8:	df000215 	stw	fp,8(sp)
1000c7ec:	df000204 	addi	fp,sp,8
1000c7f0:	e13ffe15 	stw	r4,-8(fp)
1000c7f4:	e17fff15 	stw	r5,-4(fp)
  /* 
   * Wait for all transmit data to be emptied by the JTAG UART ISR, or
   * for a host-inactivity timeout, in which case transmit data will be lost
   */
  while ( (sp->tx_out != sp->tx_in) && (sp->host_inactive < sp->timeout) ) {
1000c7f8:	00000506 	br	1000c810 <altera_avalon_jtag_uart_close+0x2c>
    if (flags & O_NONBLOCK) {
1000c7fc:	e0bfff17 	ldw	r2,-4(fp)
1000c800:	1090000c 	andi	r2,r2,16384
1000c804:	10000226 	beq	r2,zero,1000c810 <altera_avalon_jtag_uart_close+0x2c>
      return -EWOULDBLOCK; 
1000c808:	00bffd44 	movi	r2,-11
1000c80c:	00000b06 	br	1000c83c <altera_avalon_jtag_uart_close+0x58>
{
  /* 
   * Wait for all transmit data to be emptied by the JTAG UART ISR, or
   * for a host-inactivity timeout, in which case transmit data will be lost
   */
  while ( (sp->tx_out != sp->tx_in) && (sp->host_inactive < sp->timeout) ) {
1000c810:	e0bffe17 	ldw	r2,-8(fp)
1000c814:	10c00d17 	ldw	r3,52(r2)
1000c818:	e0bffe17 	ldw	r2,-8(fp)
1000c81c:	10800c17 	ldw	r2,48(r2)
1000c820:	18800526 	beq	r3,r2,1000c838 <altera_avalon_jtag_uart_close+0x54>
1000c824:	e0bffe17 	ldw	r2,-8(fp)
1000c828:	10c00917 	ldw	r3,36(r2)
1000c82c:	e0bffe17 	ldw	r2,-8(fp)
1000c830:	10800117 	ldw	r2,4(r2)
1000c834:	18bff136 	bltu	r3,r2,1000c7fc <__alt_data_end+0xf800c7fc>
    if (flags & O_NONBLOCK) {
      return -EWOULDBLOCK; 
    }
  }

  return 0;
1000c838:	0005883a 	mov	r2,zero
}
1000c83c:	e037883a 	mov	sp,fp
1000c840:	df000017 	ldw	fp,0(sp)
1000c844:	dec00104 	addi	sp,sp,4
1000c848:	f800283a 	ret

1000c84c <altera_avalon_jtag_uart_ioctl>:
/* ----------------------------------------------------------- */

int 
altera_avalon_jtag_uart_ioctl(altera_avalon_jtag_uart_state* sp, int req,
  void* arg)
{
1000c84c:	defffa04 	addi	sp,sp,-24
1000c850:	df000515 	stw	fp,20(sp)
1000c854:	df000504 	addi	fp,sp,20
1000c858:	e13ffd15 	stw	r4,-12(fp)
1000c85c:	e17ffe15 	stw	r5,-8(fp)
1000c860:	e1bfff15 	stw	r6,-4(fp)
  int rc = -ENOTTY;
1000c864:	00bff9c4 	movi	r2,-25
1000c868:	e0bffb15 	stw	r2,-20(fp)

  switch (req)
1000c86c:	e0bffe17 	ldw	r2,-8(fp)
1000c870:	10da8060 	cmpeqi	r3,r2,27137
1000c874:	1800031e 	bne	r3,zero,1000c884 <altera_avalon_jtag_uart_ioctl+0x38>
1000c878:	109a80a0 	cmpeqi	r2,r2,27138
1000c87c:	1000181e 	bne	r2,zero,1000c8e0 <altera_avalon_jtag_uart_ioctl+0x94>
1000c880:	00002606 	br	1000c91c <altera_avalon_jtag_uart_ioctl+0xd0>
  {
  case TIOCSTIMEOUT:
    /* Set the time to wait until assuming host is not connected */
    if (sp->timeout != INT_MAX)
1000c884:	e0bffd17 	ldw	r2,-12(fp)
1000c888:	10c00117 	ldw	r3,4(r2)
1000c88c:	00a00034 	movhi	r2,32768
1000c890:	10bfffc4 	addi	r2,r2,-1
1000c894:	18802226 	beq	r3,r2,1000c920 <altera_avalon_jtag_uart_ioctl+0xd4>
    {
      int timeout = *((int *)arg);
1000c898:	e0bfff17 	ldw	r2,-4(fp)
1000c89c:	10800017 	ldw	r2,0(r2)
1000c8a0:	e0bffc15 	stw	r2,-16(fp)
      sp->timeout = (timeout >= 2 && timeout < INT_MAX) ? timeout : INT_MAX - 1;
1000c8a4:	e0bffc17 	ldw	r2,-16(fp)
1000c8a8:	10800090 	cmplti	r2,r2,2
1000c8ac:	1000061e 	bne	r2,zero,1000c8c8 <altera_avalon_jtag_uart_ioctl+0x7c>
1000c8b0:	e0fffc17 	ldw	r3,-16(fp)
1000c8b4:	00a00034 	movhi	r2,32768
1000c8b8:	10bfffc4 	addi	r2,r2,-1
1000c8bc:	18800226 	beq	r3,r2,1000c8c8 <altera_avalon_jtag_uart_ioctl+0x7c>
1000c8c0:	e0bffc17 	ldw	r2,-16(fp)
1000c8c4:	00000206 	br	1000c8d0 <altera_avalon_jtag_uart_ioctl+0x84>
1000c8c8:	00a00034 	movhi	r2,32768
1000c8cc:	10bfff84 	addi	r2,r2,-2
1000c8d0:	e0fffd17 	ldw	r3,-12(fp)
1000c8d4:	18800115 	stw	r2,4(r3)
      rc = 0;
1000c8d8:	e03ffb15 	stw	zero,-20(fp)
    }
    break;
1000c8dc:	00001006 	br	1000c920 <altera_avalon_jtag_uart_ioctl+0xd4>

  case TIOCGCONNECTED:
    /* Find out whether host is connected */
    if (sp->timeout != INT_MAX)
1000c8e0:	e0bffd17 	ldw	r2,-12(fp)
1000c8e4:	10c00117 	ldw	r3,4(r2)
1000c8e8:	00a00034 	movhi	r2,32768
1000c8ec:	10bfffc4 	addi	r2,r2,-1
1000c8f0:	18800d26 	beq	r3,r2,1000c928 <altera_avalon_jtag_uart_ioctl+0xdc>
    {
      *((int *)arg) = (sp->host_inactive < sp->timeout) ? 1 : 0;
1000c8f4:	e0bffd17 	ldw	r2,-12(fp)
1000c8f8:	10c00917 	ldw	r3,36(r2)
1000c8fc:	e0bffd17 	ldw	r2,-12(fp)
1000c900:	10800117 	ldw	r2,4(r2)
1000c904:	1885803a 	cmpltu	r2,r3,r2
1000c908:	10c03fcc 	andi	r3,r2,255
1000c90c:	e0bfff17 	ldw	r2,-4(fp)
1000c910:	10c00015 	stw	r3,0(r2)
      rc = 0;
1000c914:	e03ffb15 	stw	zero,-20(fp)
    }
    break;
1000c918:	00000306 	br	1000c928 <altera_avalon_jtag_uart_ioctl+0xdc>

  default:
    break;
1000c91c:	00000306 	br	1000c92c <altera_avalon_jtag_uart_ioctl+0xe0>
    {
      int timeout = *((int *)arg);
      sp->timeout = (timeout >= 2 && timeout < INT_MAX) ? timeout : INT_MAX - 1;
      rc = 0;
    }
    break;
1000c920:	0001883a 	nop
1000c924:	00000106 	br	1000c92c <altera_avalon_jtag_uart_ioctl+0xe0>
    if (sp->timeout != INT_MAX)
    {
      *((int *)arg) = (sp->host_inactive < sp->timeout) ? 1 : 0;
      rc = 0;
    }
    break;
1000c928:	0001883a 	nop

  default:
    break;
  }

  return rc;
1000c92c:	e0bffb17 	ldw	r2,-20(fp)
}
1000c930:	e037883a 	mov	sp,fp
1000c934:	df000017 	ldw	fp,0(sp)
1000c938:	dec00104 	addi	sp,sp,4
1000c93c:	f800283a 	ret

1000c940 <altera_avalon_jtag_uart_read>:
/* ----------------------------------------------------------- */

int 
altera_avalon_jtag_uart_read(altera_avalon_jtag_uart_state* sp, 
  char * buffer, int space, int flags)
{
1000c940:	defff304 	addi	sp,sp,-52
1000c944:	dfc00c15 	stw	ra,48(sp)
1000c948:	df000b15 	stw	fp,44(sp)
1000c94c:	df000b04 	addi	fp,sp,44
1000c950:	e13ffc15 	stw	r4,-16(fp)
1000c954:	e17ffd15 	stw	r5,-12(fp)
1000c958:	e1bffe15 	stw	r6,-8(fp)
1000c95c:	e1ffff15 	stw	r7,-4(fp)
  char * ptr = buffer;
1000c960:	e0bffd17 	ldw	r2,-12(fp)
1000c964:	e0bff515 	stw	r2,-44(fp)
   * When running in a multi threaded environment, obtain the "read_lock"
   * semaphore. This ensures that reading from the device is thread-safe.
   */
  ALT_SEM_PEND (sp->read_lock, 0);

  while (space > 0)
1000c968:	00004706 	br	1000ca88 <altera_avalon_jtag_uart_read+0x148>
    unsigned int in, out;

    /* Read as much data as possible */
    do
    {
      in  = sp->rx_in;
1000c96c:	e0bffc17 	ldw	r2,-16(fp)
1000c970:	10800a17 	ldw	r2,40(r2)
1000c974:	e0bff715 	stw	r2,-36(fp)
      out = sp->rx_out;
1000c978:	e0bffc17 	ldw	r2,-16(fp)
1000c97c:	10800b17 	ldw	r2,44(r2)
1000c980:	e0bff815 	stw	r2,-32(fp)

      if (in >= out)
1000c984:	e0fff717 	ldw	r3,-36(fp)
1000c988:	e0bff817 	ldw	r2,-32(fp)
1000c98c:	18800536 	bltu	r3,r2,1000c9a4 <altera_avalon_jtag_uart_read+0x64>
        n = in - out;
1000c990:	e0fff717 	ldw	r3,-36(fp)
1000c994:	e0bff817 	ldw	r2,-32(fp)
1000c998:	1885c83a 	sub	r2,r3,r2
1000c99c:	e0bff615 	stw	r2,-40(fp)
1000c9a0:	00000406 	br	1000c9b4 <altera_avalon_jtag_uart_read+0x74>
      else
        n = ALTERA_AVALON_JTAG_UART_BUF_LEN - out;
1000c9a4:	00c20004 	movi	r3,2048
1000c9a8:	e0bff817 	ldw	r2,-32(fp)
1000c9ac:	1885c83a 	sub	r2,r3,r2
1000c9b0:	e0bff615 	stw	r2,-40(fp)

      if (n == 0)
1000c9b4:	e0bff617 	ldw	r2,-40(fp)
1000c9b8:	10001e26 	beq	r2,zero,1000ca34 <altera_avalon_jtag_uart_read+0xf4>
        break; /* No more data available */

      if (n > space)
1000c9bc:	e0fffe17 	ldw	r3,-8(fp)
1000c9c0:	e0bff617 	ldw	r2,-40(fp)
1000c9c4:	1880022e 	bgeu	r3,r2,1000c9d0 <altera_avalon_jtag_uart_read+0x90>
        n = space;
1000c9c8:	e0bffe17 	ldw	r2,-8(fp)
1000c9cc:	e0bff615 	stw	r2,-40(fp)

      memcpy(ptr, sp->rx_buf + out, n);
1000c9d0:	e0bff817 	ldw	r2,-32(fp)
1000c9d4:	10800e04 	addi	r2,r2,56
1000c9d8:	e0fffc17 	ldw	r3,-16(fp)
1000c9dc:	1885883a 	add	r2,r3,r2
1000c9e0:	e13ff517 	ldw	r4,-44(fp)
1000c9e4:	100b883a 	mov	r5,r2
1000c9e8:	e1bff617 	ldw	r6,-40(fp)
1000c9ec:	00076100 	call	10007610 <memcpy>
      ptr   += n;
1000c9f0:	e0fff517 	ldw	r3,-44(fp)
1000c9f4:	e0bff617 	ldw	r2,-40(fp)
1000c9f8:	1885883a 	add	r2,r3,r2
1000c9fc:	e0bff515 	stw	r2,-44(fp)
      space -= n;
1000ca00:	e0fffe17 	ldw	r3,-8(fp)
1000ca04:	e0bff617 	ldw	r2,-40(fp)
1000ca08:	1885c83a 	sub	r2,r3,r2
1000ca0c:	e0bffe15 	stw	r2,-8(fp)

      sp->rx_out = (out + n) % ALTERA_AVALON_JTAG_UART_BUF_LEN;
1000ca10:	e0fff817 	ldw	r3,-32(fp)
1000ca14:	e0bff617 	ldw	r2,-40(fp)
1000ca18:	1885883a 	add	r2,r3,r2
1000ca1c:	10c1ffcc 	andi	r3,r2,2047
1000ca20:	e0bffc17 	ldw	r2,-16(fp)
1000ca24:	10c00b15 	stw	r3,44(r2)
    }
    while (space > 0);
1000ca28:	e0bffe17 	ldw	r2,-8(fp)
1000ca2c:	00bfcf16 	blt	zero,r2,1000c96c <__alt_data_end+0xf800c96c>
1000ca30:	00000106 	br	1000ca38 <altera_avalon_jtag_uart_read+0xf8>
        n = in - out;
      else
        n = ALTERA_AVALON_JTAG_UART_BUF_LEN - out;

      if (n == 0)
        break; /* No more data available */
1000ca34:	0001883a 	nop
      sp->rx_out = (out + n) % ALTERA_AVALON_JTAG_UART_BUF_LEN;
    }
    while (space > 0);

    /* If we read any data then return it */
    if (ptr != buffer)
1000ca38:	e0fff517 	ldw	r3,-44(fp)
1000ca3c:	e0bffd17 	ldw	r2,-12(fp)
1000ca40:	1880141e 	bne	r3,r2,1000ca94 <altera_avalon_jtag_uart_read+0x154>
      break;

    /* If in non-blocking mode then return error */
    if (flags & O_NONBLOCK)
1000ca44:	e0bfff17 	ldw	r2,-4(fp)
1000ca48:	1090000c 	andi	r2,r2,16384
1000ca4c:	1000131e 	bne	r2,zero,1000ca9c <altera_avalon_jtag_uart_read+0x15c>
      while (in == sp->rx_in && sp->host_inactive < sp->timeout)
        ;
    }
#else
    /* No OS: Always spin */
    while (in == sp->rx_in && sp->host_inactive < sp->timeout)
1000ca50:	0001883a 	nop
1000ca54:	e0bffc17 	ldw	r2,-16(fp)
1000ca58:	10c00a17 	ldw	r3,40(r2)
1000ca5c:	e0bff717 	ldw	r2,-36(fp)
1000ca60:	1880051e 	bne	r3,r2,1000ca78 <altera_avalon_jtag_uart_read+0x138>
1000ca64:	e0bffc17 	ldw	r2,-16(fp)
1000ca68:	10c00917 	ldw	r3,36(r2)
1000ca6c:	e0bffc17 	ldw	r2,-16(fp)
1000ca70:	10800117 	ldw	r2,4(r2)
1000ca74:	18bff736 	bltu	r3,r2,1000ca54 <__alt_data_end+0xf800ca54>
      ;
#endif /* __ucosii__ */

    if (in == sp->rx_in)
1000ca78:	e0bffc17 	ldw	r2,-16(fp)
1000ca7c:	10c00a17 	ldw	r3,40(r2)
1000ca80:	e0bff717 	ldw	r2,-36(fp)
1000ca84:	18800726 	beq	r3,r2,1000caa4 <altera_avalon_jtag_uart_read+0x164>
   * When running in a multi threaded environment, obtain the "read_lock"
   * semaphore. This ensures that reading from the device is thread-safe.
   */
  ALT_SEM_PEND (sp->read_lock, 0);

  while (space > 0)
1000ca88:	e0bffe17 	ldw	r2,-8(fp)
1000ca8c:	00bfb716 	blt	zero,r2,1000c96c <__alt_data_end+0xf800c96c>
1000ca90:	00000506 	br	1000caa8 <altera_avalon_jtag_uart_read+0x168>
    }
    while (space > 0);

    /* If we read any data then return it */
    if (ptr != buffer)
      break;
1000ca94:	0001883a 	nop
1000ca98:	00000306 	br	1000caa8 <altera_avalon_jtag_uart_read+0x168>

    /* If in non-blocking mode then return error */
    if (flags & O_NONBLOCK)
      break;
1000ca9c:	0001883a 	nop
1000caa0:	00000106 	br	1000caa8 <altera_avalon_jtag_uart_read+0x168>
    while (in == sp->rx_in && sp->host_inactive < sp->timeout)
      ;
#endif /* __ucosii__ */

    if (in == sp->rx_in)
      break;
1000caa4:	0001883a 	nop
   * semaphore so that other threads can access the buffer.
   */

  ALT_SEM_POST (sp->read_lock);

  if (ptr != buffer)
1000caa8:	e0fff517 	ldw	r3,-44(fp)
1000caac:	e0bffd17 	ldw	r2,-12(fp)
1000cab0:	18801726 	beq	r3,r2,1000cb10 <altera_avalon_jtag_uart_read+0x1d0>
static ALT_INLINE alt_irq_context ALT_ALWAYS_INLINE 
       alt_irq_disable_all (void)
{
  alt_irq_context context;

  NIOS2_READ_STATUS (context);
1000cab4:	0005303a 	rdctl	r2,status
1000cab8:	e0bffa15 	stw	r2,-24(fp)

  NIOS2_WRITE_STATUS (context & ~NIOS2_STATUS_PIE_MSK);
1000cabc:	e0fffa17 	ldw	r3,-24(fp)
1000cac0:	00bfff84 	movi	r2,-2
1000cac4:	1884703a 	and	r2,r3,r2
1000cac8:	1001703a 	wrctl	status,r2
  
  return context;
1000cacc:	e0bffa17 	ldw	r2,-24(fp)
  {
    /* If we read any data then there is space in the buffer so enable interrupts */
    context = alt_irq_disable_all();
1000cad0:	e0bff915 	stw	r2,-28(fp)
    sp->irq_enable |= ALTERA_AVALON_JTAG_UART_CONTROL_RE_MSK;
1000cad4:	e0bffc17 	ldw	r2,-16(fp)
1000cad8:	10800817 	ldw	r2,32(r2)
1000cadc:	10c00054 	ori	r3,r2,1
1000cae0:	e0bffc17 	ldw	r2,-16(fp)
1000cae4:	10c00815 	stw	r3,32(r2)
    IOWR_ALTERA_AVALON_JTAG_UART_CONTROL(sp->base, sp->irq_enable);
1000cae8:	e0bffc17 	ldw	r2,-16(fp)
1000caec:	10800017 	ldw	r2,0(r2)
1000caf0:	10800104 	addi	r2,r2,4
1000caf4:	e0fffc17 	ldw	r3,-16(fp)
1000caf8:	18c00817 	ldw	r3,32(r3)
1000cafc:	10c00035 	stwio	r3,0(r2)
1000cb00:	e0bff917 	ldw	r2,-28(fp)
1000cb04:	e0bffb15 	stw	r2,-20(fp)
  status &= ~NIOS2_STATUS_PIE_MSK;
  status |= (context & NIOS2_STATUS_PIE_MSK);
  
  NIOS2_WRITE_STATUS (status);
#else
  NIOS2_WRITE_STATUS (context);
1000cb08:	e0bffb17 	ldw	r2,-20(fp)
1000cb0c:	1001703a 	wrctl	status,r2
    alt_irq_enable_all(context);
  }

  if (ptr != buffer)
1000cb10:	e0fff517 	ldw	r3,-44(fp)
1000cb14:	e0bffd17 	ldw	r2,-12(fp)
1000cb18:	18800426 	beq	r3,r2,1000cb2c <altera_avalon_jtag_uart_read+0x1ec>
    return ptr - buffer;
1000cb1c:	e0fff517 	ldw	r3,-44(fp)
1000cb20:	e0bffd17 	ldw	r2,-12(fp)
1000cb24:	1885c83a 	sub	r2,r3,r2
1000cb28:	00000606 	br	1000cb44 <altera_avalon_jtag_uart_read+0x204>
  else if (flags & O_NONBLOCK)
1000cb2c:	e0bfff17 	ldw	r2,-4(fp)
1000cb30:	1090000c 	andi	r2,r2,16384
1000cb34:	10000226 	beq	r2,zero,1000cb40 <altera_avalon_jtag_uart_read+0x200>
    return -EWOULDBLOCK;
1000cb38:	00bffd44 	movi	r2,-11
1000cb3c:	00000106 	br	1000cb44 <altera_avalon_jtag_uart_read+0x204>
  else
    return -EIO;
1000cb40:	00bffec4 	movi	r2,-5
}
1000cb44:	e037883a 	mov	sp,fp
1000cb48:	dfc00117 	ldw	ra,4(sp)
1000cb4c:	df000017 	ldw	fp,0(sp)
1000cb50:	dec00204 	addi	sp,sp,8
1000cb54:	f800283a 	ret

1000cb58 <altera_avalon_jtag_uart_write>:
/* ----------------------------------------------------------- */

int 
altera_avalon_jtag_uart_write(altera_avalon_jtag_uart_state* sp, 
  const char * ptr, int count, int flags)
{
1000cb58:	defff304 	addi	sp,sp,-52
1000cb5c:	dfc00c15 	stw	ra,48(sp)
1000cb60:	df000b15 	stw	fp,44(sp)
1000cb64:	df000b04 	addi	fp,sp,44
1000cb68:	e13ffc15 	stw	r4,-16(fp)
1000cb6c:	e17ffd15 	stw	r5,-12(fp)
1000cb70:	e1bffe15 	stw	r6,-8(fp)
1000cb74:	e1ffff15 	stw	r7,-4(fp)
  /* Remove warning at optimisation level 03 by seting out to 0 */
  unsigned int in, out=0;
1000cb78:	e03ff515 	stw	zero,-44(fp)
  unsigned int n;
  alt_irq_context context;

  const char * start = ptr;
1000cb7c:	e0bffd17 	ldw	r2,-12(fp)
1000cb80:	e0bff715 	stw	r2,-36(fp)
  ALT_SEM_PEND (sp->write_lock, 0);

  do
  {
    /* Copy as much as we can into the transmit buffer */
    while (count > 0)
1000cb84:	00003706 	br	1000cc64 <altera_avalon_jtag_uart_write+0x10c>
    {
      /* We need a stable value of the out pointer to calculate the space available */
      in  = sp->tx_in;
1000cb88:	e0bffc17 	ldw	r2,-16(fp)
1000cb8c:	10800c17 	ldw	r2,48(r2)
1000cb90:	e0bff815 	stw	r2,-32(fp)
      out = sp->tx_out;
1000cb94:	e0bffc17 	ldw	r2,-16(fp)
1000cb98:	10800d17 	ldw	r2,52(r2)
1000cb9c:	e0bff515 	stw	r2,-44(fp)

      if (in < out)
1000cba0:	e0fff817 	ldw	r3,-32(fp)
1000cba4:	e0bff517 	ldw	r2,-44(fp)
1000cba8:	1880062e 	bgeu	r3,r2,1000cbc4 <altera_avalon_jtag_uart_write+0x6c>
        n = out - 1 - in;
1000cbac:	e0fff517 	ldw	r3,-44(fp)
1000cbb0:	e0bff817 	ldw	r2,-32(fp)
1000cbb4:	1885c83a 	sub	r2,r3,r2
1000cbb8:	10bfffc4 	addi	r2,r2,-1
1000cbbc:	e0bff615 	stw	r2,-40(fp)
1000cbc0:	00000b06 	br	1000cbf0 <altera_avalon_jtag_uart_write+0x98>
      else if (out > 0)
1000cbc4:	e0bff517 	ldw	r2,-44(fp)
1000cbc8:	10000526 	beq	r2,zero,1000cbe0 <altera_avalon_jtag_uart_write+0x88>
        n = ALTERA_AVALON_JTAG_UART_BUF_LEN - in;
1000cbcc:	00c20004 	movi	r3,2048
1000cbd0:	e0bff817 	ldw	r2,-32(fp)
1000cbd4:	1885c83a 	sub	r2,r3,r2
1000cbd8:	e0bff615 	stw	r2,-40(fp)
1000cbdc:	00000406 	br	1000cbf0 <altera_avalon_jtag_uart_write+0x98>
      else
        n = ALTERA_AVALON_JTAG_UART_BUF_LEN - 1 - in;
1000cbe0:	00c1ffc4 	movi	r3,2047
1000cbe4:	e0bff817 	ldw	r2,-32(fp)
1000cbe8:	1885c83a 	sub	r2,r3,r2
1000cbec:	e0bff615 	stw	r2,-40(fp)

      if (n == 0)
1000cbf0:	e0bff617 	ldw	r2,-40(fp)
1000cbf4:	10001e26 	beq	r2,zero,1000cc70 <altera_avalon_jtag_uart_write+0x118>
        break;

      if (n > count)
1000cbf8:	e0fffe17 	ldw	r3,-8(fp)
1000cbfc:	e0bff617 	ldw	r2,-40(fp)
1000cc00:	1880022e 	bgeu	r3,r2,1000cc0c <altera_avalon_jtag_uart_write+0xb4>
        n = count;
1000cc04:	e0bffe17 	ldw	r2,-8(fp)
1000cc08:	e0bff615 	stw	r2,-40(fp)

      memcpy(sp->tx_buf + in, ptr, n);
1000cc0c:	e0bff817 	ldw	r2,-32(fp)
1000cc10:	10820e04 	addi	r2,r2,2104
1000cc14:	e0fffc17 	ldw	r3,-16(fp)
1000cc18:	1885883a 	add	r2,r3,r2
1000cc1c:	1009883a 	mov	r4,r2
1000cc20:	e17ffd17 	ldw	r5,-12(fp)
1000cc24:	e1bff617 	ldw	r6,-40(fp)
1000cc28:	00076100 	call	10007610 <memcpy>
      ptr   += n;
1000cc2c:	e0fffd17 	ldw	r3,-12(fp)
1000cc30:	e0bff617 	ldw	r2,-40(fp)
1000cc34:	1885883a 	add	r2,r3,r2
1000cc38:	e0bffd15 	stw	r2,-12(fp)
      count -= n;
1000cc3c:	e0fffe17 	ldw	r3,-8(fp)
1000cc40:	e0bff617 	ldw	r2,-40(fp)
1000cc44:	1885c83a 	sub	r2,r3,r2
1000cc48:	e0bffe15 	stw	r2,-8(fp)

      sp->tx_in = (in + n) % ALTERA_AVALON_JTAG_UART_BUF_LEN;
1000cc4c:	e0fff817 	ldw	r3,-32(fp)
1000cc50:	e0bff617 	ldw	r2,-40(fp)
1000cc54:	1885883a 	add	r2,r3,r2
1000cc58:	10c1ffcc 	andi	r3,r2,2047
1000cc5c:	e0bffc17 	ldw	r2,-16(fp)
1000cc60:	10c00c15 	stw	r3,48(r2)
  ALT_SEM_PEND (sp->write_lock, 0);

  do
  {
    /* Copy as much as we can into the transmit buffer */
    while (count > 0)
1000cc64:	e0bffe17 	ldw	r2,-8(fp)
1000cc68:	00bfc716 	blt	zero,r2,1000cb88 <__alt_data_end+0xf800cb88>
1000cc6c:	00000106 	br	1000cc74 <altera_avalon_jtag_uart_write+0x11c>
        n = ALTERA_AVALON_JTAG_UART_BUF_LEN - in;
      else
        n = ALTERA_AVALON_JTAG_UART_BUF_LEN - 1 - in;

      if (n == 0)
        break;
1000cc70:	0001883a 	nop
static ALT_INLINE alt_irq_context ALT_ALWAYS_INLINE 
       alt_irq_disable_all (void)
{
  alt_irq_context context;

  NIOS2_READ_STATUS (context);
1000cc74:	0005303a 	rdctl	r2,status
1000cc78:	e0bffa15 	stw	r2,-24(fp)

  NIOS2_WRITE_STATUS (context & ~NIOS2_STATUS_PIE_MSK);
1000cc7c:	e0fffa17 	ldw	r3,-24(fp)
1000cc80:	00bfff84 	movi	r2,-2
1000cc84:	1884703a 	and	r2,r3,r2
1000cc88:	1001703a 	wrctl	status,r2
  
  return context;
1000cc8c:	e0bffa17 	ldw	r2,-24(fp)
     * to enable interrupts if there is no space left in the FIFO
     *
     * For now kick the interrupt routine every time to make it transmit 
     * the data 
     */
    context = alt_irq_disable_all();
1000cc90:	e0bff915 	stw	r2,-28(fp)
    sp->irq_enable |= ALTERA_AVALON_JTAG_UART_CONTROL_WE_MSK;
1000cc94:	e0bffc17 	ldw	r2,-16(fp)
1000cc98:	10800817 	ldw	r2,32(r2)
1000cc9c:	10c00094 	ori	r3,r2,2
1000cca0:	e0bffc17 	ldw	r2,-16(fp)
1000cca4:	10c00815 	stw	r3,32(r2)
    IOWR_ALTERA_AVALON_JTAG_UART_CONTROL(sp->base, sp->irq_enable);
1000cca8:	e0bffc17 	ldw	r2,-16(fp)
1000ccac:	10800017 	ldw	r2,0(r2)
1000ccb0:	10800104 	addi	r2,r2,4
1000ccb4:	e0fffc17 	ldw	r3,-16(fp)
1000ccb8:	18c00817 	ldw	r3,32(r3)
1000ccbc:	10c00035 	stwio	r3,0(r2)
1000ccc0:	e0bff917 	ldw	r2,-28(fp)
1000ccc4:	e0bffb15 	stw	r2,-20(fp)
  status &= ~NIOS2_STATUS_PIE_MSK;
  status |= (context & NIOS2_STATUS_PIE_MSK);
  
  NIOS2_WRITE_STATUS (status);
#else
  NIOS2_WRITE_STATUS (context);
1000ccc8:	e0bffb17 	ldw	r2,-20(fp)
1000cccc:	1001703a 	wrctl	status,r2
    /* 
     * If there is any data left then either return now or block until 
     * some has been sent 
     */
    /* consider: test whether there is anything there while doing this and delay for at most 2s. */
    if (count > 0)
1000ccd0:	e0bffe17 	ldw	r2,-8(fp)
1000ccd4:	0080100e 	bge	zero,r2,1000cd18 <altera_avalon_jtag_uart_write+0x1c0>
    {
      if (flags & O_NONBLOCK)
1000ccd8:	e0bfff17 	ldw	r2,-4(fp)
1000ccdc:	1090000c 	andi	r2,r2,16384
1000cce0:	1000101e 	bne	r2,zero,1000cd24 <altera_avalon_jtag_uart_write+0x1cc>
      /*
       * No OS present: Always wait for data to be removed from buffer.  Once
       * the interrupt routine has removed some data then we will be able to
       * insert some more.
       */
      while (out == sp->tx_out && sp->host_inactive < sp->timeout)
1000cce4:	0001883a 	nop
1000cce8:	e0bffc17 	ldw	r2,-16(fp)
1000ccec:	10c00d17 	ldw	r3,52(r2)
1000ccf0:	e0bff517 	ldw	r2,-44(fp)
1000ccf4:	1880051e 	bne	r3,r2,1000cd0c <altera_avalon_jtag_uart_write+0x1b4>
1000ccf8:	e0bffc17 	ldw	r2,-16(fp)
1000ccfc:	10c00917 	ldw	r3,36(r2)
1000cd00:	e0bffc17 	ldw	r2,-16(fp)
1000cd04:	10800117 	ldw	r2,4(r2)
1000cd08:	18bff736 	bltu	r3,r2,1000cce8 <__alt_data_end+0xf800cce8>
        ;
#endif /* __ucosii__ */

      if  (sp->host_inactive)
1000cd0c:	e0bffc17 	ldw	r2,-16(fp)
1000cd10:	10800917 	ldw	r2,36(r2)
1000cd14:	1000051e 	bne	r2,zero,1000cd2c <altera_avalon_jtag_uart_write+0x1d4>
         break;
    }
  }
  while (count > 0);
1000cd18:	e0bffe17 	ldw	r2,-8(fp)
1000cd1c:	00bfd116 	blt	zero,r2,1000cc64 <__alt_data_end+0xf800cc64>
1000cd20:	00000306 	br	1000cd30 <altera_avalon_jtag_uart_write+0x1d8>
     */
    /* consider: test whether there is anything there while doing this and delay for at most 2s. */
    if (count > 0)
    {
      if (flags & O_NONBLOCK)
        break;
1000cd24:	0001883a 	nop
1000cd28:	00000106 	br	1000cd30 <altera_avalon_jtag_uart_write+0x1d8>
      while (out == sp->tx_out && sp->host_inactive < sp->timeout)
        ;
#endif /* __ucosii__ */

      if  (sp->host_inactive)
         break;
1000cd2c:	0001883a 	nop
   * Now that access to the circular buffer is complete, release the write
   * semaphore so that other threads can access the buffer.
   */
  ALT_SEM_POST (sp->write_lock);

  if (ptr != start)
1000cd30:	e0fffd17 	ldw	r3,-12(fp)
1000cd34:	e0bff717 	ldw	r2,-36(fp)
1000cd38:	18800426 	beq	r3,r2,1000cd4c <altera_avalon_jtag_uart_write+0x1f4>
    return ptr - start;
1000cd3c:	e0fffd17 	ldw	r3,-12(fp)
1000cd40:	e0bff717 	ldw	r2,-36(fp)
1000cd44:	1885c83a 	sub	r2,r3,r2
1000cd48:	00000606 	br	1000cd64 <altera_avalon_jtag_uart_write+0x20c>
  else if (flags & O_NONBLOCK)
1000cd4c:	e0bfff17 	ldw	r2,-4(fp)
1000cd50:	1090000c 	andi	r2,r2,16384
1000cd54:	10000226 	beq	r2,zero,1000cd60 <altera_avalon_jtag_uart_write+0x208>
    return -EWOULDBLOCK;
1000cd58:	00bffd44 	movi	r2,-11
1000cd5c:	00000106 	br	1000cd64 <altera_avalon_jtag_uart_write+0x20c>
    sp->tx_out = sp->tx_in = 0;
    return ptr - start + count;
  }
#endif
  else
    return -EIO; /* Host not connected */
1000cd60:	00bffec4 	movi	r2,-5
}
1000cd64:	e037883a 	mov	sp,fp
1000cd68:	dfc00117 	ldw	ra,4(sp)
1000cd6c:	df000017 	ldw	fp,0(sp)
1000cd70:	dec00204 	addi	sp,sp,8
1000cd74:	f800283a 	ret

1000cd78 <alt_alarm_start>:
 */ 

int alt_alarm_start (alt_alarm* alarm, alt_u32 nticks,
                     alt_u32 (*callback) (void* context),
                     void* context)
{
1000cd78:	defff504 	addi	sp,sp,-44
1000cd7c:	df000a15 	stw	fp,40(sp)
1000cd80:	df000a04 	addi	fp,sp,40
1000cd84:	e13ffc15 	stw	r4,-16(fp)
1000cd88:	e17ffd15 	stw	r5,-12(fp)
1000cd8c:	e1bffe15 	stw	r6,-8(fp)
1000cd90:	e1ffff15 	stw	r7,-4(fp)
  alt_irq_context irq_context;
  alt_u32 current_nticks = 0;
1000cd94:	e03ff615 	stw	zero,-40(fp)
1000cd98:	00840074 	movhi	r2,4097
1000cd9c:	10880b04 	addi	r2,r2,8236
1000cda0:	10800017 	ldw	r2,0(r2)
  
  if (alt_ticks_per_second ())
1000cda4:	10003f26 	beq	r2,zero,1000cea4 <alt_alarm_start+0x12c>
  {
    if (alarm)
1000cda8:	e0bffc17 	ldw	r2,-16(fp)
1000cdac:	10003b26 	beq	r2,zero,1000ce9c <alt_alarm_start+0x124>
    {
      alarm->callback = callback;
1000cdb0:	e0bffc17 	ldw	r2,-16(fp)
1000cdb4:	e0fffe17 	ldw	r3,-8(fp)
1000cdb8:	10c00315 	stw	r3,12(r2)
      alarm->context  = context;
1000cdbc:	e0bffc17 	ldw	r2,-16(fp)
1000cdc0:	e0ffff17 	ldw	r3,-4(fp)
1000cdc4:	10c00515 	stw	r3,20(r2)
static ALT_INLINE alt_irq_context ALT_ALWAYS_INLINE 
       alt_irq_disable_all (void)
{
  alt_irq_context context;

  NIOS2_READ_STATUS (context);
1000cdc8:	0005303a 	rdctl	r2,status
1000cdcc:	e0bff815 	stw	r2,-32(fp)

  NIOS2_WRITE_STATUS (context & ~NIOS2_STATUS_PIE_MSK);
1000cdd0:	e0fff817 	ldw	r3,-32(fp)
1000cdd4:	00bfff84 	movi	r2,-2
1000cdd8:	1884703a 	and	r2,r3,r2
1000cddc:	1001703a 	wrctl	status,r2
  
  return context;
1000cde0:	e0bff817 	ldw	r2,-32(fp)
 
      irq_context = alt_irq_disable_all ();
1000cde4:	e0bff715 	stw	r2,-36(fp)
 * alt_nticks() returns the elapsed number of system clock ticks since reset.
 */

static ALT_INLINE alt_u32 ALT_ALWAYS_INLINE alt_nticks (void)
{
  return _alt_nticks;
1000cde8:	00840074 	movhi	r2,4097
1000cdec:	10880c04 	addi	r2,r2,8240
1000cdf0:	10800017 	ldw	r2,0(r2)
      
      current_nticks = alt_nticks();
1000cdf4:	e0bff615 	stw	r2,-40(fp)
      
      alarm->time = nticks + current_nticks + 1; 
1000cdf8:	e0fffd17 	ldw	r3,-12(fp)
1000cdfc:	e0bff617 	ldw	r2,-40(fp)
1000ce00:	1885883a 	add	r2,r3,r2
1000ce04:	10c00044 	addi	r3,r2,1
1000ce08:	e0bffc17 	ldw	r2,-16(fp)
1000ce0c:	10c00215 	stw	r3,8(r2)
      /* 
       * If the desired alarm time causes a roll-over, set the rollover
       * flag. This will prevent the subsequent tick event from causing
       * an alarm too early.
       */
      if(alarm->time < current_nticks)
1000ce10:	e0bffc17 	ldw	r2,-16(fp)
1000ce14:	10c00217 	ldw	r3,8(r2)
1000ce18:	e0bff617 	ldw	r2,-40(fp)
1000ce1c:	1880042e 	bgeu	r3,r2,1000ce30 <alt_alarm_start+0xb8>
      {
        alarm->rollover = 1;
1000ce20:	e0bffc17 	ldw	r2,-16(fp)
1000ce24:	00c00044 	movi	r3,1
1000ce28:	10c00405 	stb	r3,16(r2)
1000ce2c:	00000206 	br	1000ce38 <alt_alarm_start+0xc0>
      }
      else
      {
        alarm->rollover = 0;
1000ce30:	e0bffc17 	ldw	r2,-16(fp)
1000ce34:	10000405 	stb	zero,16(r2)
      }
    
      alt_llist_insert (&alt_alarm_list, &alarm->llist);
1000ce38:	e0bffc17 	ldw	r2,-16(fp)
1000ce3c:	00c40074 	movhi	r3,4097
1000ce40:	18c16704 	addi	r3,r3,1436
1000ce44:	e0fff915 	stw	r3,-28(fp)
1000ce48:	e0bffa15 	stw	r2,-24(fp)
 */

static ALT_INLINE void ALT_ALWAYS_INLINE alt_llist_insert(alt_llist* list, 
                alt_llist* entry)
{
  entry->previous = list;
1000ce4c:	e0bffa17 	ldw	r2,-24(fp)
1000ce50:	e0fff917 	ldw	r3,-28(fp)
1000ce54:	10c00115 	stw	r3,4(r2)
  entry->next     = list->next;
1000ce58:	e0bff917 	ldw	r2,-28(fp)
1000ce5c:	10c00017 	ldw	r3,0(r2)
1000ce60:	e0bffa17 	ldw	r2,-24(fp)
1000ce64:	10c00015 	stw	r3,0(r2)

  list->next->previous = entry;
1000ce68:	e0bff917 	ldw	r2,-28(fp)
1000ce6c:	10800017 	ldw	r2,0(r2)
1000ce70:	e0fffa17 	ldw	r3,-24(fp)
1000ce74:	10c00115 	stw	r3,4(r2)
  list->next           = entry;
1000ce78:	e0bff917 	ldw	r2,-28(fp)
1000ce7c:	e0fffa17 	ldw	r3,-24(fp)
1000ce80:	10c00015 	stw	r3,0(r2)
1000ce84:	e0bff717 	ldw	r2,-36(fp)
1000ce88:	e0bffb15 	stw	r2,-20(fp)
  status &= ~NIOS2_STATUS_PIE_MSK;
  status |= (context & NIOS2_STATUS_PIE_MSK);
  
  NIOS2_WRITE_STATUS (status);
#else
  NIOS2_WRITE_STATUS (context);
1000ce8c:	e0bffb17 	ldw	r2,-20(fp)
1000ce90:	1001703a 	wrctl	status,r2
      alt_irq_enable_all (irq_context);

      return 0;
1000ce94:	0005883a 	mov	r2,zero
1000ce98:	00000306 	br	1000cea8 <alt_alarm_start+0x130>
    }
    else
    {
      return -EINVAL;
1000ce9c:	00bffa84 	movi	r2,-22
1000cea0:	00000106 	br	1000cea8 <alt_alarm_start+0x130>
    }
  }
  else
  {
    return -ENOTSUP;
1000cea4:	00bfde84 	movi	r2,-134
  }
}
1000cea8:	e037883a 	mov	sp,fp
1000ceac:	df000017 	ldw	fp,0(sp)
1000ceb0:	dec00104 	addi	sp,sp,4
1000ceb4:	f800283a 	ret

1000ceb8 <alt_busy_sleep>:
#include "alt_types.h"

#include "priv/alt_busy_sleep.h"

unsigned int alt_busy_sleep (unsigned int us)
{
1000ceb8:	defffa04 	addi	sp,sp,-24
1000cebc:	dfc00515 	stw	ra,20(sp)
1000cec0:	df000415 	stw	fp,16(sp)
1000cec4:	df000404 	addi	fp,sp,16
1000cec8:	e13fff15 	stw	r4,-4(fp)
  int big_loops;
  alt_u32 cycles_per_loop;
  
  if (!strcmp(NIOS2_CPU_IMPLEMENTATION,"tiny"))
  {
    cycles_per_loop = 9;
1000cecc:	00800244 	movi	r2,9
1000ced0:	e0bffd15 	stw	r2,-12(fp)
    cycles_per_loop = 3;
  }
  

  big_loops = us / (INT_MAX/
  (ALT_CPU_FREQ/(cycles_per_loop * 1000000)));
1000ced4:	e13ffd17 	ldw	r4,-12(fp)
1000ced8:	014003f4 	movhi	r5,15
1000cedc:	29509004 	addi	r5,r5,16960
1000cee0:	000b2180 	call	1000b218 <__mulsi3>
1000cee4:	0100bef4 	movhi	r4,763
1000cee8:	213c2004 	addi	r4,r4,-3968
1000ceec:	100b883a 	mov	r5,r2
1000cef0:	000b2080 	call	1000b208 <__udivsi3>
  {
    cycles_per_loop = 3;
  }
  

  big_loops = us / (INT_MAX/
1000cef4:	01200034 	movhi	r4,32768
1000cef8:	213fffc4 	addi	r4,r4,-1
1000cefc:	100b883a 	mov	r5,r2
1000cf00:	000b2080 	call	1000b208 <__udivsi3>
1000cf04:	e13fff17 	ldw	r4,-4(fp)
1000cf08:	100b883a 	mov	r5,r2
1000cf0c:	000b2080 	call	1000b208 <__udivsi3>
1000cf10:	e0bffe15 	stw	r2,-8(fp)
  (ALT_CPU_FREQ/(cycles_per_loop * 1000000)));

  if (big_loops)
1000cf14:	e0bffe17 	ldw	r2,-8(fp)
1000cf18:	10002926 	beq	r2,zero,1000cfc0 <alt_busy_sleep+0x108>
  {
    for(i=0;i<big_loops;i++)
1000cf1c:	e03ffc15 	stw	zero,-16(fp)
1000cf20:	00001606 	br	1000cf7c <alt_busy_sleep+0xc4>
      /*
      * Do NOT Try to single step the asm statement below 
      * (single step will never return)
      * Step out of this function or set a breakpoint after the asm statements
      */
      __asm__ volatile (
1000cf24:	00a00034 	movhi	r2,32768
1000cf28:	10bfffc4 	addi	r2,r2,-1
1000cf2c:	10bfffc4 	addi	r2,r2,-1
1000cf30:	103ffe1e 	bne	r2,zero,1000cf2c <__alt_data_end+0xf800cf2c>
        "\n\t.pushsection .debug_alt_sim_info"
        "\n\t.int 4, 0, 0b, 1b"
        "\n\t.popsection"
        :: "r" (INT_MAX));
      us -= (INT_MAX/(ALT_CPU_FREQ/
      (cycles_per_loop * 1000000)));
1000cf34:	e13ffd17 	ldw	r4,-12(fp)
1000cf38:	014003f4 	movhi	r5,15
1000cf3c:	29509004 	addi	r5,r5,16960
1000cf40:	000b2180 	call	1000b218 <__mulsi3>
        "\n1:"
        "\n\t.pushsection .debug_alt_sim_info"
        "\n\t.int 4, 0, 0b, 1b"
        "\n\t.popsection"
        :: "r" (INT_MAX));
      us -= (INT_MAX/(ALT_CPU_FREQ/
1000cf44:	0100bef4 	movhi	r4,763
1000cf48:	213c2004 	addi	r4,r4,-3968
1000cf4c:	100b883a 	mov	r5,r2
1000cf50:	000b2080 	call	1000b208 <__udivsi3>
1000cf54:	01200034 	movhi	r4,32768
1000cf58:	213fffc4 	addi	r4,r4,-1
1000cf5c:	100b883a 	mov	r5,r2
1000cf60:	000b2080 	call	1000b208 <__udivsi3>
1000cf64:	e0ffff17 	ldw	r3,-4(fp)
1000cf68:	1885c83a 	sub	r2,r3,r2
1000cf6c:	e0bfff15 	stw	r2,-4(fp)
  big_loops = us / (INT_MAX/
  (ALT_CPU_FREQ/(cycles_per_loop * 1000000)));

  if (big_loops)
  {
    for(i=0;i<big_loops;i++)
1000cf70:	e0bffc17 	ldw	r2,-16(fp)
1000cf74:	10800044 	addi	r2,r2,1
1000cf78:	e0bffc15 	stw	r2,-16(fp)
1000cf7c:	e0fffc17 	ldw	r3,-16(fp)
1000cf80:	e0bffe17 	ldw	r2,-8(fp)
1000cf84:	18bfe716 	blt	r3,r2,1000cf24 <__alt_data_end+0xf800cf24>
      "\n\tbne %0,zero,0b"
      "\n1:"
      "\n\t.pushsection .debug_alt_sim_info"
      "\n\t.int 4, 0, 0b, 1b"
      "\n\t.popsection"
      :: "r" (us*(ALT_CPU_FREQ/(cycles_per_loop * 1000000))));
1000cf88:	e13ffd17 	ldw	r4,-12(fp)
1000cf8c:	014003f4 	movhi	r5,15
1000cf90:	29509004 	addi	r5,r5,16960
1000cf94:	000b2180 	call	1000b218 <__mulsi3>
1000cf98:	0100bef4 	movhi	r4,763
1000cf9c:	213c2004 	addi	r4,r4,-3968
1000cfa0:	100b883a 	mov	r5,r2
1000cfa4:	000b2080 	call	1000b208 <__udivsi3>
1000cfa8:	1009883a 	mov	r4,r2
1000cfac:	e17fff17 	ldw	r5,-4(fp)
1000cfb0:	000b2180 	call	1000b218 <__mulsi3>
    /*
    * Do NOT Try to single step the asm statement below 
    * (single step will never return)
    * Step out of this function or set a breakpoint after the asm statements
    */
    __asm__ volatile (
1000cfb4:	10bfffc4 	addi	r2,r2,-1
1000cfb8:	103ffe1e 	bne	r2,zero,1000cfb4 <__alt_data_end+0xf800cfb4>
1000cfbc:	00000d06 	br	1000cff4 <alt_busy_sleep+0x13c>
      "\n\tbgt %0,zero,0b"
      "\n1:"
      "\n\t.pushsection .debug_alt_sim_info"
      "\n\t.int 4, 0, 0b, 1b"
      "\n\t.popsection"
      :: "r" (us*(ALT_CPU_FREQ/(cycles_per_loop * 1000000))));
1000cfc0:	e13ffd17 	ldw	r4,-12(fp)
1000cfc4:	014003f4 	movhi	r5,15
1000cfc8:	29509004 	addi	r5,r5,16960
1000cfcc:	000b2180 	call	1000b218 <__mulsi3>
1000cfd0:	0100bef4 	movhi	r4,763
1000cfd4:	213c2004 	addi	r4,r4,-3968
1000cfd8:	100b883a 	mov	r5,r2
1000cfdc:	000b2080 	call	1000b208 <__udivsi3>
1000cfe0:	1009883a 	mov	r4,r2
1000cfe4:	e17fff17 	ldw	r5,-4(fp)
1000cfe8:	000b2180 	call	1000b218 <__mulsi3>
    /*
    * Do NOT Try to single step the asm statement below 
    * (single step will never return)
    * Step out of this function or set a breakpoint after the asm statements
    */
    __asm__ volatile (
1000cfec:	10bfffc4 	addi	r2,r2,-1
1000cff0:	00bffe16 	blt	zero,r2,1000cfec <__alt_data_end+0xf800cfec>
      "\n\t.int 4, 0, 0b, 1b"
      "\n\t.popsection"
      :: "r" (us*(ALT_CPU_FREQ/(cycles_per_loop * 1000000))));
  }
#endif /* #ifndef ALT_SIM_OPTIMIZE */
  return 0;
1000cff4:	0005883a 	mov	r2,zero
}
1000cff8:	e037883a 	mov	sp,fp
1000cffc:	dfc00117 	ldw	ra,4(sp)
1000d000:	df000017 	ldw	fp,0(sp)
1000d004:	dec00204 	addi	sp,sp,8
1000d008:	f800283a 	ret

1000d00c <alt_dcache_flush_all>:
/*
 * alt_dcache_flush_all() is called to flush the entire data cache.
 */

void alt_dcache_flush_all (void)
{
1000d00c:	deffff04 	addi	sp,sp,-4
1000d010:	df000015 	stw	fp,0(sp)
1000d014:	d839883a 	mov	fp,sp
  for (i = (char*) 0; i < (char*) NIOS2_DCACHE_SIZE; i+= NIOS2_DCACHE_LINE_SIZE)
  { 
    __asm__ volatile ("flushd (%0)" :: "r" (i));
  }
#endif /* NIOS2_DCACHE_SIZE > 0 */
}
1000d018:	e037883a 	mov	sp,fp
1000d01c:	df000017 	ldw	fp,0(sp)
1000d020:	dec00104 	addi	sp,sp,4
1000d024:	f800283a 	ret

1000d028 <alt_get_errno>:
#undef errno

extern int errno;

static ALT_INLINE int* alt_get_errno(void)
{
1000d028:	defffe04 	addi	sp,sp,-8
1000d02c:	dfc00115 	stw	ra,4(sp)
1000d030:	df000015 	stw	fp,0(sp)
1000d034:	d839883a 	mov	fp,sp
  return ((alt_errno) ? alt_errno() : &errno);
1000d038:	00840074 	movhi	r2,4097
1000d03c:	10816404 	addi	r2,r2,1424
1000d040:	10800017 	ldw	r2,0(r2)
1000d044:	10000526 	beq	r2,zero,1000d05c <alt_get_errno+0x34>
1000d048:	00840074 	movhi	r2,4097
1000d04c:	10816404 	addi	r2,r2,1424
1000d050:	10800017 	ldw	r2,0(r2)
1000d054:	103ee83a 	callr	r2
1000d058:	00000206 	br	1000d064 <alt_get_errno+0x3c>
1000d05c:	00840074 	movhi	r2,4097
1000d060:	10880604 	addi	r2,r2,8216
}
1000d064:	e037883a 	mov	sp,fp
1000d068:	dfc00117 	ldw	ra,4(sp)
1000d06c:	df000017 	ldw	fp,0(sp)
1000d070:	dec00204 	addi	sp,sp,8
1000d074:	f800283a 	ret

1000d078 <alt_dev_llist_insert>:
/*
 *
 */

int alt_dev_llist_insert (alt_dev_llist* dev, alt_llist* list)
{
1000d078:	defffa04 	addi	sp,sp,-24
1000d07c:	dfc00515 	stw	ra,20(sp)
1000d080:	df000415 	stw	fp,16(sp)
1000d084:	df000404 	addi	fp,sp,16
1000d088:	e13ffe15 	stw	r4,-8(fp)
1000d08c:	e17fff15 	stw	r5,-4(fp)
  /*
   * check that the device exists, and that it has a valid name.
   */

  if (!dev || !dev->name)
1000d090:	e0bffe17 	ldw	r2,-8(fp)
1000d094:	10000326 	beq	r2,zero,1000d0a4 <alt_dev_llist_insert+0x2c>
1000d098:	e0bffe17 	ldw	r2,-8(fp)
1000d09c:	10800217 	ldw	r2,8(r2)
1000d0a0:	1000051e 	bne	r2,zero,1000d0b8 <alt_dev_llist_insert+0x40>
  {
    ALT_ERRNO = EINVAL;
1000d0a4:	000d0280 	call	1000d028 <alt_get_errno>
1000d0a8:	00c00584 	movi	r3,22
1000d0ac:	10c00015 	stw	r3,0(r2)
    return -EINVAL;
1000d0b0:	00bffa84 	movi	r2,-22
1000d0b4:	00001306 	br	1000d104 <alt_dev_llist_insert+0x8c>
  
  /*
   * register the device.
   */
  
  alt_llist_insert(list, &dev->llist);
1000d0b8:	e0bffe17 	ldw	r2,-8(fp)
1000d0bc:	e0ffff17 	ldw	r3,-4(fp)
1000d0c0:	e0fffc15 	stw	r3,-16(fp)
1000d0c4:	e0bffd15 	stw	r2,-12(fp)
 */

static ALT_INLINE void ALT_ALWAYS_INLINE alt_llist_insert(alt_llist* list, 
                alt_llist* entry)
{
  entry->previous = list;
1000d0c8:	e0bffd17 	ldw	r2,-12(fp)
1000d0cc:	e0fffc17 	ldw	r3,-16(fp)
1000d0d0:	10c00115 	stw	r3,4(r2)
  entry->next     = list->next;
1000d0d4:	e0bffc17 	ldw	r2,-16(fp)
1000d0d8:	10c00017 	ldw	r3,0(r2)
1000d0dc:	e0bffd17 	ldw	r2,-12(fp)
1000d0e0:	10c00015 	stw	r3,0(r2)

  list->next->previous = entry;
1000d0e4:	e0bffc17 	ldw	r2,-16(fp)
1000d0e8:	10800017 	ldw	r2,0(r2)
1000d0ec:	e0fffd17 	ldw	r3,-12(fp)
1000d0f0:	10c00115 	stw	r3,4(r2)
  list->next           = entry;
1000d0f4:	e0bffc17 	ldw	r2,-16(fp)
1000d0f8:	e0fffd17 	ldw	r3,-12(fp)
1000d0fc:	10c00015 	stw	r3,0(r2)

  return 0;  
1000d100:	0005883a 	mov	r2,zero
}
1000d104:	e037883a 	mov	sp,fp
1000d108:	dfc00117 	ldw	ra,4(sp)
1000d10c:	df000017 	ldw	fp,0(sp)
1000d110:	dec00204 	addi	sp,sp,8
1000d114:	f800283a 	ret

1000d118 <_do_ctors>:
/*
 * Run the C++ static constructors.
 */

void _do_ctors(void)
{
1000d118:	defffd04 	addi	sp,sp,-12
1000d11c:	dfc00215 	stw	ra,8(sp)
1000d120:	df000115 	stw	fp,4(sp)
1000d124:	df000104 	addi	fp,sp,4
  constructor* ctor;

  for (ctor = &__CTOR_END__[-1]; ctor >= __CTOR_LIST__; ctor--)
1000d128:	00840074 	movhi	r2,4097
1000d12c:	10b82a04 	addi	r2,r2,-8024
1000d130:	e0bfff15 	stw	r2,-4(fp)
1000d134:	00000606 	br	1000d150 <_do_ctors+0x38>
        (*ctor) (); 
1000d138:	e0bfff17 	ldw	r2,-4(fp)
1000d13c:	10800017 	ldw	r2,0(r2)
1000d140:	103ee83a 	callr	r2

void _do_ctors(void)
{
  constructor* ctor;

  for (ctor = &__CTOR_END__[-1]; ctor >= __CTOR_LIST__; ctor--)
1000d144:	e0bfff17 	ldw	r2,-4(fp)
1000d148:	10bfff04 	addi	r2,r2,-4
1000d14c:	e0bfff15 	stw	r2,-4(fp)
1000d150:	e0ffff17 	ldw	r3,-4(fp)
1000d154:	00840074 	movhi	r2,4097
1000d158:	10b82b04 	addi	r2,r2,-8020
1000d15c:	18bff62e 	bgeu	r3,r2,1000d138 <__alt_data_end+0xf800d138>
        (*ctor) (); 
}
1000d160:	e037883a 	mov	sp,fp
1000d164:	dfc00117 	ldw	ra,4(sp)
1000d168:	df000017 	ldw	fp,0(sp)
1000d16c:	dec00204 	addi	sp,sp,8
1000d170:	f800283a 	ret

1000d174 <_do_dtors>:
/*
 * Run the C++ static destructors.
 */

void _do_dtors(void)
{
1000d174:	defffd04 	addi	sp,sp,-12
1000d178:	dfc00215 	stw	ra,8(sp)
1000d17c:	df000115 	stw	fp,4(sp)
1000d180:	df000104 	addi	fp,sp,4
  destructor* dtor;

  for (dtor = &__DTOR_END__[-1]; dtor >= __DTOR_LIST__; dtor--)
1000d184:	00840074 	movhi	r2,4097
1000d188:	10b82a04 	addi	r2,r2,-8024
1000d18c:	e0bfff15 	stw	r2,-4(fp)
1000d190:	00000606 	br	1000d1ac <_do_dtors+0x38>
        (*dtor) (); 
1000d194:	e0bfff17 	ldw	r2,-4(fp)
1000d198:	10800017 	ldw	r2,0(r2)
1000d19c:	103ee83a 	callr	r2

void _do_dtors(void)
{
  destructor* dtor;

  for (dtor = &__DTOR_END__[-1]; dtor >= __DTOR_LIST__; dtor--)
1000d1a0:	e0bfff17 	ldw	r2,-4(fp)
1000d1a4:	10bfff04 	addi	r2,r2,-4
1000d1a8:	e0bfff15 	stw	r2,-4(fp)
1000d1ac:	e0ffff17 	ldw	r3,-4(fp)
1000d1b0:	00840074 	movhi	r2,4097
1000d1b4:	10b82b04 	addi	r2,r2,-8020
1000d1b8:	18bff62e 	bgeu	r3,r2,1000d194 <__alt_data_end+0xf800d194>
        (*dtor) (); 
}
1000d1bc:	e037883a 	mov	sp,fp
1000d1c0:	dfc00117 	ldw	ra,4(sp)
1000d1c4:	df000017 	ldw	fp,0(sp)
1000d1c8:	dec00204 	addi	sp,sp,8
1000d1cc:	f800283a 	ret

1000d1d0 <alt_icache_flush_all>:
/*
 * alt_icache_flush_all() is called to flush the entire instruction cache.
 */

void alt_icache_flush_all (void)
{
1000d1d0:	deffff04 	addi	sp,sp,-4
1000d1d4:	df000015 	stw	fp,0(sp)
1000d1d8:	d839883a 	mov	fp,sp
#if NIOS2_ICACHE_SIZE > 0
  alt_icache_flush (0, NIOS2_ICACHE_SIZE);
#endif
}
1000d1dc:	e037883a 	mov	sp,fp
1000d1e0:	df000017 	ldw	fp,0(sp)
1000d1e4:	dec00104 	addi	sp,sp,4
1000d1e8:	f800283a 	ret

1000d1ec <alt_ic_isr_register>:
  * @param irq              IRQ number
  * @return                 0 if successful, else error (-1)
  */
int alt_ic_isr_register(alt_u32 ic_id, alt_u32 irq, alt_isr_func isr, 
  void *isr_context, void *flags)
{
1000d1ec:	defff904 	addi	sp,sp,-28
1000d1f0:	dfc00615 	stw	ra,24(sp)
1000d1f4:	df000515 	stw	fp,20(sp)
1000d1f8:	df000504 	addi	fp,sp,20
1000d1fc:	e13ffc15 	stw	r4,-16(fp)
1000d200:	e17ffd15 	stw	r5,-12(fp)
1000d204:	e1bffe15 	stw	r6,-8(fp)
1000d208:	e1ffff15 	stw	r7,-4(fp)
    return alt_iic_isr_register(ic_id, irq, isr, isr_context, flags);
1000d20c:	e0800217 	ldw	r2,8(fp)
1000d210:	d8800015 	stw	r2,0(sp)
1000d214:	e13ffc17 	ldw	r4,-16(fp)
1000d218:	e17ffd17 	ldw	r5,-12(fp)
1000d21c:	e1bffe17 	ldw	r6,-8(fp)
1000d220:	e1ffff17 	ldw	r7,-4(fp)
1000d224:	000d3c40 	call	1000d3c4 <alt_iic_isr_register>
}  
1000d228:	e037883a 	mov	sp,fp
1000d22c:	dfc00117 	ldw	ra,4(sp)
1000d230:	df000017 	ldw	fp,0(sp)
1000d234:	dec00204 	addi	sp,sp,8
1000d238:	f800283a 	ret

1000d23c <alt_ic_irq_enable>:
  * @param ic_id            Ignored.
  * @param irq              IRQ number
  * @return                 0 if successful, else error (-1)
  */
int alt_ic_irq_enable (alt_u32 ic_id, alt_u32 irq)
{
1000d23c:	defff904 	addi	sp,sp,-28
1000d240:	df000615 	stw	fp,24(sp)
1000d244:	df000604 	addi	fp,sp,24
1000d248:	e13ffe15 	stw	r4,-8(fp)
1000d24c:	e17fff15 	stw	r5,-4(fp)
1000d250:	e0bfff17 	ldw	r2,-4(fp)
1000d254:	e0bffa15 	stw	r2,-24(fp)
static ALT_INLINE alt_irq_context ALT_ALWAYS_INLINE 
       alt_irq_disable_all (void)
{
  alt_irq_context context;

  NIOS2_READ_STATUS (context);
1000d258:	0005303a 	rdctl	r2,status
1000d25c:	e0bffb15 	stw	r2,-20(fp)

  NIOS2_WRITE_STATUS (context & ~NIOS2_STATUS_PIE_MSK);
1000d260:	e0fffb17 	ldw	r3,-20(fp)
1000d264:	00bfff84 	movi	r2,-2
1000d268:	1884703a 	and	r2,r3,r2
1000d26c:	1001703a 	wrctl	status,r2
  
  return context;
1000d270:	e0bffb17 	ldw	r2,-20(fp)
static ALT_INLINE int ALT_ALWAYS_INLINE alt_irq_enable (alt_u32 id)
{
  alt_irq_context  status;
  extern volatile alt_u32 alt_irq_active;

  status = alt_irq_disable_all ();
1000d274:	e0bffc15 	stw	r2,-16(fp)

  alt_irq_active |= (1 << id);
1000d278:	e0bffa17 	ldw	r2,-24(fp)
1000d27c:	00c00044 	movi	r3,1
1000d280:	1884983a 	sll	r2,r3,r2
1000d284:	1007883a 	mov	r3,r2
1000d288:	00840074 	movhi	r2,4097
1000d28c:	10880a04 	addi	r2,r2,8232
1000d290:	10800017 	ldw	r2,0(r2)
1000d294:	1886b03a 	or	r3,r3,r2
1000d298:	00840074 	movhi	r2,4097
1000d29c:	10880a04 	addi	r2,r2,8232
1000d2a0:	10c00015 	stw	r3,0(r2)
  NIOS2_WRITE_IENABLE (alt_irq_active);
1000d2a4:	00840074 	movhi	r2,4097
1000d2a8:	10880a04 	addi	r2,r2,8232
1000d2ac:	10800017 	ldw	r2,0(r2)
1000d2b0:	100170fa 	wrctl	ienable,r2
1000d2b4:	e0bffc17 	ldw	r2,-16(fp)
1000d2b8:	e0bffd15 	stw	r2,-12(fp)
  status &= ~NIOS2_STATUS_PIE_MSK;
  status |= (context & NIOS2_STATUS_PIE_MSK);
  
  NIOS2_WRITE_STATUS (status);
#else
  NIOS2_WRITE_STATUS (context);
1000d2bc:	e0bffd17 	ldw	r2,-12(fp)
1000d2c0:	1001703a 	wrctl	status,r2

  alt_irq_enable_all(status);

  return 0;
1000d2c4:	0005883a 	mov	r2,zero
    return alt_irq_enable(irq);
}
1000d2c8:	e037883a 	mov	sp,fp
1000d2cc:	df000017 	ldw	fp,0(sp)
1000d2d0:	dec00104 	addi	sp,sp,4
1000d2d4:	f800283a 	ret

1000d2d8 <alt_ic_irq_disable>:
  * @param ic_id            Ignored.
  * @param irq              IRQ number
  * @return                 0 if successful, else error (-1)
  */
int alt_ic_irq_disable(alt_u32 ic_id, alt_u32 irq)
{
1000d2d8:	defff904 	addi	sp,sp,-28
1000d2dc:	df000615 	stw	fp,24(sp)
1000d2e0:	df000604 	addi	fp,sp,24
1000d2e4:	e13ffe15 	stw	r4,-8(fp)
1000d2e8:	e17fff15 	stw	r5,-4(fp)
1000d2ec:	e0bfff17 	ldw	r2,-4(fp)
1000d2f0:	e0bffa15 	stw	r2,-24(fp)
static ALT_INLINE alt_irq_context ALT_ALWAYS_INLINE 
       alt_irq_disable_all (void)
{
  alt_irq_context context;

  NIOS2_READ_STATUS (context);
1000d2f4:	0005303a 	rdctl	r2,status
1000d2f8:	e0bffb15 	stw	r2,-20(fp)

  NIOS2_WRITE_STATUS (context & ~NIOS2_STATUS_PIE_MSK);
1000d2fc:	e0fffb17 	ldw	r3,-20(fp)
1000d300:	00bfff84 	movi	r2,-2
1000d304:	1884703a 	and	r2,r3,r2
1000d308:	1001703a 	wrctl	status,r2
  
  return context;
1000d30c:	e0bffb17 	ldw	r2,-20(fp)
static ALT_INLINE int ALT_ALWAYS_INLINE alt_irq_disable (alt_u32 id)
{
  alt_irq_context  status;
  extern volatile alt_u32 alt_irq_active;

  status = alt_irq_disable_all ();
1000d310:	e0bffc15 	stw	r2,-16(fp)

  alt_irq_active &= ~(1 << id);
1000d314:	e0bffa17 	ldw	r2,-24(fp)
1000d318:	00c00044 	movi	r3,1
1000d31c:	1884983a 	sll	r2,r3,r2
1000d320:	0084303a 	nor	r2,zero,r2
1000d324:	1007883a 	mov	r3,r2
1000d328:	00840074 	movhi	r2,4097
1000d32c:	10880a04 	addi	r2,r2,8232
1000d330:	10800017 	ldw	r2,0(r2)
1000d334:	1886703a 	and	r3,r3,r2
1000d338:	00840074 	movhi	r2,4097
1000d33c:	10880a04 	addi	r2,r2,8232
1000d340:	10c00015 	stw	r3,0(r2)
  NIOS2_WRITE_IENABLE (alt_irq_active);
1000d344:	00840074 	movhi	r2,4097
1000d348:	10880a04 	addi	r2,r2,8232
1000d34c:	10800017 	ldw	r2,0(r2)
1000d350:	100170fa 	wrctl	ienable,r2
1000d354:	e0bffc17 	ldw	r2,-16(fp)
1000d358:	e0bffd15 	stw	r2,-12(fp)
  status &= ~NIOS2_STATUS_PIE_MSK;
  status |= (context & NIOS2_STATUS_PIE_MSK);
  
  NIOS2_WRITE_STATUS (status);
#else
  NIOS2_WRITE_STATUS (context);
1000d35c:	e0bffd17 	ldw	r2,-12(fp)
1000d360:	1001703a 	wrctl	status,r2

  alt_irq_enable_all(status);

  return 0;
1000d364:	0005883a 	mov	r2,zero
    return alt_irq_disable(irq);
}
1000d368:	e037883a 	mov	sp,fp
1000d36c:	df000017 	ldw	fp,0(sp)
1000d370:	dec00104 	addi	sp,sp,4
1000d374:	f800283a 	ret

1000d378 <alt_ic_irq_enabled>:
  * @param irq              IRQ number
  * @return                 Zero if corresponding interrupt is disabled and
  *                         non-zero otherwise.
  */
alt_u32 alt_ic_irq_enabled(alt_u32 ic_id, alt_u32 irq)
{
1000d378:	defffc04 	addi	sp,sp,-16
1000d37c:	df000315 	stw	fp,12(sp)
1000d380:	df000304 	addi	fp,sp,12
1000d384:	e13ffe15 	stw	r4,-8(fp)
1000d388:	e17fff15 	stw	r5,-4(fp)
    alt_u32 irq_enabled;

    NIOS2_READ_IENABLE(irq_enabled);
1000d38c:	000530fa 	rdctl	r2,ienable
1000d390:	e0bffd15 	stw	r2,-12(fp)

    return (irq_enabled & (1 << irq)) ? 1: 0;
1000d394:	e0bfff17 	ldw	r2,-4(fp)
1000d398:	00c00044 	movi	r3,1
1000d39c:	1884983a 	sll	r2,r3,r2
1000d3a0:	1007883a 	mov	r3,r2
1000d3a4:	e0bffd17 	ldw	r2,-12(fp)
1000d3a8:	1884703a 	and	r2,r3,r2
1000d3ac:	1004c03a 	cmpne	r2,r2,zero
1000d3b0:	10803fcc 	andi	r2,r2,255
}
1000d3b4:	e037883a 	mov	sp,fp
1000d3b8:	df000017 	ldw	fp,0(sp)
1000d3bc:	dec00104 	addi	sp,sp,4
1000d3c0:	f800283a 	ret

1000d3c4 <alt_iic_isr_register>:
  * @param flags            
  * @return                 0 if successful, else error (-1)
  */
int alt_iic_isr_register(alt_u32 ic_id, alt_u32 irq, alt_isr_func isr, 
  void *isr_context, void *flags)
{
1000d3c4:	defff504 	addi	sp,sp,-44
1000d3c8:	dfc00a15 	stw	ra,40(sp)
1000d3cc:	df000915 	stw	fp,36(sp)
1000d3d0:	df000904 	addi	fp,sp,36
1000d3d4:	e13ffc15 	stw	r4,-16(fp)
1000d3d8:	e17ffd15 	stw	r5,-12(fp)
1000d3dc:	e1bffe15 	stw	r6,-8(fp)
1000d3e0:	e1ffff15 	stw	r7,-4(fp)
  int rc = -EINVAL;  
1000d3e4:	00bffa84 	movi	r2,-22
1000d3e8:	e0bff715 	stw	r2,-36(fp)
  int id = irq;             /* IRQ interpreted as the interrupt ID. */
1000d3ec:	e0bffd17 	ldw	r2,-12(fp)
1000d3f0:	e0bff815 	stw	r2,-32(fp)
  alt_irq_context status;

  if (id < ALT_NIRQ)
1000d3f4:	e0bff817 	ldw	r2,-32(fp)
1000d3f8:	10800808 	cmpgei	r2,r2,32
1000d3fc:	1000271e 	bne	r2,zero,1000d49c <alt_iic_isr_register+0xd8>
static ALT_INLINE alt_irq_context ALT_ALWAYS_INLINE 
       alt_irq_disable_all (void)
{
  alt_irq_context context;

  NIOS2_READ_STATUS (context);
1000d400:	0005303a 	rdctl	r2,status
1000d404:	e0bffa15 	stw	r2,-24(fp)

  NIOS2_WRITE_STATUS (context & ~NIOS2_STATUS_PIE_MSK);
1000d408:	e0fffa17 	ldw	r3,-24(fp)
1000d40c:	00bfff84 	movi	r2,-2
1000d410:	1884703a 	and	r2,r3,r2
1000d414:	1001703a 	wrctl	status,r2
  
  return context;
1000d418:	e0bffa17 	ldw	r2,-24(fp)
     * interrupts are disabled while the handler tables are updated to ensure
     * that an interrupt doesn't occur while the tables are in an inconsistant
     * state.
     */

    status = alt_irq_disable_all();
1000d41c:	e0bff915 	stw	r2,-28(fp)

    alt_irq[id].handler = isr;
1000d420:	00c40074 	movhi	r3,4097
1000d424:	18c81704 	addi	r3,r3,8284
1000d428:	e0bff817 	ldw	r2,-32(fp)
1000d42c:	100490fa 	slli	r2,r2,3
1000d430:	1885883a 	add	r2,r3,r2
1000d434:	e0fffe17 	ldw	r3,-8(fp)
1000d438:	10c00015 	stw	r3,0(r2)
    alt_irq[id].context = isr_context;
1000d43c:	00c40074 	movhi	r3,4097
1000d440:	18c81704 	addi	r3,r3,8284
1000d444:	e0bff817 	ldw	r2,-32(fp)
1000d448:	100490fa 	slli	r2,r2,3
1000d44c:	1885883a 	add	r2,r3,r2
1000d450:	10800104 	addi	r2,r2,4
1000d454:	e0ffff17 	ldw	r3,-4(fp)
1000d458:	10c00015 	stw	r3,0(r2)

    rc = (isr) ? alt_ic_irq_enable(ic_id, id) : alt_ic_irq_disable(ic_id, id);
1000d45c:	e0bffe17 	ldw	r2,-8(fp)
1000d460:	10000526 	beq	r2,zero,1000d478 <alt_iic_isr_register+0xb4>
1000d464:	e0bff817 	ldw	r2,-32(fp)
1000d468:	e13ffc17 	ldw	r4,-16(fp)
1000d46c:	100b883a 	mov	r5,r2
1000d470:	000d23c0 	call	1000d23c <alt_ic_irq_enable>
1000d474:	00000406 	br	1000d488 <alt_iic_isr_register+0xc4>
1000d478:	e0bff817 	ldw	r2,-32(fp)
1000d47c:	e13ffc17 	ldw	r4,-16(fp)
1000d480:	100b883a 	mov	r5,r2
1000d484:	000d2d80 	call	1000d2d8 <alt_ic_irq_disable>
1000d488:	e0bff715 	stw	r2,-36(fp)
1000d48c:	e0bff917 	ldw	r2,-28(fp)
1000d490:	e0bffb15 	stw	r2,-20(fp)
  status &= ~NIOS2_STATUS_PIE_MSK;
  status |= (context & NIOS2_STATUS_PIE_MSK);
  
  NIOS2_WRITE_STATUS (status);
#else
  NIOS2_WRITE_STATUS (context);
1000d494:	e0bffb17 	ldw	r2,-20(fp)
1000d498:	1001703a 	wrctl	status,r2

    alt_irq_enable_all(status);
  }

  return rc; 
1000d49c:	e0bff717 	ldw	r2,-36(fp)
}
1000d4a0:	e037883a 	mov	sp,fp
1000d4a4:	dfc00117 	ldw	ra,4(sp)
1000d4a8:	df000017 	ldw	fp,0(sp)
1000d4ac:	dec00204 	addi	sp,sp,8
1000d4b0:	f800283a 	ret

1000d4b4 <alt_open_fd>:
 * If the device can not be succesfully opened, then the input file descriptor
 * remains unchanged.
 */

static void alt_open_fd(alt_fd* fd, const char* name, int flags, int mode)
{
1000d4b4:	defff804 	addi	sp,sp,-32
1000d4b8:	dfc00715 	stw	ra,28(sp)
1000d4bc:	df000615 	stw	fp,24(sp)
1000d4c0:	dc000515 	stw	r16,20(sp)
1000d4c4:	df000504 	addi	fp,sp,20
1000d4c8:	e13ffc15 	stw	r4,-16(fp)
1000d4cc:	e17ffd15 	stw	r5,-12(fp)
1000d4d0:	e1bffe15 	stw	r6,-8(fp)
1000d4d4:	e1ffff15 	stw	r7,-4(fp)
  int old;

  old = open (name, flags, mode);
1000d4d8:	e13ffd17 	ldw	r4,-12(fp)
1000d4dc:	e17ffe17 	ldw	r5,-8(fp)
1000d4e0:	e1bfff17 	ldw	r6,-4(fp)
1000d4e4:	000d74c0 	call	1000d74c <open>
1000d4e8:	e0bffb15 	stw	r2,-20(fp)

  if (old >= 0)
1000d4ec:	e0bffb17 	ldw	r2,-20(fp)
1000d4f0:	10002216 	blt	r2,zero,1000d57c <alt_open_fd+0xc8>
  {
    fd->dev      = alt_fd_list[old].dev;
1000d4f4:	04040074 	movhi	r16,4097
1000d4f8:	843ce204 	addi	r16,r16,-3192
1000d4fc:	e0bffb17 	ldw	r2,-20(fp)
1000d500:	1009883a 	mov	r4,r2
1000d504:	01400304 	movi	r5,12
1000d508:	000b2180 	call	1000b218 <__mulsi3>
1000d50c:	8085883a 	add	r2,r16,r2
1000d510:	10c00017 	ldw	r3,0(r2)
1000d514:	e0bffc17 	ldw	r2,-16(fp)
1000d518:	10c00015 	stw	r3,0(r2)
    fd->priv     = alt_fd_list[old].priv;
1000d51c:	04040074 	movhi	r16,4097
1000d520:	843ce204 	addi	r16,r16,-3192
1000d524:	e0bffb17 	ldw	r2,-20(fp)
1000d528:	1009883a 	mov	r4,r2
1000d52c:	01400304 	movi	r5,12
1000d530:	000b2180 	call	1000b218 <__mulsi3>
1000d534:	8085883a 	add	r2,r16,r2
1000d538:	10800104 	addi	r2,r2,4
1000d53c:	10c00017 	ldw	r3,0(r2)
1000d540:	e0bffc17 	ldw	r2,-16(fp)
1000d544:	10c00115 	stw	r3,4(r2)
    fd->fd_flags = alt_fd_list[old].fd_flags;
1000d548:	04040074 	movhi	r16,4097
1000d54c:	843ce204 	addi	r16,r16,-3192
1000d550:	e0bffb17 	ldw	r2,-20(fp)
1000d554:	1009883a 	mov	r4,r2
1000d558:	01400304 	movi	r5,12
1000d55c:	000b2180 	call	1000b218 <__mulsi3>
1000d560:	8085883a 	add	r2,r16,r2
1000d564:	10800204 	addi	r2,r2,8
1000d568:	10c00017 	ldw	r3,0(r2)
1000d56c:	e0bffc17 	ldw	r2,-16(fp)
1000d570:	10c00215 	stw	r3,8(r2)

    alt_release_fd (old);
1000d574:	e13ffb17 	ldw	r4,-20(fp)
1000d578:	000bfc40 	call	1000bfc4 <alt_release_fd>
  }
} 
1000d57c:	e037883a 	mov	sp,fp
1000d580:	dfc00217 	ldw	ra,8(sp)
1000d584:	df000117 	ldw	fp,4(sp)
1000d588:	dc000017 	ldw	r16,0(sp)
1000d58c:	dec00304 	addi	sp,sp,12
1000d590:	f800283a 	ret

1000d594 <alt_io_redirect>:
 */
 
void alt_io_redirect(const char* stdout_dev, 
                     const char* stdin_dev, 
                     const char* stderr_dev)
{
1000d594:	defffb04 	addi	sp,sp,-20
1000d598:	dfc00415 	stw	ra,16(sp)
1000d59c:	df000315 	stw	fp,12(sp)
1000d5a0:	df000304 	addi	fp,sp,12
1000d5a4:	e13ffd15 	stw	r4,-12(fp)
1000d5a8:	e17ffe15 	stw	r5,-8(fp)
1000d5ac:	e1bfff15 	stw	r6,-4(fp)
  /* Redirect the channels */

  alt_open_fd (&alt_fd_list[STDOUT_FILENO], stdout_dev, O_WRONLY, 0777);
1000d5b0:	01040074 	movhi	r4,4097
1000d5b4:	213ce504 	addi	r4,r4,-3180
1000d5b8:	e17ffd17 	ldw	r5,-12(fp)
1000d5bc:	01800044 	movi	r6,1
1000d5c0:	01c07fc4 	movi	r7,511
1000d5c4:	000d4b40 	call	1000d4b4 <alt_open_fd>
  alt_open_fd (&alt_fd_list[STDIN_FILENO], stdin_dev, O_RDONLY, 0777);
1000d5c8:	01040074 	movhi	r4,4097
1000d5cc:	213ce204 	addi	r4,r4,-3192
1000d5d0:	e17ffe17 	ldw	r5,-8(fp)
1000d5d4:	000d883a 	mov	r6,zero
1000d5d8:	01c07fc4 	movi	r7,511
1000d5dc:	000d4b40 	call	1000d4b4 <alt_open_fd>
  alt_open_fd (&alt_fd_list[STDERR_FILENO], stderr_dev, O_WRONLY, 0777);
1000d5e0:	01040074 	movhi	r4,4097
1000d5e4:	213ce804 	addi	r4,r4,-3168
1000d5e8:	e17fff17 	ldw	r5,-4(fp)
1000d5ec:	01800044 	movi	r6,1
1000d5f0:	01c07fc4 	movi	r7,511
1000d5f4:	000d4b40 	call	1000d4b4 <alt_open_fd>
}  
1000d5f8:	e037883a 	mov	sp,fp
1000d5fc:	dfc00117 	ldw	ra,4(sp)
1000d600:	df000017 	ldw	fp,0(sp)
1000d604:	dec00204 	addi	sp,sp,8
1000d608:	f800283a 	ret

1000d60c <alt_get_errno>:
#undef errno

extern int errno;

static ALT_INLINE int* alt_get_errno(void)
{
1000d60c:	defffe04 	addi	sp,sp,-8
1000d610:	dfc00115 	stw	ra,4(sp)
1000d614:	df000015 	stw	fp,0(sp)
1000d618:	d839883a 	mov	fp,sp
  return ((alt_errno) ? alt_errno() : &errno);
1000d61c:	00840074 	movhi	r2,4097
1000d620:	10816404 	addi	r2,r2,1424
1000d624:	10800017 	ldw	r2,0(r2)
1000d628:	10000526 	beq	r2,zero,1000d640 <alt_get_errno+0x34>
1000d62c:	00840074 	movhi	r2,4097
1000d630:	10816404 	addi	r2,r2,1424
1000d634:	10800017 	ldw	r2,0(r2)
1000d638:	103ee83a 	callr	r2
1000d63c:	00000206 	br	1000d648 <alt_get_errno+0x3c>
1000d640:	00840074 	movhi	r2,4097
1000d644:	10880604 	addi	r2,r2,8216
}
1000d648:	e037883a 	mov	sp,fp
1000d64c:	dfc00117 	ldw	ra,4(sp)
1000d650:	df000017 	ldw	fp,0(sp)
1000d654:	dec00204 	addi	sp,sp,8
1000d658:	f800283a 	ret

1000d65c <alt_file_locked>:
 * performed for devices. Filesystems are required to handle the ioctl() call
 * themselves, and report the error from the filesystems open() function. 
 */ 

static int alt_file_locked (alt_fd* fd)
{
1000d65c:	defffb04 	addi	sp,sp,-20
1000d660:	dfc00415 	stw	ra,16(sp)
1000d664:	df000315 	stw	fp,12(sp)
1000d668:	dc000215 	stw	r16,8(sp)
1000d66c:	df000204 	addi	fp,sp,8
1000d670:	e13fff15 	stw	r4,-4(fp)

  /*
   * Mark the file descriptor as belonging to a device.
   */

  fd->fd_flags |= ALT_FD_DEV;
1000d674:	e0bfff17 	ldw	r2,-4(fp)
1000d678:	10800217 	ldw	r2,8(r2)
1000d67c:	10d00034 	orhi	r3,r2,16384
1000d680:	e0bfff17 	ldw	r2,-4(fp)
1000d684:	10c00215 	stw	r3,8(r2)
  /*
   * Loop through all current file descriptors searching for one that's locked
   * for exclusive access. If a match is found, generate an error.
   */

  for (i = 0; i <= alt_max_fd; i++)
1000d688:	e03ffe15 	stw	zero,-8(fp)
1000d68c:	00002206 	br	1000d718 <alt_file_locked+0xbc>
  {
    if ((alt_fd_list[i].dev == fd->dev) &&
1000d690:	04040074 	movhi	r16,4097
1000d694:	843ce204 	addi	r16,r16,-3192
1000d698:	e0bffe17 	ldw	r2,-8(fp)
1000d69c:	1009883a 	mov	r4,r2
1000d6a0:	01400304 	movi	r5,12
1000d6a4:	000b2180 	call	1000b218 <__mulsi3>
1000d6a8:	8085883a 	add	r2,r16,r2
1000d6ac:	10c00017 	ldw	r3,0(r2)
1000d6b0:	e0bfff17 	ldw	r2,-4(fp)
1000d6b4:	10800017 	ldw	r2,0(r2)
1000d6b8:	1880141e 	bne	r3,r2,1000d70c <alt_file_locked+0xb0>
        (alt_fd_list[i].fd_flags & ALT_FD_EXCL) &&
1000d6bc:	04040074 	movhi	r16,4097
1000d6c0:	843ce204 	addi	r16,r16,-3192
1000d6c4:	e0bffe17 	ldw	r2,-8(fp)
1000d6c8:	1009883a 	mov	r4,r2
1000d6cc:	01400304 	movi	r5,12
1000d6d0:	000b2180 	call	1000b218 <__mulsi3>
1000d6d4:	8085883a 	add	r2,r16,r2
1000d6d8:	10800204 	addi	r2,r2,8
1000d6dc:	10800017 	ldw	r2,0(r2)
   * for exclusive access. If a match is found, generate an error.
   */

  for (i = 0; i <= alt_max_fd; i++)
  {
    if ((alt_fd_list[i].dev == fd->dev) &&
1000d6e0:	10000a0e 	bge	r2,zero,1000d70c <alt_file_locked+0xb0>
        (alt_fd_list[i].fd_flags & ALT_FD_EXCL) &&
        (&alt_fd_list[i] != fd))
1000d6e4:	e13ffe17 	ldw	r4,-8(fp)
1000d6e8:	01400304 	movi	r5,12
1000d6ec:	000b2180 	call	1000b218 <__mulsi3>
1000d6f0:	00c40074 	movhi	r3,4097
1000d6f4:	18fce204 	addi	r3,r3,-3192
1000d6f8:	10c7883a 	add	r3,r2,r3
   */

  for (i = 0; i <= alt_max_fd; i++)
  {
    if ((alt_fd_list[i].dev == fd->dev) &&
        (alt_fd_list[i].fd_flags & ALT_FD_EXCL) &&
1000d6fc:	e0bfff17 	ldw	r2,-4(fp)
1000d700:	18800226 	beq	r3,r2,1000d70c <alt_file_locked+0xb0>
        (&alt_fd_list[i] != fd))
    {
      return -EACCES;
1000d704:	00bffcc4 	movi	r2,-13
1000d708:	00000a06 	br	1000d734 <alt_file_locked+0xd8>
  /*
   * Loop through all current file descriptors searching for one that's locked
   * for exclusive access. If a match is found, generate an error.
   */

  for (i = 0; i <= alt_max_fd; i++)
1000d70c:	e0bffe17 	ldw	r2,-8(fp)
1000d710:	10800044 	addi	r2,r2,1
1000d714:	e0bffe15 	stw	r2,-8(fp)
1000d718:	00840074 	movhi	r2,4097
1000d71c:	10816304 	addi	r2,r2,1420
1000d720:	10800017 	ldw	r2,0(r2)
1000d724:	1007883a 	mov	r3,r2
1000d728:	e0bffe17 	ldw	r2,-8(fp)
1000d72c:	18bfd82e 	bgeu	r3,r2,1000d690 <__alt_data_end+0xf800d690>
    }
  }
  
  /* The device is not locked */
 
  return 0;
1000d730:	0005883a 	mov	r2,zero
}
1000d734:	e037883a 	mov	sp,fp
1000d738:	dfc00217 	ldw	ra,8(sp)
1000d73c:	df000117 	ldw	fp,4(sp)
1000d740:	dc000017 	ldw	r16,0(sp)
1000d744:	dec00304 	addi	sp,sp,12
1000d748:	f800283a 	ret

1000d74c <open>:
 *
 * ALT_OPEN is mapped onto the open() system call in alt_syscall.h
 */
 
int ALT_OPEN (const char* file, int flags, int mode)
{ 
1000d74c:	defff604 	addi	sp,sp,-40
1000d750:	dfc00915 	stw	ra,36(sp)
1000d754:	df000815 	stw	fp,32(sp)
1000d758:	df000804 	addi	fp,sp,32
1000d75c:	e13ffd15 	stw	r4,-12(fp)
1000d760:	e17ffe15 	stw	r5,-8(fp)
1000d764:	e1bfff15 	stw	r6,-4(fp)
  alt_dev* dev;
  alt_fd*  fd;
  int index  = -1;
1000d768:	00bfffc4 	movi	r2,-1
1000d76c:	e0bff915 	stw	r2,-28(fp)
  int status = -ENODEV;
1000d770:	00bffb44 	movi	r2,-19
1000d774:	e0bffa15 	stw	r2,-24(fp)
  int isafs = 0;
1000d778:	e03ffb15 	stw	zero,-20(fp)
  /* 
   * Check the device list, to see if a device with a matching name is 
   * registered.
   */
  
  if (!(dev = alt_find_dev (file, &alt_dev_list)))
1000d77c:	e13ffd17 	ldw	r4,-12(fp)
1000d780:	01440074 	movhi	r5,4097
1000d784:	29416104 	addi	r5,r5,1412
1000d788:	000da600 	call	1000da60 <alt_find_dev>
1000d78c:	e0bff815 	stw	r2,-32(fp)
1000d790:	e0bff817 	ldw	r2,-32(fp)
1000d794:	1000051e 	bne	r2,zero,1000d7ac <open+0x60>
  {
    /* No matching device, so try the filesystem list */

    dev   = alt_find_file (file);
1000d798:	e13ffd17 	ldw	r4,-12(fp)
1000d79c:	000daf00 	call	1000daf0 <alt_find_file>
1000d7a0:	e0bff815 	stw	r2,-32(fp)
    isafs = 1;
1000d7a4:	00800044 	movi	r2,1
1000d7a8:	e0bffb15 	stw	r2,-20(fp)

  /* 
   * If a matching device or filesystem is found, allocate a file descriptor. 
   */

  if (dev)
1000d7ac:	e0bff817 	ldw	r2,-32(fp)
1000d7b0:	10002a26 	beq	r2,zero,1000d85c <open+0x110>
  {
    if ((index = alt_get_fd (dev)) < 0)
1000d7b4:	e13ff817 	ldw	r4,-32(fp)
1000d7b8:	000dc040 	call	1000dc04 <alt_get_fd>
1000d7bc:	e0bff915 	stw	r2,-28(fp)
1000d7c0:	e0bff917 	ldw	r2,-28(fp)
1000d7c4:	1000030e 	bge	r2,zero,1000d7d4 <open+0x88>
    {
      status = index;
1000d7c8:	e0bff917 	ldw	r2,-28(fp)
1000d7cc:	e0bffa15 	stw	r2,-24(fp)
1000d7d0:	00002406 	br	1000d864 <open+0x118>
    }
    else
    {
      fd = &alt_fd_list[index];
1000d7d4:	e13ff917 	ldw	r4,-28(fp)
1000d7d8:	01400304 	movi	r5,12
1000d7dc:	000b2180 	call	1000b218 <__mulsi3>
1000d7e0:	00c40074 	movhi	r3,4097
1000d7e4:	18fce204 	addi	r3,r3,-3192
1000d7e8:	10c5883a 	add	r2,r2,r3
1000d7ec:	e0bffc15 	stw	r2,-16(fp)
      fd->fd_flags = (flags & ~ALT_FD_FLAGS_MASK);
1000d7f0:	e0fffe17 	ldw	r3,-8(fp)
1000d7f4:	00900034 	movhi	r2,16384
1000d7f8:	10bfffc4 	addi	r2,r2,-1
1000d7fc:	1886703a 	and	r3,r3,r2
1000d800:	e0bffc17 	ldw	r2,-16(fp)
1000d804:	10c00215 	stw	r3,8(r2)
      
      /* If this is a device, ensure it isn't already locked */

      if (isafs || ((status = alt_file_locked (fd)) >= 0))
1000d808:	e0bffb17 	ldw	r2,-20(fp)
1000d80c:	1000051e 	bne	r2,zero,1000d824 <open+0xd8>
1000d810:	e13ffc17 	ldw	r4,-16(fp)
1000d814:	000d65c0 	call	1000d65c <alt_file_locked>
1000d818:	e0bffa15 	stw	r2,-24(fp)
1000d81c:	e0bffa17 	ldw	r2,-24(fp)
1000d820:	10001016 	blt	r2,zero,1000d864 <open+0x118>
        /* 
         * If the device or filesystem provides an open() callback function,
         * call it now to perform any device/filesystem specific operations.
         */
    
        status = (dev->open) ? dev->open(fd, file, flags, mode): 0;
1000d824:	e0bff817 	ldw	r2,-32(fp)
1000d828:	10800317 	ldw	r2,12(r2)
1000d82c:	10000826 	beq	r2,zero,1000d850 <open+0x104>
1000d830:	e0bff817 	ldw	r2,-32(fp)
1000d834:	10800317 	ldw	r2,12(r2)
1000d838:	e13ffc17 	ldw	r4,-16(fp)
1000d83c:	e17ffd17 	ldw	r5,-12(fp)
1000d840:	e1bffe17 	ldw	r6,-8(fp)
1000d844:	e1ffff17 	ldw	r7,-4(fp)
1000d848:	103ee83a 	callr	r2
1000d84c:	00000106 	br	1000d854 <open+0x108>
1000d850:	0005883a 	mov	r2,zero
1000d854:	e0bffa15 	stw	r2,-24(fp)
1000d858:	00000206 	br	1000d864 <open+0x118>
      }
    }
  }
  else
  {
    status = -ENODEV;
1000d85c:	00bffb44 	movi	r2,-19
1000d860:	e0bffa15 	stw	r2,-24(fp)
  }

  /* Allocation failed, so clean up and return an error */ 

  if (status < 0)
1000d864:	e0bffa17 	ldw	r2,-24(fp)
1000d868:	1000080e 	bge	r2,zero,1000d88c <open+0x140>
  {
    alt_release_fd (index);  
1000d86c:	e13ff917 	ldw	r4,-28(fp)
1000d870:	000bfc40 	call	1000bfc4 <alt_release_fd>
    ALT_ERRNO = -status;
1000d874:	000d60c0 	call	1000d60c <alt_get_errno>
1000d878:	e0fffa17 	ldw	r3,-24(fp)
1000d87c:	00c7c83a 	sub	r3,zero,r3
1000d880:	10c00015 	stw	r3,0(r2)
    return -1;
1000d884:	00bfffc4 	movi	r2,-1
1000d888:	00000106 	br	1000d890 <open+0x144>
  }
  
  /* return the reference upon success */

  return index;
1000d88c:	e0bff917 	ldw	r2,-28(fp)
}
1000d890:	e037883a 	mov	sp,fp
1000d894:	dfc00117 	ldw	ra,4(sp)
1000d898:	df000017 	ldw	fp,0(sp)
1000d89c:	dec00204 	addi	sp,sp,8
1000d8a0:	f800283a 	ret

1000d8a4 <alt_alarm_stop>:
 * alarms. Alternatively an alarm can unregister itself by returning zero when 
 * the alarm executes.
 */

void alt_alarm_stop (alt_alarm* alarm)
{
1000d8a4:	defffa04 	addi	sp,sp,-24
1000d8a8:	df000515 	stw	fp,20(sp)
1000d8ac:	df000504 	addi	fp,sp,20
1000d8b0:	e13fff15 	stw	r4,-4(fp)
static ALT_INLINE alt_irq_context ALT_ALWAYS_INLINE 
       alt_irq_disable_all (void)
{
  alt_irq_context context;

  NIOS2_READ_STATUS (context);
1000d8b4:	0005303a 	rdctl	r2,status
1000d8b8:	e0bffc15 	stw	r2,-16(fp)

  NIOS2_WRITE_STATUS (context & ~NIOS2_STATUS_PIE_MSK);
1000d8bc:	e0fffc17 	ldw	r3,-16(fp)
1000d8c0:	00bfff84 	movi	r2,-2
1000d8c4:	1884703a 	and	r2,r3,r2
1000d8c8:	1001703a 	wrctl	status,r2
  
  return context;
1000d8cc:	e0bffc17 	ldw	r2,-16(fp)
  alt_irq_context irq_context;

  irq_context = alt_irq_disable_all();
1000d8d0:	e0bffb15 	stw	r2,-20(fp)
  alt_llist_remove (&alarm->llist);
1000d8d4:	e0bfff17 	ldw	r2,-4(fp)
1000d8d8:	e0bffd15 	stw	r2,-12(fp)
 * input argument is the element to remove.
 */
     
static ALT_INLINE void ALT_ALWAYS_INLINE alt_llist_remove(alt_llist* entry)
{
  entry->next->previous = entry->previous;
1000d8dc:	e0bffd17 	ldw	r2,-12(fp)
1000d8e0:	10800017 	ldw	r2,0(r2)
1000d8e4:	e0fffd17 	ldw	r3,-12(fp)
1000d8e8:	18c00117 	ldw	r3,4(r3)
1000d8ec:	10c00115 	stw	r3,4(r2)
  entry->previous->next = entry->next;
1000d8f0:	e0bffd17 	ldw	r2,-12(fp)
1000d8f4:	10800117 	ldw	r2,4(r2)
1000d8f8:	e0fffd17 	ldw	r3,-12(fp)
1000d8fc:	18c00017 	ldw	r3,0(r3)
1000d900:	10c00015 	stw	r3,0(r2)
  /* 
   * Set the entry to point to itself, so that any further calls to
   * alt_llist_remove() are harmless.
   */

  entry->previous = entry;
1000d904:	e0bffd17 	ldw	r2,-12(fp)
1000d908:	e0fffd17 	ldw	r3,-12(fp)
1000d90c:	10c00115 	stw	r3,4(r2)
  entry->next     = entry;
1000d910:	e0bffd17 	ldw	r2,-12(fp)
1000d914:	e0fffd17 	ldw	r3,-12(fp)
1000d918:	10c00015 	stw	r3,0(r2)
1000d91c:	e0bffb17 	ldw	r2,-20(fp)
1000d920:	e0bffe15 	stw	r2,-8(fp)
  status &= ~NIOS2_STATUS_PIE_MSK;
  status |= (context & NIOS2_STATUS_PIE_MSK);
  
  NIOS2_WRITE_STATUS (status);
#else
  NIOS2_WRITE_STATUS (context);
1000d924:	e0bffe17 	ldw	r2,-8(fp)
1000d928:	1001703a 	wrctl	status,r2
  alt_irq_enable_all (irq_context);
}
1000d92c:	e037883a 	mov	sp,fp
1000d930:	df000017 	ldw	fp,0(sp)
1000d934:	dec00104 	addi	sp,sp,4
1000d938:	f800283a 	ret

1000d93c <alt_tick>:
 * 
 * alt_tick() is expected to run at interrupt level.
 */

void alt_tick (void)
{
1000d93c:	defffb04 	addi	sp,sp,-20
1000d940:	dfc00415 	stw	ra,16(sp)
1000d944:	df000315 	stw	fp,12(sp)
1000d948:	df000304 	addi	fp,sp,12
  alt_alarm* next;
  alt_alarm* alarm = (alt_alarm*) alt_alarm_list.next;
1000d94c:	d0a00d17 	ldw	r2,-32716(gp)
1000d950:	e0bffd15 	stw	r2,-12(fp)

  alt_u32    next_callback;

  /* update the tick counter */

  _alt_nticks++;
1000d954:	d0a6b217 	ldw	r2,-25912(gp)
1000d958:	10800044 	addi	r2,r2,1
1000d95c:	d0a6b215 	stw	r2,-25912(gp)

  /* process the registered callbacks */

  while (alarm != (alt_alarm*) &alt_alarm_list)
1000d960:	00002e06 	br	1000da1c <alt_tick+0xe0>
  {
    next = (alt_alarm*) alarm->llist.next;
1000d964:	e0bffd17 	ldw	r2,-12(fp)
1000d968:	10800017 	ldw	r2,0(r2)
1000d96c:	e0bffe15 	stw	r2,-8(fp)
    /* 
     * Upon the tick-counter rolling over it is safe to clear the 
     * roll-over flag; once the flag is cleared this (or subsequnt)
     * tick events are enabled to generate an alarm event. 
     */
    if ((alarm->rollover) && (_alt_nticks == 0))
1000d970:	e0bffd17 	ldw	r2,-12(fp)
1000d974:	10800403 	ldbu	r2,16(r2)
1000d978:	10803fcc 	andi	r2,r2,255
1000d97c:	10000426 	beq	r2,zero,1000d990 <alt_tick+0x54>
1000d980:	d0a6b217 	ldw	r2,-25912(gp)
1000d984:	1000021e 	bne	r2,zero,1000d990 <alt_tick+0x54>
    {
      alarm->rollover = 0;
1000d988:	e0bffd17 	ldw	r2,-12(fp)
1000d98c:	10000405 	stb	zero,16(r2)
    }
    
    /* if the alarm period has expired, make the callback */    
    if ((alarm->time <= _alt_nticks) && (alarm->rollover == 0))
1000d990:	e0bffd17 	ldw	r2,-12(fp)
1000d994:	10800217 	ldw	r2,8(r2)
1000d998:	d0e6b217 	ldw	r3,-25912(gp)
1000d99c:	18801d36 	bltu	r3,r2,1000da14 <alt_tick+0xd8>
1000d9a0:	e0bffd17 	ldw	r2,-12(fp)
1000d9a4:	10800403 	ldbu	r2,16(r2)
1000d9a8:	10803fcc 	andi	r2,r2,255
1000d9ac:	1000191e 	bne	r2,zero,1000da14 <alt_tick+0xd8>
    {
      next_callback = alarm->callback (alarm->context);
1000d9b0:	e0bffd17 	ldw	r2,-12(fp)
1000d9b4:	10c00317 	ldw	r3,12(r2)
1000d9b8:	e0bffd17 	ldw	r2,-12(fp)
1000d9bc:	10800517 	ldw	r2,20(r2)
1000d9c0:	1009883a 	mov	r4,r2
1000d9c4:	183ee83a 	callr	r3
1000d9c8:	e0bfff15 	stw	r2,-4(fp)

      /* deactivate the alarm if the return value is zero */

      if (next_callback == 0)
1000d9cc:	e0bfff17 	ldw	r2,-4(fp)
1000d9d0:	1000031e 	bne	r2,zero,1000d9e0 <alt_tick+0xa4>
      {
        alt_alarm_stop (alarm);
1000d9d4:	e13ffd17 	ldw	r4,-12(fp)
1000d9d8:	000d8a40 	call	1000d8a4 <alt_alarm_stop>
1000d9dc:	00000d06 	br	1000da14 <alt_tick+0xd8>
      }
      else
      {
        alarm->time += next_callback;
1000d9e0:	e0bffd17 	ldw	r2,-12(fp)
1000d9e4:	10c00217 	ldw	r3,8(r2)
1000d9e8:	e0bfff17 	ldw	r2,-4(fp)
1000d9ec:	1887883a 	add	r3,r3,r2
1000d9f0:	e0bffd17 	ldw	r2,-12(fp)
1000d9f4:	10c00215 	stw	r3,8(r2)
        /* 
         * If the desired alarm time causes a roll-over, set the rollover
         * flag. This will prevent the subsequent tick event from causing
         * an alarm too early.
         */
        if(alarm->time < _alt_nticks)
1000d9f8:	e0bffd17 	ldw	r2,-12(fp)
1000d9fc:	10c00217 	ldw	r3,8(r2)
1000da00:	d0a6b217 	ldw	r2,-25912(gp)
1000da04:	1880032e 	bgeu	r3,r2,1000da14 <alt_tick+0xd8>
        {
          alarm->rollover = 1;
1000da08:	e0bffd17 	ldw	r2,-12(fp)
1000da0c:	00c00044 	movi	r3,1
1000da10:	10c00405 	stb	r3,16(r2)
        }
      }
    }
    alarm = next;
1000da14:	e0bffe17 	ldw	r2,-8(fp)
1000da18:	e0bffd15 	stw	r2,-12(fp)

  _alt_nticks++;

  /* process the registered callbacks */

  while (alarm != (alt_alarm*) &alt_alarm_list)
1000da1c:	e0fffd17 	ldw	r3,-12(fp)
1000da20:	d0a00d04 	addi	r2,gp,-32716
1000da24:	18bfcf1e 	bne	r3,r2,1000d964 <__alt_data_end+0xf800d964>

  /* 
   * Update the operating system specific timer facilities.
   */

  ALT_OS_TIME_TICK();
1000da28:	0001883a 	nop
}
1000da2c:	e037883a 	mov	sp,fp
1000da30:	dfc00117 	ldw	ra,4(sp)
1000da34:	df000017 	ldw	fp,0(sp)
1000da38:	dec00204 	addi	sp,sp,8
1000da3c:	f800283a 	ret

1000da40 <altera_nios2_qsys_irq_init>:
/*
 * To initialize the internal interrupt controller, just clear the IENABLE
 * register so that all possible IRQs are disabled.
 */
void altera_nios2_qsys_irq_init(void) 
{
1000da40:	deffff04 	addi	sp,sp,-4
1000da44:	df000015 	stw	fp,0(sp)
1000da48:	d839883a 	mov	fp,sp
    NIOS2_WRITE_IENABLE(0);
1000da4c:	000170fa 	wrctl	ienable,zero
}
1000da50:	e037883a 	mov	sp,fp
1000da54:	df000017 	ldw	fp,0(sp)
1000da58:	dec00104 	addi	sp,sp,4
1000da5c:	f800283a 	ret

1000da60 <alt_find_dev>:
 * "name" must be an exact match for the devices registered name for a match to
 * be found.
 */
 
alt_dev* alt_find_dev(const char* name, alt_llist* llist)
{
1000da60:	defffa04 	addi	sp,sp,-24
1000da64:	dfc00515 	stw	ra,20(sp)
1000da68:	df000415 	stw	fp,16(sp)
1000da6c:	df000404 	addi	fp,sp,16
1000da70:	e13ffe15 	stw	r4,-8(fp)
1000da74:	e17fff15 	stw	r5,-4(fp)
  alt_dev* next = (alt_dev*) llist->next;
1000da78:	e0bfff17 	ldw	r2,-4(fp)
1000da7c:	10800017 	ldw	r2,0(r2)
1000da80:	e0bffc15 	stw	r2,-16(fp)
  alt_32 len;

  len  = strlen(name) + 1;
1000da84:	e13ffe17 	ldw	r4,-8(fp)
1000da88:	00022900 	call	10002290 <strlen>
1000da8c:	10800044 	addi	r2,r2,1
1000da90:	e0bffd15 	stw	r2,-12(fp)
  /*
   * Check each list entry in turn, until a match is found, or we reach the
   * end of the list (i.e. next winds up pointing back to the list head).
   */ 

  while (next != (alt_dev*) llist)
1000da94:	00000d06 	br	1000dacc <alt_find_dev+0x6c>
    /* 
     * memcmp() is used here rather than strcmp() in order to reduce the size
     * of the executable.
     */

    if (!memcmp (next->name, name, len))
1000da98:	e0bffc17 	ldw	r2,-16(fp)
1000da9c:	10c00217 	ldw	r3,8(r2)
1000daa0:	e0bffd17 	ldw	r2,-12(fp)
1000daa4:	1809883a 	mov	r4,r3
1000daa8:	e17ffe17 	ldw	r5,-8(fp)
1000daac:	100d883a 	mov	r6,r2
1000dab0:	000dd240 	call	1000dd24 <memcmp>
1000dab4:	1000021e 	bne	r2,zero,1000dac0 <alt_find_dev+0x60>
    {
      /* match found */

      return next;
1000dab8:	e0bffc17 	ldw	r2,-16(fp)
1000dabc:	00000706 	br	1000dadc <alt_find_dev+0x7c>
    }
    next = (alt_dev*) next->llist.next;
1000dac0:	e0bffc17 	ldw	r2,-16(fp)
1000dac4:	10800017 	ldw	r2,0(r2)
1000dac8:	e0bffc15 	stw	r2,-16(fp)
  /*
   * Check each list entry in turn, until a match is found, or we reach the
   * end of the list (i.e. next winds up pointing back to the list head).
   */ 

  while (next != (alt_dev*) llist)
1000dacc:	e0fffc17 	ldw	r3,-16(fp)
1000dad0:	e0bfff17 	ldw	r2,-4(fp)
1000dad4:	18bff01e 	bne	r3,r2,1000da98 <__alt_data_end+0xf800da98>
    next = (alt_dev*) next->llist.next;
  }
  
  /* No match found */
  
  return NULL;
1000dad8:	0005883a 	mov	r2,zero
}
1000dadc:	e037883a 	mov	sp,fp
1000dae0:	dfc00117 	ldw	ra,4(sp)
1000dae4:	df000017 	ldw	fp,0(sp)
1000dae8:	dec00204 	addi	sp,sp,8
1000daec:	f800283a 	ret

1000daf0 <alt_find_file>:
 * either '/' or '\0' is the prefix of the filename. For example the filename:
 * "/myfilesystem/junk.txt" would match: "/myfilesystem", but not: "/myfile". 
 */
 
alt_dev* alt_find_file (const char* name)
{
1000daf0:	defffb04 	addi	sp,sp,-20
1000daf4:	dfc00415 	stw	ra,16(sp)
1000daf8:	df000315 	stw	fp,12(sp)
1000dafc:	df000304 	addi	fp,sp,12
1000db00:	e13fff15 	stw	r4,-4(fp)
  alt_dev* next = (alt_dev*) alt_fs_list.next;   
1000db04:	00840074 	movhi	r2,4097
1000db08:	10815f04 	addi	r2,r2,1404
1000db0c:	10800017 	ldw	r2,0(r2)
1000db10:	e0bffd15 	stw	r2,-12(fp)
  /*
   * Check each list entry in turn, until a match is found, or we reach the
   * end of the list (i.e. next winds up pointing back to the list head).
   */ 
 
  while (next != (alt_dev*) &alt_fs_list)
1000db14:	00003106 	br	1000dbdc <alt_find_file+0xec>
  {
    len = strlen(next->name);
1000db18:	e0bffd17 	ldw	r2,-12(fp)
1000db1c:	10800217 	ldw	r2,8(r2)
1000db20:	1009883a 	mov	r4,r2
1000db24:	00022900 	call	10002290 <strlen>
1000db28:	e0bffe15 	stw	r2,-8(fp)
    
    if (next->name[len-1] == '/')
1000db2c:	e0bffd17 	ldw	r2,-12(fp)
1000db30:	10c00217 	ldw	r3,8(r2)
1000db34:	e0bffe17 	ldw	r2,-8(fp)
1000db38:	10bfffc4 	addi	r2,r2,-1
1000db3c:	1885883a 	add	r2,r3,r2
1000db40:	10800003 	ldbu	r2,0(r2)
1000db44:	10803fcc 	andi	r2,r2,255
1000db48:	1080201c 	xori	r2,r2,128
1000db4c:	10bfe004 	addi	r2,r2,-128
1000db50:	10800bd8 	cmpnei	r2,r2,47
1000db54:	1000031e 	bne	r2,zero,1000db64 <alt_find_file+0x74>
    {
      len -= 1;
1000db58:	e0bffe17 	ldw	r2,-8(fp)
1000db5c:	10bfffc4 	addi	r2,r2,-1
1000db60:	e0bffe15 	stw	r2,-8(fp)
    }

    if (((name[len] == '/') || (name[len] == '\0')) && 
1000db64:	e0bffe17 	ldw	r2,-8(fp)
1000db68:	e0ffff17 	ldw	r3,-4(fp)
1000db6c:	1885883a 	add	r2,r3,r2
1000db70:	10800003 	ldbu	r2,0(r2)
1000db74:	10803fcc 	andi	r2,r2,255
1000db78:	1080201c 	xori	r2,r2,128
1000db7c:	10bfe004 	addi	r2,r2,-128
1000db80:	10800be0 	cmpeqi	r2,r2,47
1000db84:	1000081e 	bne	r2,zero,1000dba8 <alt_find_file+0xb8>
1000db88:	e0bffe17 	ldw	r2,-8(fp)
1000db8c:	e0ffff17 	ldw	r3,-4(fp)
1000db90:	1885883a 	add	r2,r3,r2
1000db94:	10800003 	ldbu	r2,0(r2)
1000db98:	10803fcc 	andi	r2,r2,255
1000db9c:	1080201c 	xori	r2,r2,128
1000dba0:	10bfe004 	addi	r2,r2,-128
1000dba4:	10000a1e 	bne	r2,zero,1000dbd0 <alt_find_file+0xe0>
        !memcmp (next->name, name, len))
1000dba8:	e0bffd17 	ldw	r2,-12(fp)
1000dbac:	10c00217 	ldw	r3,8(r2)
1000dbb0:	e0bffe17 	ldw	r2,-8(fp)
1000dbb4:	1809883a 	mov	r4,r3
1000dbb8:	e17fff17 	ldw	r5,-4(fp)
1000dbbc:	100d883a 	mov	r6,r2
1000dbc0:	000dd240 	call	1000dd24 <memcmp>
    if (next->name[len-1] == '/')
    {
      len -= 1;
    }

    if (((name[len] == '/') || (name[len] == '\0')) && 
1000dbc4:	1000021e 	bne	r2,zero,1000dbd0 <alt_find_file+0xe0>
        !memcmp (next->name, name, len))
    {
      /* match found */

      return next;
1000dbc8:	e0bffd17 	ldw	r2,-12(fp)
1000dbcc:	00000806 	br	1000dbf0 <alt_find_file+0x100>
    }
    next = (alt_dev*) next->llist.next;
1000dbd0:	e0bffd17 	ldw	r2,-12(fp)
1000dbd4:	10800017 	ldw	r2,0(r2)
1000dbd8:	e0bffd15 	stw	r2,-12(fp)
  /*
   * Check each list entry in turn, until a match is found, or we reach the
   * end of the list (i.e. next winds up pointing back to the list head).
   */ 
 
  while (next != (alt_dev*) &alt_fs_list)
1000dbdc:	e0fffd17 	ldw	r3,-12(fp)
1000dbe0:	00840074 	movhi	r2,4097
1000dbe4:	10815f04 	addi	r2,r2,1404
1000dbe8:	18bfcb1e 	bne	r3,r2,1000db18 <__alt_data_end+0xf800db18>
    next = (alt_dev*) next->llist.next;
  }
  
  /* No match found */
  
  return NULL;     
1000dbec:	0005883a 	mov	r2,zero
}
1000dbf0:	e037883a 	mov	sp,fp
1000dbf4:	dfc00117 	ldw	ra,4(sp)
1000dbf8:	df000017 	ldw	fp,0(sp)
1000dbfc:	dec00204 	addi	sp,sp,8
1000dc00:	f800283a 	ret

1000dc04 <alt_get_fd>:
 * the offset of the file descriptor within the file descriptor array). A
 * negative value indicates failure.
 */

int alt_get_fd (alt_dev* dev)
{
1000dc04:	defffa04 	addi	sp,sp,-24
1000dc08:	dfc00515 	stw	ra,20(sp)
1000dc0c:	df000415 	stw	fp,16(sp)
1000dc10:	dc000315 	stw	r16,12(sp)
1000dc14:	df000304 	addi	fp,sp,12
1000dc18:	e13fff15 	stw	r4,-4(fp)
  alt_32 i;
  int rc = -EMFILE;
1000dc1c:	00bffa04 	movi	r2,-24
1000dc20:	e0bffe15 	stw	r2,-8(fp)
   * indicates the highest file descriptor ever allocated. This is used to
   * improve efficency when searching the file descriptor list, and 
   * therefore reduce contention on the alt_fd_list_lock semaphore. 
   */

  for (i = 0; i < ALT_MAX_FD; i++)
1000dc24:	e03ffd15 	stw	zero,-12(fp)
1000dc28:	00002106 	br	1000dcb0 <alt_get_fd+0xac>
  {
    if (!alt_fd_list[i].dev)
1000dc2c:	04040074 	movhi	r16,4097
1000dc30:	843ce204 	addi	r16,r16,-3192
1000dc34:	e0bffd17 	ldw	r2,-12(fp)
1000dc38:	1009883a 	mov	r4,r2
1000dc3c:	01400304 	movi	r5,12
1000dc40:	000b2180 	call	1000b218 <__mulsi3>
1000dc44:	8085883a 	add	r2,r16,r2
1000dc48:	10800017 	ldw	r2,0(r2)
1000dc4c:	1000151e 	bne	r2,zero,1000dca4 <alt_get_fd+0xa0>
    {
      alt_fd_list[i].dev = dev;
1000dc50:	04040074 	movhi	r16,4097
1000dc54:	843ce204 	addi	r16,r16,-3192
1000dc58:	e0bffd17 	ldw	r2,-12(fp)
1000dc5c:	1009883a 	mov	r4,r2
1000dc60:	01400304 	movi	r5,12
1000dc64:	000b2180 	call	1000b218 <__mulsi3>
1000dc68:	8085883a 	add	r2,r16,r2
1000dc6c:	e0ffff17 	ldw	r3,-4(fp)
1000dc70:	10c00015 	stw	r3,0(r2)
      if (i > alt_max_fd)
1000dc74:	00840074 	movhi	r2,4097
1000dc78:	10816304 	addi	r2,r2,1420
1000dc7c:	10c00017 	ldw	r3,0(r2)
1000dc80:	e0bffd17 	ldw	r2,-12(fp)
1000dc84:	1880040e 	bge	r3,r2,1000dc98 <alt_get_fd+0x94>
      {
        alt_max_fd = i;
1000dc88:	00840074 	movhi	r2,4097
1000dc8c:	10816304 	addi	r2,r2,1420
1000dc90:	e0fffd17 	ldw	r3,-12(fp)
1000dc94:	10c00015 	stw	r3,0(r2)
      }
      rc = i;
1000dc98:	e0bffd17 	ldw	r2,-12(fp)
1000dc9c:	e0bffe15 	stw	r2,-8(fp)
      goto alt_get_fd_exit;
1000dca0:	00000606 	br	1000dcbc <alt_get_fd+0xb8>
   * indicates the highest file descriptor ever allocated. This is used to
   * improve efficency when searching the file descriptor list, and 
   * therefore reduce contention on the alt_fd_list_lock semaphore. 
   */

  for (i = 0; i < ALT_MAX_FD; i++)
1000dca4:	e0bffd17 	ldw	r2,-12(fp)
1000dca8:	10800044 	addi	r2,r2,1
1000dcac:	e0bffd15 	stw	r2,-12(fp)
1000dcb0:	e0bffd17 	ldw	r2,-12(fp)
1000dcb4:	10800810 	cmplti	r2,r2,32
1000dcb8:	103fdc1e 	bne	r2,zero,1000dc2c <__alt_data_end+0xf800dc2c>
   * file descriptor pool.
   */

  ALT_SEM_POST(alt_fd_list_lock);

  return rc;
1000dcbc:	e0bffe17 	ldw	r2,-8(fp)
}
1000dcc0:	e037883a 	mov	sp,fp
1000dcc4:	dfc00217 	ldw	ra,8(sp)
1000dcc8:	df000117 	ldw	fp,4(sp)
1000dccc:	dc000017 	ldw	r16,0(sp)
1000dcd0:	dec00304 	addi	sp,sp,12
1000dcd4:	f800283a 	ret

1000dcd8 <atexit>:
1000dcd8:	200b883a 	mov	r5,r4
1000dcdc:	000d883a 	mov	r6,zero
1000dce0:	0009883a 	mov	r4,zero
1000dce4:	000f883a 	mov	r7,zero
1000dce8:	000dda01 	jmpi	1000dda0 <__register_exitproc>

1000dcec <exit>:
1000dcec:	defffe04 	addi	sp,sp,-8
1000dcf0:	000b883a 	mov	r5,zero
1000dcf4:	dc000015 	stw	r16,0(sp)
1000dcf8:	dfc00115 	stw	ra,4(sp)
1000dcfc:	2021883a 	mov	r16,r4
1000dd00:	000ded00 	call	1000ded0 <__call_exitprocs>
1000dd04:	00840074 	movhi	r2,4097
1000dd08:	10815a04 	addi	r2,r2,1384
1000dd0c:	11000017 	ldw	r4,0(r2)
1000dd10:	20800f17 	ldw	r2,60(r4)
1000dd14:	10000126 	beq	r2,zero,1000dd1c <exit+0x30>
1000dd18:	103ee83a 	callr	r2
1000dd1c:	8009883a 	mov	r4,r16
1000dd20:	000e0700 	call	1000e070 <_exit>

1000dd24 <memcmp>:
1000dd24:	01c000c4 	movi	r7,3
1000dd28:	3980192e 	bgeu	r7,r6,1000dd90 <memcmp+0x6c>
1000dd2c:	2904b03a 	or	r2,r5,r4
1000dd30:	11c4703a 	and	r2,r2,r7
1000dd34:	10000f26 	beq	r2,zero,1000dd74 <memcmp+0x50>
1000dd38:	20c00003 	ldbu	r3,0(r4)
1000dd3c:	28800003 	ldbu	r2,0(r5)
1000dd40:	1880151e 	bne	r3,r2,1000dd98 <memcmp+0x74>
1000dd44:	31bfff84 	addi	r6,r6,-2
1000dd48:	01ffffc4 	movi	r7,-1
1000dd4c:	00000406 	br	1000dd60 <memcmp+0x3c>
1000dd50:	20c00003 	ldbu	r3,0(r4)
1000dd54:	28800003 	ldbu	r2,0(r5)
1000dd58:	31bfffc4 	addi	r6,r6,-1
1000dd5c:	18800e1e 	bne	r3,r2,1000dd98 <memcmp+0x74>
1000dd60:	21000044 	addi	r4,r4,1
1000dd64:	29400044 	addi	r5,r5,1
1000dd68:	31fff91e 	bne	r6,r7,1000dd50 <__alt_data_end+0xf800dd50>
1000dd6c:	0005883a 	mov	r2,zero
1000dd70:	f800283a 	ret
1000dd74:	20c00017 	ldw	r3,0(r4)
1000dd78:	28800017 	ldw	r2,0(r5)
1000dd7c:	1880041e 	bne	r3,r2,1000dd90 <memcmp+0x6c>
1000dd80:	31bfff04 	addi	r6,r6,-4
1000dd84:	21000104 	addi	r4,r4,4
1000dd88:	29400104 	addi	r5,r5,4
1000dd8c:	39bff936 	bltu	r7,r6,1000dd74 <__alt_data_end+0xf800dd74>
1000dd90:	303fe91e 	bne	r6,zero,1000dd38 <__alt_data_end+0xf800dd38>
1000dd94:	003ff506 	br	1000dd6c <__alt_data_end+0xf800dd6c>
1000dd98:	1885c83a 	sub	r2,r3,r2
1000dd9c:	f800283a 	ret

1000dda0 <__register_exitproc>:
1000dda0:	defffa04 	addi	sp,sp,-24
1000dda4:	00840074 	movhi	r2,4097
1000dda8:	10815a04 	addi	r2,r2,1384
1000ddac:	dc000315 	stw	r16,12(sp)
1000ddb0:	14000017 	ldw	r16,0(r2)
1000ddb4:	dc400415 	stw	r17,16(sp)
1000ddb8:	dfc00515 	stw	ra,20(sp)
1000ddbc:	80805217 	ldw	r2,328(r16)
1000ddc0:	2023883a 	mov	r17,r4
1000ddc4:	10003e26 	beq	r2,zero,1000dec0 <__register_exitproc+0x120>
1000ddc8:	10c00117 	ldw	r3,4(r2)
1000ddcc:	020007c4 	movi	r8,31
1000ddd0:	40c0180e 	bge	r8,r3,1000de34 <__register_exitproc+0x94>
1000ddd4:	00800034 	movhi	r2,0
1000ddd8:	10800004 	addi	r2,r2,0
1000dddc:	1000061e 	bne	r2,zero,1000ddf8 <__register_exitproc+0x58>
1000dde0:	00bfffc4 	movi	r2,-1
1000dde4:	dfc00517 	ldw	ra,20(sp)
1000dde8:	dc400417 	ldw	r17,16(sp)
1000ddec:	dc000317 	ldw	r16,12(sp)
1000ddf0:	dec00604 	addi	sp,sp,24
1000ddf4:	f800283a 	ret
1000ddf8:	01006404 	movi	r4,400
1000ddfc:	d9400015 	stw	r5,0(sp)
1000de00:	d9800115 	stw	r6,4(sp)
1000de04:	d9c00215 	stw	r7,8(sp)
1000de08:	00000000 	call	10000000 <__reset>
1000de0c:	d9400017 	ldw	r5,0(sp)
1000de10:	d9800117 	ldw	r6,4(sp)
1000de14:	d9c00217 	ldw	r7,8(sp)
1000de18:	103ff126 	beq	r2,zero,1000dde0 <__alt_data_end+0xf800dde0>
1000de1c:	80c05217 	ldw	r3,328(r16)
1000de20:	10000115 	stw	zero,4(r2)
1000de24:	10c00015 	stw	r3,0(r2)
1000de28:	80805215 	stw	r2,328(r16)
1000de2c:	10006215 	stw	zero,392(r2)
1000de30:	10006315 	stw	zero,396(r2)
1000de34:	10c00117 	ldw	r3,4(r2)
1000de38:	88000d1e 	bne	r17,zero,1000de70 <__register_exitproc+0xd0>
1000de3c:	19000084 	addi	r4,r3,2
1000de40:	2109883a 	add	r4,r4,r4
1000de44:	18c00044 	addi	r3,r3,1
1000de48:	2109883a 	add	r4,r4,r4
1000de4c:	1109883a 	add	r4,r2,r4
1000de50:	10c00115 	stw	r3,4(r2)
1000de54:	0005883a 	mov	r2,zero
1000de58:	21400015 	stw	r5,0(r4)
1000de5c:	dfc00517 	ldw	ra,20(sp)
1000de60:	dc400417 	ldw	r17,16(sp)
1000de64:	dc000317 	ldw	r16,12(sp)
1000de68:	dec00604 	addi	sp,sp,24
1000de6c:	f800283a 	ret
1000de70:	02400044 	movi	r9,1
1000de74:	12806217 	ldw	r10,392(r2)
1000de78:	48d2983a 	sll	r9,r9,r3
1000de7c:	19000804 	addi	r4,r3,32
1000de80:	18d1883a 	add	r8,r3,r3
1000de84:	2109883a 	add	r4,r4,r4
1000de88:	4211883a 	add	r8,r8,r8
1000de8c:	2109883a 	add	r4,r4,r4
1000de90:	1109883a 	add	r4,r2,r4
1000de94:	1211883a 	add	r8,r2,r8
1000de98:	5254b03a 	or	r10,r10,r9
1000de9c:	21c02215 	stw	r7,136(r4)
1000dea0:	41802215 	stw	r6,136(r8)
1000dea4:	12806215 	stw	r10,392(r2)
1000dea8:	01000084 	movi	r4,2
1000deac:	893fe31e 	bne	r17,r4,1000de3c <__alt_data_end+0xf800de3c>
1000deb0:	11006317 	ldw	r4,396(r2)
1000deb4:	2252b03a 	or	r9,r4,r9
1000deb8:	12406315 	stw	r9,396(r2)
1000debc:	003fdf06 	br	1000de3c <__alt_data_end+0xf800de3c>
1000dec0:	00840074 	movhi	r2,4097
1000dec4:	10885704 	addi	r2,r2,8540
1000dec8:	80805215 	stw	r2,328(r16)
1000decc:	003fbe06 	br	1000ddc8 <__alt_data_end+0xf800ddc8>

1000ded0 <__call_exitprocs>:
1000ded0:	00840074 	movhi	r2,4097
1000ded4:	10815a04 	addi	r2,r2,1384
1000ded8:	10800017 	ldw	r2,0(r2)
1000dedc:	defff304 	addi	sp,sp,-52
1000dee0:	df000b15 	stw	fp,44(sp)
1000dee4:	d8800015 	stw	r2,0(sp)
1000dee8:	10805204 	addi	r2,r2,328
1000deec:	dd400815 	stw	r21,32(sp)
1000def0:	dfc00c15 	stw	ra,48(sp)
1000def4:	ddc00a15 	stw	r23,40(sp)
1000def8:	dd800915 	stw	r22,36(sp)
1000defc:	dd000715 	stw	r20,28(sp)
1000df00:	dcc00615 	stw	r19,24(sp)
1000df04:	dc800515 	stw	r18,20(sp)
1000df08:	dc400415 	stw	r17,16(sp)
1000df0c:	dc000315 	stw	r16,12(sp)
1000df10:	d9000115 	stw	r4,4(sp)
1000df14:	2839883a 	mov	fp,r5
1000df18:	d8800215 	stw	r2,8(sp)
1000df1c:	057fffc4 	movi	r21,-1
1000df20:	d8800017 	ldw	r2,0(sp)
1000df24:	ddc00217 	ldw	r23,8(sp)
1000df28:	14805217 	ldw	r18,328(r2)
1000df2c:	90001726 	beq	r18,zero,1000df8c <__call_exitprocs+0xbc>
1000df30:	94400117 	ldw	r17,4(r18)
1000df34:	8c3fffc4 	addi	r16,r17,-1
1000df38:	80001116 	blt	r16,zero,1000df80 <__call_exitprocs+0xb0>
1000df3c:	8c400044 	addi	r17,r17,1
1000df40:	8427883a 	add	r19,r16,r16
1000df44:	8c63883a 	add	r17,r17,r17
1000df48:	95802204 	addi	r22,r18,136
1000df4c:	9ce7883a 	add	r19,r19,r19
1000df50:	8c63883a 	add	r17,r17,r17
1000df54:	b4e7883a 	add	r19,r22,r19
1000df58:	9463883a 	add	r17,r18,r17
1000df5c:	e0001726 	beq	fp,zero,1000dfbc <__call_exitprocs+0xec>
1000df60:	8c87c83a 	sub	r3,r17,r18
1000df64:	b0c7883a 	add	r3,r22,r3
1000df68:	18c01e17 	ldw	r3,120(r3)
1000df6c:	1f001326 	beq	r3,fp,1000dfbc <__call_exitprocs+0xec>
1000df70:	843fffc4 	addi	r16,r16,-1
1000df74:	9cffff04 	addi	r19,r19,-4
1000df78:	8c7fff04 	addi	r17,r17,-4
1000df7c:	857ff71e 	bne	r16,r21,1000df5c <__alt_data_end+0xf800df5c>
1000df80:	00800034 	movhi	r2,0
1000df84:	10800004 	addi	r2,r2,0
1000df88:	10002a1e 	bne	r2,zero,1000e034 <__call_exitprocs+0x164>
1000df8c:	dfc00c17 	ldw	ra,48(sp)
1000df90:	df000b17 	ldw	fp,44(sp)
1000df94:	ddc00a17 	ldw	r23,40(sp)
1000df98:	dd800917 	ldw	r22,36(sp)
1000df9c:	dd400817 	ldw	r21,32(sp)
1000dfa0:	dd000717 	ldw	r20,28(sp)
1000dfa4:	dcc00617 	ldw	r19,24(sp)
1000dfa8:	dc800517 	ldw	r18,20(sp)
1000dfac:	dc400417 	ldw	r17,16(sp)
1000dfb0:	dc000317 	ldw	r16,12(sp)
1000dfb4:	dec00d04 	addi	sp,sp,52
1000dfb8:	f800283a 	ret
1000dfbc:	91000117 	ldw	r4,4(r18)
1000dfc0:	88c00017 	ldw	r3,0(r17)
1000dfc4:	213fffc4 	addi	r4,r4,-1
1000dfc8:	24001526 	beq	r4,r16,1000e020 <__call_exitprocs+0x150>
1000dfcc:	88000015 	stw	zero,0(r17)
1000dfd0:	183fe726 	beq	r3,zero,1000df70 <__alt_data_end+0xf800df70>
1000dfd4:	00800044 	movi	r2,1
1000dfd8:	1408983a 	sll	r4,r2,r16
1000dfdc:	91406217 	ldw	r5,392(r18)
1000dfe0:	95000117 	ldw	r20,4(r18)
1000dfe4:	214a703a 	and	r5,r4,r5
1000dfe8:	28000b26 	beq	r5,zero,1000e018 <__call_exitprocs+0x148>
1000dfec:	91406317 	ldw	r5,396(r18)
1000dff0:	2148703a 	and	r4,r4,r5
1000dff4:	20000c1e 	bne	r4,zero,1000e028 <__call_exitprocs+0x158>
1000dff8:	99400017 	ldw	r5,0(r19)
1000dffc:	d9000117 	ldw	r4,4(sp)
1000e000:	183ee83a 	callr	r3
1000e004:	90c00117 	ldw	r3,4(r18)
1000e008:	1d3fc51e 	bne	r3,r20,1000df20 <__alt_data_end+0xf800df20>
1000e00c:	b8c00017 	ldw	r3,0(r23)
1000e010:	1cbfd726 	beq	r3,r18,1000df70 <__alt_data_end+0xf800df70>
1000e014:	003fc206 	br	1000df20 <__alt_data_end+0xf800df20>
1000e018:	183ee83a 	callr	r3
1000e01c:	003ff906 	br	1000e004 <__alt_data_end+0xf800e004>
1000e020:	94000115 	stw	r16,4(r18)
1000e024:	003fea06 	br	1000dfd0 <__alt_data_end+0xf800dfd0>
1000e028:	99000017 	ldw	r4,0(r19)
1000e02c:	183ee83a 	callr	r3
1000e030:	003ff406 	br	1000e004 <__alt_data_end+0xf800e004>
1000e034:	90c00117 	ldw	r3,4(r18)
1000e038:	1800071e 	bne	r3,zero,1000e058 <__call_exitprocs+0x188>
1000e03c:	90c00017 	ldw	r3,0(r18)
1000e040:	18000926 	beq	r3,zero,1000e068 <__call_exitprocs+0x198>
1000e044:	9009883a 	mov	r4,r18
1000e048:	b8c00015 	stw	r3,0(r23)
1000e04c:	00000000 	call	10000000 <__reset>
1000e050:	bc800017 	ldw	r18,0(r23)
1000e054:	003fb506 	br	1000df2c <__alt_data_end+0xf800df2c>
1000e058:	90c00017 	ldw	r3,0(r18)
1000e05c:	902f883a 	mov	r23,r18
1000e060:	1825883a 	mov	r18,r3
1000e064:	003fb106 	br	1000df2c <__alt_data_end+0xf800df2c>
1000e068:	0007883a 	mov	r3,zero
1000e06c:	003ffb06 	br	1000e05c <__alt_data_end+0xf800e05c>

1000e070 <_exit>:
 *
 * ALT_EXIT is mapped onto the _exit() system call in alt_syscall.h
 */

void ALT_EXIT (int exit_code)
{
1000e070:	defffc04 	addi	sp,sp,-16
1000e074:	df000315 	stw	fp,12(sp)
1000e078:	df000304 	addi	fp,sp,12
1000e07c:	e13fff15 	stw	r4,-4(fp)
  ALT_LOG_PRINT_BOOT("[alt_exit.c] Entering _exit() function.\r\n");
  ALT_LOG_PRINT_BOOT("[alt_exit.c] Exit code from main was %d.\r\n",exit_code);
  /* Stop all other threads */

  ALT_LOG_PRINT_BOOT("[alt_exit.c] Calling ALT_OS_STOP().\r\n");
  ALT_OS_STOP();
1000e080:	0001883a 	nop
1000e084:	e0bfff17 	ldw	r2,-4(fp)
1000e088:	e0bffd15 	stw	r2,-12(fp)
/*
 * Routine called on exit.
 */
static ALT_INLINE ALT_ALWAYS_INLINE void alt_sim_halt(int exit_code)
{
  int r2 = exit_code;
1000e08c:	e0bffd17 	ldw	r2,-12(fp)
1000e090:	e0bffe15 	stw	r2,-8(fp)
  __asm__ volatile ("\n0:\n\taddi %0,%0, -1\n\tbgt %0,zero,0b" : : "r" (ALT_CPU_FREQ/100) ); /* Delay for >30ms */

  __asm__ volatile ("break 2" : : "D02"(r2), "D03"(r3) ALT_GMON_DATA );

#else /* !DEBUG_STUB */
  if (r2) {
1000e094:	e0bffe17 	ldw	r2,-8(fp)
1000e098:	10000226 	beq	r2,zero,1000e0a4 <_exit+0x34>
    ALT_SIM_FAIL();
1000e09c:	002af070 	cmpltui	zero,zero,43969
1000e0a0:	00000106 	br	1000e0a8 <_exit+0x38>
  } else {
    ALT_SIM_PASS();
1000e0a4:	002af0b0 	cmpltui	zero,zero,43970
  ALT_SIM_HALT(exit_code);

  /* spin forever, since there's no where to go back to */

  ALT_LOG_PRINT_BOOT("[alt_exit.c] Spinning forever.\r\n");
  while (1);
1000e0a8:	003fff06 	br	1000e0a8 <__alt_data_end+0xf800e0a8>
